 hashset-cpp

 Timestamp is 5d55647b (Thu Aug 15 14:56:11 2019)

 Preferred load address is 0000000180000000

 Start         Length     Name                   Class
 0001:00000000 00000040H .text$di                CODE
 0001:00000040 00013fd0H .text$mn                CODE
 0001:00014010 00000020H .text$mn$00             CODE
 0001:00014030 00000250H .text$x                 CODE
 0001:00014280 00000003H .text$yd                CODE
 0002:00000000 00000258H .idata$5                DATA
 0002:00000258 00000010H .00cfg                  DATA
 0002:00000268 00000008H .CRT$XCA                DATA
 0002:00000270 00000020H .CRT$XCU                DATA
 0002:00000290 00000008H .CRT$XCZ                DATA
 0002:00000298 00000008H .CRT$XIA                DATA
 0002:000002a0 00000018H .CRT$XIC                DATA
 0002:000002b8 00000008H .CRT$XIZ                DATA
 0002:000002c0 00000008H .CRT$XPA                DATA
 0002:000002c8 00000010H .CRT$XPX                DATA
 0002:000002d8 00000008H .CRT$XPXA               DATA
 0002:000002e0 00000008H .CRT$XPZ                DATA
 0002:000002e8 00000008H .CRT$XTA                DATA
 0002:000002f0 00000010H .CRT$XTZ                DATA
 0002:000002f8 00000000H .gfids$y                DATA
 0002:00000300 00008660H .rdata                  DATA
 0002:00008960 000001f4H .rdata$r                DATA
 0002:00008b54 0000042cH .rdata$zzzdbg           DATA
 0002:00008f80 00000008H .rtc$IAA                DATA
 0002:00008f88 00000008H .rtc$IZZ                DATA
 0002:00008f90 00000008H .rtc$TAA                DATA
 0002:00008f98 00000008H .rtc$TZZ                DATA
 0002:00008fa0 00001090H .xdata                  DATA
 0002:0000a030 000000ecH .xdata$x                DATA
 0002:0000a11c 00000020H .didat$2                DATA
 0002:0000a13c 00000024H .didat$3                DATA
 0002:0000a160 000000f8H .didat$4                DATA
 0002:0000a258 000008a8H .didat$6                DATA
 0002:0000ab00 00000100H .didat$7                DATA
 0002:0000ac00 00000054H .edata                  DATA
 0002:0000ac54 00000014H .idata$2                DATA
 0002:0000ac68 00000018H .idata$3                DATA
 0002:0000ac80 00000258H .idata$4                DATA
 0002:0000aed8 00000574H .idata$6                DATA
 0003:00000000 00000a90H .data                   DATA
 0003:00000a90 000000a0H .data$r                 DATA
 0003:00000b30 00000100H .didat$5                DATA
 0003:00000c30 0000143cH .bss                    DATA
 0004:00000000 000013ecH .pdata                  DATA
 0005:00000000 00000060H .rsrc$01                DATA
 0005:00000060 00000180H .rsrc$02                DATA

  Address         Publics by Value              Rva+Base               Lib:Object

 0000:00000000       __hybrid_code_map_count    0000000000000000     <absolute>
 0000:00000000       __hybrid_code_map          0000000000000000     <absolute>
 0000:00000000       __guard_iat_count          0000000000000000     <absolute>
 0000:00000000       __guard_longjmp_count      0000000000000000     <absolute>
 0000:00000000       __guard_longjmp_table      0000000000000000     <absolute>
 0000:00000000       __volatile_metadata        0000000000000000     <absolute>
 0000:00000000       __guard_iat_table          0000000000000000     <absolute>
 0000:00000000       __guard_fids_count         0000000000000000     <absolute>
 0000:00000000       ___safe_se_handler_count   0000000000000000     <absolute>
 0000:00000000       __enclave_config           0000000000000000     <absolute>
 0000:00000000       ___safe_se_handler_table   0000000000000000     <absolute>
 0000:00000000       __guard_fids_table         0000000000000000     <absolute>
 0000:00000000       __hybrid_auxiliary_iat     0000000000000000     <absolute>
 0000:00000000       __dynamic_value_reloc_table 0000000000000000     <absolute>
 0000:00000100       __guard_flags              0000000000000100     <absolute>
 0000:00000000       __ImageBase                0000000180000000     <linker-defined>
 0001:00000040       ??0HashFn@@QEAA@H_N@Z      0000000180001040 f i addon.obj
 0001:00000200       ?InitAll@HashSetWrap@@YAXV?$Local@VObject@v8@@@v8@@@Z 0000000180001200 f   addon.obj
 0001:000003c0       ?NODE_SET_PROTOTYPE_METHOD@node@@YAXV?$Local@VFunctionTemplate@v8@@@v8@@PEBDP6AXAEBV?$FunctionCallbackInfo@VValue@v8@@@3@@Z@Z 00000001800013c0 f i hash_set_wrap.obj
 0001:000004c0       ?Ref@ObjectWrap@node@@MEAAXXZ 00000001800014c0 f i hash_set_wrap.obj
 0001:00000500       ?Unref@ObjectWrap@node@@MEAAXXZ 0000000180001500 f i hash_set_wrap.obj
 0001:000005b0       ?WeakCallback@ObjectWrap@node@@CAXAEBV?$WeakCallbackInfo@VObjectWrap@node@@@v8@@@Z 00000001800015b0 f i hash_set_wrap.obj
 0001:00000610       ??_GObjectWrap@node@@UEAAPEAXI@Z 0000000180001610 f i hash_set_wrap.obj
 0001:00000610       ??_EObjectWrap@node@@UEAAPEAXI@Z 0000000180001610 f i * CIL library *:* CIL module *
 0001:00000670       ??0ExampleData@@QEAA@AEBV0@@Z 0000000180001670 f i hash_set_wrap.obj
 0001:000006c0       ??_GHashSetWrap@0@EEAAPEAXI@Z 00000001800016c0 f i hash_set_wrap.obj
 0001:000006c0       ??_EHashSetWrap@0@EEAAPEAXI@Z 00000001800016c0 f i * CIL library *:* CIL module *
 0001:000007f0       ?New@HashSetWrap@1@CAXAEBV?$FunctionCallbackInfo@VValue@v8@@@v8@@@Z 00000001800017f0 f   hash_set_wrap.obj
 0001:00000a10       ?AddItem@HashSetWrap@1@CAXAEBV?$FunctionCallbackInfo@VValue@v8@@@v8@@@Z 0000000180001a10 f   hash_set_wrap.obj
 0001:00000c00       ?ItemExists@HashSetWrap@1@CAXAEBV?$FunctionCallbackInfo@VValue@v8@@@v8@@@Z 0000000180001c00 f   hash_set_wrap.obj
 0001:00000d50       ??$Unwrap@VHashSetWrap@1@@ObjectWrap@node@@SAPEAVHashSetWrap@2@V?$Local@VObject@v8@@@v8@@@Z 0000000180001d50 f i hash_set_wrap.obj
 0001:00000de0       ??RHashFn@@UEAA_KPEBDHE_K@Z 0000000180001de0 f   hashFn.obj
 0001:00000e50       ??RHashFn@@UEAA_KPEBDH@Z   0000000180001e50 f   hashFn.obj
 0001:00000f3c       __imp_load_node_module_register 0000000180001f3c f   node:node.exe
 0001:00000f48       __tailMerge_node_exe       0000000180001f48     node:node.exe
 0001:00000fc1       __imp_load_?New@Signature@v8@@SA?AV?$Local@VSignature@v8@@@2@PEAVIsolate@2@V?$Local@VFunctionTemplate@v8@@@2@@Z 0000000180001fc1 f   node:node.exe
 0001:00000fcd       __imp_load_?GetCurrentContext@Isolate@v8@@QEAA?AV?$Local@VContext@v8@@@2@XZ 0000000180001fcd f   node:node.exe
 0001:00000fd9       __imp_load_?GetCurrent@Isolate@v8@@SAPEAV12@XZ 0000000180001fd9 f   node:node.exe
 0001:00000fe5       __imp_load_?CreateHandle@HandleScope@v8@@KAPEAPEAVObject@internal@2@PEAVIsolate@42@PEAV342@@Z 0000000180001fe5 f   node:node.exe
 0001:00000ff1       __imp_load_??1HandleScope@v8@@QEAA@XZ 0000000180001ff1 f   node:node.exe
 0001:00000ffd       __imp_load_??0HandleScope@v8@@QEAA@PEAVIsolate@1@@Z 0000000180001ffd f   node:node.exe
 0001:00001009       __imp_load_?Set@Template@v8@@QEAAXV?$Local@VName@v8@@@2@V?$Local@VData@v8@@@2@W4PropertyAttribute@2@@Z 0000000180002009 f   node:node.exe
 0001:00001015       __imp_load_?SetClassName@FunctionTemplate@v8@@QEAAXV?$Local@VString@v8@@@2@@Z 0000000180002015 f   node:node.exe
 0001:00001021       __imp_load_?PrototypeTemplate@FunctionTemplate@v8@@QEAA?AV?$Local@VObjectTemplate@v8@@@2@XZ 0000000180002021 f   node:node.exe
 0001:0000102d       __imp_load_?InstanceTemplate@FunctionTemplate@v8@@QEAA?AV?$Local@VObjectTemplate@v8@@@2@XZ 000000018000202d f   node:node.exe
 0001:00001039       __imp_load_?GetFunction@FunctionTemplate@v8@@QEAA?AV?$MaybeLocal@VFunction@v8@@@2@V?$Local@VContext@v8@@@2@@Z 0000000180002039 f   node:node.exe
 0001:00001045       __imp_load_?New@FunctionTemplate@v8@@SA?AV?$Local@VFunctionTemplate@v8@@@2@PEAVIsolate@2@P6AXAEBV?$FunctionCallbackInfo@VValue@v8@@@2@@ZV?$Local@VValue@v8@@@2@V?$Local@VSignature@v8@@@2@HW4ConstructorBehavior@2@W4SideEffectType@2@@Z 0000000180002045 f   node:node.exe
 0001:00001051       __imp_load_?ToLocalEmpty@V8@v8@@CAXXZ 0000000180002051 f   node:node.exe
 0001:0000105d       __imp_load_?ClearWeak@V8@v8@@CAPEAXPEAPEAVObject@internal@2@@Z 000000018000205d f   node:node.exe
 0001:00001069       __imp_load_?MakeWeak@V8@v8@@CAXPEAPEAVObject@internal@2@PEAXP6AXAEBV?$WeakCallbackInfo@X@2@@ZW4WeakCallbackType@2@@Z 0000000180002069 f   node:node.exe
 0001:00001075       __imp_load_?DisposeGlobal@V8@v8@@CAXPEAPEAVObject@internal@2@@Z 0000000180002075 f   node:node.exe
 0001:00001081       __imp_load_?GlobalizeReference@V8@v8@@CAPEAPEAVObject@internal@2@PEAVIsolate@42@PEAPEAV342@@Z 0000000180002081 f   node:node.exe
 0001:0000108d       __imp_load_?ToString@Value@v8@@QEBA?AV?$MaybeLocal@VString@v8@@@2@V?$Local@VContext@v8@@@2@@Z 000000018000208d f   node:node.exe
 0001:00001099       __imp_load_??1Utf8Value@String@v8@@QEAA@XZ 0000000180002099 f   node:node.exe
 0001:000010a5       __imp_load_??0Utf8Value@String@v8@@QEAA@PEAVIsolate@2@V?$Local@VValue@v8@@@2@@Z 00000001800020a5 f   node:node.exe
 0001:000010b1       __imp_load_?NewFromUtf8@String@v8@@SA?AV?$Local@VString@v8@@@2@PEAVIsolate@2@PEBDW4NewStringType@12@H@Z 00000001800020b1 f   node:node.exe
 0001:000010bd       __imp_load_?NewFromUtf8@String@v8@@SA?AV?$MaybeLocal@VString@v8@@@2@PEAVIsolate@2@PEBDW4NewStringType@2@H@Z 00000001800020bd f   node:node.exe
 0001:000010c9       __imp_load_?SlowGetAlignedPointerFromInternalField@Object@v8@@AEAAPEAXH@Z 00000001800020c9 f   node:node.exe
 0001:000010d5       __imp_load_?GetIsolate@Object@v8@@QEAAPEAVIsolate@2@XZ 00000001800020d5 f   node:node.exe
 0001:000010e1       __imp_load_?SetAlignedPointerInInternalField@Object@v8@@QEAAXHPEAX@Z 00000001800020e1 f   node:node.exe
 0001:000010ed       __imp_load_?InternalFieldCount@Object@v8@@QEAAHXZ 00000001800020ed f   node:node.exe
 0001:000010f9       __imp_load_?Set@Object@v8@@QEAA_NV?$Local@VValue@v8@@@2@0@Z 00000001800020f9 f   node:node.exe
 0001:00001105       __imp_load_?NewInstance@Function@v8@@QEBA?AV?$MaybeLocal@VObject@v8@@@2@V?$Local@VContext@v8@@@2@HQEAV?$Local@VValue@v8@@@2@@Z 0000000180002105 f   node:node.exe
 0001:00001111       __imp_load_?SetInternalFieldCount@ObjectTemplate@v8@@QEAAXH@Z 0000000180002111 f   node:node.exe
 0001:00001130       __security_check_cookie    0000000180002130 f   LIBCMT:amdsecgs.obj
 0001:00001154       ??3@YAXPEAX_K@Z            0000000180002154 f   LIBCMT:delete_scalar_size.obj
 0001:00001154       ??_V@YAXPEAX@Z             0000000180002154 f   LIBCMT:delete_array.obj
 0001:0000115c       ??2@YAPEAX_K@Z             000000018000215c f   LIBCMT:new_scalar.obj
 0001:00001198       __scrt_acquire_startup_lock 0000000180002198 f   LIBCMT:utility.obj
 0001:000011d4       __scrt_dllmain_after_initialize_c 00000001800021d4 f   LIBCMT:utility.obj
 0001:00001208       __scrt_dllmain_before_initialize_c 0000000180002208 f   LIBCMT:utility.obj
 0001:00001220       __scrt_dllmain_crt_thread_attach 0000000180002220 f   LIBCMT:utility.obj
 0001:00001248       __scrt_dllmain_crt_thread_detach 0000000180002248 f   LIBCMT:utility.obj
 0001:00001260       __scrt_dllmain_exception_filter 0000000180002260 f   LIBCMT:utility.obj
 0001:000012c0       __scrt_dllmain_uninitialize_c 00000001800022c0 f   LIBCMT:utility.obj
 0001:000012f0       __scrt_dllmain_uninitialize_critical 00000001800022f0 f   LIBCMT:utility.obj
 0001:00001304       __scrt_initialize_crt      0000000180002304 f   LIBCMT:utility.obj
 0001:00001350       __scrt_initialize_onexit_tables 0000000180002350 f   LIBCMT:utility.obj
 0001:00001428       __scrt_is_nonwritable_in_current_image 0000000180002428 f   LIBCMT:utility.obj
 0001:000014c4       __scrt_release_startup_lock 00000001800024c4 f   LIBCMT:utility.obj
 0001:000014e8       __scrt_uninitialize_crt    00000001800024e8 f   LIBCMT:utility.obj
 0001:00001514       _onexit                    0000000180002514 f   LIBCMT:utility.obj
 0001:00001564       atexit                     0000000180002564 f   LIBCMT:utility.obj
 0001:0000157c       ??_U@YAPEAX_K@Z            000000018000257c f   LIBCMT:new_array.obj
 0001:000018b4       _DllMainCRTStartup         00000001800028b4 f   LIBCMT:dll_dllmain.obj
 0001:000018f4       __raise_securityfailure    00000001800028f4 f   LIBCMT:gs_report.obj
 0001:00001928       __report_gsfailure         0000000180002928 f   LIBCMT:gs_report.obj
 0001:000019fc       __report_rangecheckfailure 00000001800029fc f   LIBCMT:gs_report.obj
 0001:00001a10       __report_securityfailure   0000000180002a10 f   LIBCMT:gs_report.obj
 0001:00001b90       ??3@YAXPEAX@Z              0000000180002b90 f   LIBCMT:delete_scalar.obj
 0001:00001b98       ??0bad_alloc@std@@QEAA@AEBV01@@Z 0000000180002b98 f i LIBCMT:throw_bad_alloc.obj
 0001:00001bd8       ??0bad_alloc@std@@QEAA@XZ  0000000180002bd8 f i LIBCMT:throw_bad_alloc.obj
 0001:00001bf8       ??0bad_array_new_length@std@@QEAA@AEBV01@@Z 0000000180002bf8 f i LIBCMT:throw_bad_alloc.obj
 0001:00001c38       ??0bad_array_new_length@std@@QEAA@XZ 0000000180002c38 f i LIBCMT:throw_bad_alloc.obj
 0001:00001c58       ??0exception@std@@QEAA@AEBV01@@Z 0000000180002c58 f i LIBCMT:throw_bad_alloc.obj
 0001:00001c90       ??1bad_array_new_length@std@@UEAA@XZ 0000000180002c90 f i LIBCMT:throw_bad_alloc.obj
 0001:00001c90       ??1bad_alloc@std@@UEAA@XZ  0000000180002c90 f i LIBCMT:throw_bad_alloc.obj
 0001:00001ca4       ??_Ebad_alloc@std@@UEAAPEAXI@Z 0000000180002ca4 f i LIBCMT:throw_bad_alloc.obj
 0001:00001ca4       ??_Gbad_array_new_length@std@@UEAAPEAXI@Z 0000000180002ca4 f i LIBCMT:throw_bad_alloc.obj
 0001:00001ca4       ??_Ebad_array_new_length@std@@UEAAPEAXI@Z 0000000180002ca4 f i LIBCMT:throw_bad_alloc.obj
 0001:00001ca4       ??_Gbad_alloc@std@@UEAAPEAXI@Z 0000000180002ca4 f i LIBCMT:throw_bad_alloc.obj
 0001:00001ca4       ??_Gexception@std@@UEAAPEAXI@Z 0000000180002ca4 f i LIBCMT:throw_bad_alloc.obj
 0001:00001ca4       ??_Eexception@std@@UEAAPEAXI@Z 0000000180002ca4 f i LIBCMT:throw_bad_alloc.obj
 0001:00001ce8       ?__scrt_throw_std_bad_alloc@@YAXXZ 0000000180002ce8 f   LIBCMT:throw_bad_alloc.obj
 0001:00001d08       ?__scrt_throw_std_bad_array_new_length@@YAXXZ 0000000180002d08 f   LIBCMT:throw_bad_alloc.obj
 0001:00001d28       ?what@exception@std@@UEBAPEBDXZ 0000000180002d28 f i LIBCMT:throw_bad_alloc.obj
 0001:00001d3c       __isa_available_init       0000000180002d3c f   LIBCMT:cpu_disp.obj
 0001:00001eb8       DllMain                    0000000180002eb8 f   LIBCMT:dll_dllmain_stub.obj
 0001:00001eb8       _get_startup_argv_mode     0000000180002eb8 f   LIBCMT:argv_mode.obj
 0001:00001ec0       __scrt_is_ucrt_dll_in_use  0000000180002ec0 f   LIBCMT:ucrt_detection.obj
 0001:00001ecc       __crt_debugger_hook        0000000180002ecc f   LIBCMT:utility_desktop.obj
 0001:00001ed4       __scrt_fastfail            0000000180002ed4 f   LIBCMT:utility_desktop.obj
 0001:00002020       _guard_check_icall_nop     0000000180003020 f i LIBCMT:guard_support.obj
 0001:00002024       __security_init_cookie     0000000180003024 f   LIBCMT:gs_support.obj
 0001:000020d0       ?__scrt_initialize_type_info@@YAXXZ 00000001800030d0 f   LIBCMT:tncleanup.obj
 0001:000020e0       ?__scrt_uninitialize_type_info@@YAXXZ 00000001800030e0 f   LIBCMT:tncleanup.obj
 0001:000020ec       __local_stdio_printf_options 00000001800030ec f i LIBCMT:default_local_stdio_options.obj
 0001:000020f4       __local_stdio_scanf_options 00000001800030f4 f i LIBCMT:default_local_stdio_options.obj
 0001:000020fc       __scrt_initialize_default_local_stdio_options 00000001800030fc f   LIBCMT:default_local_stdio_options.obj
 0001:00002118       __scrt_get_dyn_tls_init_callback 0000000180003118 f   LIBCMT:dyn_tls_init.obj
 0001:00002120       _RTC_Initialize            0000000180003120 f   LIBCMT:initsect.obj
 0001:0000215c       _RTC_Terminate             000000018000315c f   LIBCMT:initsect.obj
 0001:00002198       ??_Gtype_info@@UEAAPEAXI@Z 0000000180003198 f i LIBCMT:std_type_info_static.obj
 0001:00002198       ??_Etype_info@@UEAAPEAXI@Z 0000000180003198 f i LIBCMT:std_type_info_static.obj
 0001:000021d0       __vcrt_initialize          00000001800031d0 f   libvcruntime:initialization.obj
 0001:00002204       __vcrt_thread_attach       0000000180003204 f   libvcruntime:initialization.obj
 0001:00002218       __vcrt_thread_detach       0000000180003218 f   libvcruntime:initialization.obj
 0001:0000222c       __vcrt_uninitialize        000000018000322c f   libvcruntime:initialization.obj
 0001:0000224c       __vcrt_uninitialize_critical 000000018000324c f   libvcruntime:initialization.obj
 0001:0000225c       __C_specific_handler       000000018000325c f   libvcruntime:riscchandler.obj
 0001:00002468       __std_exception_copy       0000000180003468 f   libvcruntime:std_exception.obj
 0001:000024f8       __std_exception_destroy    00000001800034f8 f   libvcruntime:std_exception.obj
 0001:00002520       _CxxThrowException         0000000180003520 f   libvcruntime:throw.obj
 0001:000025f0       memset_repmovs             00000001800035f0 f   libvcruntime:memset.obj
 0001:00002610       memset                     0000000180003610 f   libvcruntime:memset.obj
 0001:000027a0       __std_type_info_destroy_list 00000001800037a0 f   libvcruntime:std_type_info.obj
 0001:000027cc       __vcrt_freefls             00000001800037cc f   libvcruntime:per_thread_data.obj
 0001:000027ec       __vcrt_freeptd             00000001800037ec f   libvcruntime:per_thread_data.obj
 0001:0000283c       __vcrt_getptd_noexit       000000018000383c f   libvcruntime:per_thread_data.obj
 0001:00002908       __vcrt_initialize_ptd      0000000180003908 f   libvcruntime:per_thread_data.obj
 0001:0000295c       __vcrt_uninitialize_ptd    000000018000395c f   libvcruntime:per_thread_data.obj
 0001:00002980       __vcrt_initialize_locks    0000000180003980 f   libvcruntime:locks.obj
 0001:000029c8       __vcrt_uninitialize_locks  00000001800039c8 f   libvcruntime:locks.obj
 0001:00002bd8       __vcrt_FlsAlloc            0000000180003bd8 f   libvcruntime:winapi_downlevel.obj
 0001:00002c20       __vcrt_FlsFree             0000000180003c20 f   libvcruntime:winapi_downlevel.obj
 0001:00002c68       __vcrt_FlsGetValue         0000000180003c68 f   libvcruntime:winapi_downlevel.obj
 0001:00002cb0       __vcrt_FlsSetValue         0000000180003cb0 f   libvcruntime:winapi_downlevel.obj
 0001:00002d04       __vcrt_InitializeCriticalSectionEx 0000000180003d04 f   libvcruntime:winapi_downlevel.obj
 0001:00002d68       __vcrt_initialize_winapi_thunks 0000000180003d68 f   libvcruntime:winapi_downlevel.obj
 0001:00002d98       __vcrt_uninitialize_winapi_thunks 0000000180003d98 f   libvcruntime:winapi_downlevel.obj
 0001:00002dd8       __vcrt_initialize_pure_virtual_call_handler 0000000180003dd8 f   libvcruntime:purevirt_data.obj
 0001:00002e00       _NLG_Notify                0000000180003e00 f   libvcruntime:notify.obj
 0001:00002e20       __NLG_Dispatch2            0000000180003e20 f   libvcruntime:notify.obj
 0001:00002e30       __NLG_Return2              0000000180003e30 f   libvcruntime:notify.obj
 0001:00002e34       __except_validate_context_record 0000000180003e34 f   libvcruntime:jbcxrval.obj
 0001:00002e6c       __DestructExceptionObject  0000000180003e6c f   libvcruntime:ehhelpers.obj
 0001:00002ee0       ?_CallMemberFunction0@@YAXQEAX0@Z 0000000180003ee0 f i libvcruntime:ehhelpers.obj
 0001:00002f00       memcpy_repmovs             0000000180003f00 f   libvcruntime:memcpy.obj
 0001:00002f20       memmove                    0000000180003f20 f   libvcruntime:memcpy.obj
 0001:00002f20       memcpy                     0000000180003f20 f   libvcruntime:memcpy.obj
 0001:00003360       _CallSettingFrame          0000000180004360 f   libvcruntime:handlers.obj
 0001:000033b0       _CallSettingFrameEncoded   00000001800043b0 f   libvcruntime:handlers.obj
 0001:00003b10       ??$ftprintf@PEAU_iobuf@@PEB_WAEBQEB_WAEBQEB_WAEBI@?$__crt_char_traits@_W@@SAH$$QEAPEAU_iobuf@@$$QEAPEB_WAEBQEB_W2AEBI@Z 0000000180004b10 f i libucrt:assert.obj
 0001:00003b38       _wassert                   0000000180004b38 f   libucrt:assert.obj
 0001:00003bac       fwprintf                   0000000180004bac f i libucrt:assert.obj
 0001:00003bf0       swprintf                   0000000180004bf0 f i libucrt:assert.obj
 0001:00003c44       ??0_LocaleUpdate@@QEAA@QEAU__crt_locale_pointers@@@Z 0000000180004c44 f i libucrt:stricmp.obj
 0001:00003ce0       __ascii_stricmp            0000000180004ce0 f   libucrt:stricmp.obj
 0001:00003d20       _stricmp                   0000000180004d20 f   libucrt:stricmp.obj
 0001:00003d68       _stricmp_l                 0000000180004d68 f   libucrt:stricmp.obj
 0001:00003e1c       __acrt_initialize_new_handler 0000000180004e1c f   libucrt:new_handler.obj
 0001:00003e24       _callnewh                  0000000180004e24 f   libucrt:new_handler.obj
 0001:00003e54       _query_new_handler         0000000180004e54 f   libucrt:new_handler.obj
 0001:00003e88       malloc                     0000000180004e88 f   libucrt:malloc.obj
 0001:00003e90       _seh_filter_dll            0000000180004e90 f   libucrt:exception_filter.obj
 0001:00003ea4       _seh_filter_exe            0000000180004ea4 f   libucrt:exception_filter.obj
 0001:00004294       __acrt_initialize_thread_local_exit_callback 0000000180005294 f   libucrt:exit.obj
 0001:0000429c       _cexit                     000000018000529c f   libucrt:exit.obj
 0001:000042ac       _exit                      00000001800052ac f   libucrt:exit.obj
 0001:000042b8       _is_c_termination_complete 00000001800052b8 f   libucrt:exit.obj
 0001:00004484       __acrt_allocate_buffer_for_argv 0000000180005484 f   libucrt:argv_parsing.obj
 0001:000044e4       _configure_narrow_argv     00000001800054e4 f   libucrt:argv_parsing.obj
 0001:0000485c       __dcrt_uninitialize_environments_nolock 000000018000585c f   libucrt:environment_initialization.obj
 0001:00004894       _initialize_narrow_environment 0000000180005894 f   libucrt:environment_initialization.obj
 0001:00004bdc       _crt_atexit                0000000180005bdc f   libucrt:onexit.obj
 0001:00004bec       _execute_onexit_table      0000000180005bec f   libucrt:onexit.obj
 0001:00004c28       _initialize_onexit_table   0000000180005c28 f   libucrt:onexit.obj
 0001:00004c50       _register_onexit_function  0000000180005c50 f   libucrt:onexit.obj
 0001:00004cd0       __acrt_uninitialize_command_line 0000000180005cd0 f   libucrt:argv_data.obj
 0001:00004dc8       __acrt_initialize          0000000180005dc8 f   libucrt:initialization.obj
 0001:00004ddc       __acrt_thread_attach       0000000180005ddc f   libucrt:initialization.obj
 0001:00004df0       __acrt_thread_detach       0000000180005df0 f   libucrt:initialization.obj
 0001:00004e00       __acrt_uninitialize        0000000180005e00 f   libucrt:initialization.obj
 0001:00004e38       __acrt_uninitialize_critical 0000000180005e38 f   libucrt:initialization.obj
 0001:00004e48       _initterm                  0000000180005e48 f   libucrt:initterm.obj
 0001:00004eac       _initterm_e                0000000180005eac f   libucrt:initterm.obj
 0001:00004eec       free                       0000000180005eec f   libucrt:free.obj
 0001:00004f00       terminate                  0000000180005f00 f   libucrt:terminate.obj
 0001:00004f20       strcpy_s                   0000000180005f20 f   libucrt:strcpy_s.obj
 0001:00004f80       abort                      0000000180005f80 f   libucrt:abort.obj
 0001:00004fd8       calloc                     0000000180005fd8 f   libucrt:calloc.obj
 0001:00004fe0       wcsncmp                    0000000180005fe0 f   libucrt:wcsncmp.obj
 0001:00005220       ??$ensure_buffer_is_big_enough@D@formatting_buffer@__crt_stdio_output@@QEAA_N_K@Z 0000000180006220 f i libucrt:output.obj
 0001:000052c8       ??$ensure_buffer_is_big_enough@_W@formatting_buffer@__crt_stdio_output@@QEAA_N_K@Z 00000001800062c8 f i libucrt:output.obj
 0001:00005374       ??$is_wide_character_specifier@_W@__crt_stdio_output@@YA_N_K_WW4length_modifier@0@@Z 0000000180006374 f i libucrt:output.obj
 0001:000053b4       ??$type_case_integer_parse_into_buffer@I@?$output_processor@_WV?$stream_output_adapter@_W@__crt_stdio_output@@V?$standard_base@_WV?$stream_output_adapter@_W@__crt_stdio_output@@@2@@__crt_stdio_output@@AEAAXII_N@Z 00000001800063b4 f i libucrt:output.obj
 0001:000053b4       ??$type_case_integer_parse_into_buffer@I@?$output_processor@_WV?$string_output_adapter@_W@__crt_stdio_output@@V?$standard_base@_WV?$string_output_adapter@_W@__crt_stdio_output@@@2@@__crt_stdio_output@@AEAAXII_N@Z 00000001800063b4 f i libucrt:output.obj
 0001:00005458       ??$type_case_integer_parse_into_buffer@_K@?$output_processor@_WV?$stream_output_adapter@_W@__crt_stdio_output@@V?$standard_base@_WV?$stream_output_adapter@_W@__crt_stdio_output@@@2@@__crt_stdio_output@@AEAAX_KI_N@Z 0000000180006458 f i libucrt:output.obj
 0001:00005458       ??$type_case_integer_parse_into_buffer@_K@?$output_processor@_WV?$string_output_adapter@_W@__crt_stdio_output@@V?$standard_base@_WV?$string_output_adapter@_W@__crt_stdio_output@@@2@@__crt_stdio_output@@AEAAX_KI_N@Z 0000000180006458 f i libucrt:output.obj
 0001:000054fc       ??$write_multiple_characters@V?$stream_output_adapter@_W@__crt_stdio_output@@D@__crt_stdio_output@@YAXAEBV?$stream_output_adapter@_W@0@DHQEAH@Z 00000001800064fc f i libucrt:output.obj
 0001:00005590       ??$write_multiple_characters@V?$string_output_adapter@_W@__crt_stdio_output@@D@__crt_stdio_output@@YAXAEBV?$string_output_adapter@_W@0@DHQEAH@Z 0000000180006590 f i libucrt:output.obj
 0001:00005740       ?crop_zeroes@__crt_stdio_output@@YAXPEADQEAU__crt_locale_pointers@@@Z 0000000180006740 f i libucrt:output.obj
 0001:000057ac       ?force_decimal_point@__crt_stdio_output@@YAXPEADQEAU__crt_locale_pointers@@@Z 00000001800067ac f i libucrt:output.obj
 0001:0000581c       ?parse_int_from_format_string@?$output_processor@_WV?$stream_output_adapter@_W@__crt_stdio_output@@V?$standard_base@_WV?$stream_output_adapter@_W@__crt_stdio_output@@@2@@__crt_stdio_output@@AEAA_NQEAH@Z 000000018000681c f i libucrt:output.obj
 0001:0000581c       ?parse_int_from_format_string@?$output_processor@_WV?$string_output_adapter@_W@__crt_stdio_output@@V?$standard_base@_WV?$string_output_adapter@_W@__crt_stdio_output@@@2@@__crt_stdio_output@@AEAA_NQEAH@Z 000000018000681c f i libucrt:output.obj
 0001:000058c0       ?process@?$output_processor@_WV?$stream_output_adapter@_W@__crt_stdio_output@@V?$standard_base@_WV?$stream_output_adapter@_W@__crt_stdio_output@@@2@@__crt_stdio_output@@QEAAHXZ 00000001800068c0 f i libucrt:output.obj
 0001:00005b2c       ?process@?$output_processor@_WV?$string_output_adapter@_W@__crt_stdio_output@@V?$standard_base@_WV?$string_output_adapter@_W@__crt_stdio_output@@@2@@__crt_stdio_output@@QEAAHXZ 0000000180006b2c f i libucrt:output.obj
 0001:00005da8       ?state_case_size@?$output_processor@_WV?$stream_output_adapter@_W@__crt_stdio_output@@V?$standard_base@_WV?$stream_output_adapter@_W@__crt_stdio_output@@@2@@__crt_stdio_output@@AEAA_NXZ 0000000180006da8 f i libucrt:output.obj
 0001:00005f40       ?state_case_size@?$output_processor@_WV?$string_output_adapter@_W@__crt_stdio_output@@V?$standard_base@_WV?$string_output_adapter@_W@__crt_stdio_output@@@2@@__crt_stdio_output@@AEAA_NXZ 0000000180006f40 f i libucrt:output.obj
 0001:000060d8       ?state_case_type@?$output_processor@_WV?$stream_output_adapter@_W@__crt_stdio_output@@V?$standard_base@_WV?$stream_output_adapter@_W@__crt_stdio_output@@@2@@__crt_stdio_output@@AEAA_NXZ 00000001800070d8 f i libucrt:output.obj
 0001:000063b8       ?state_case_type@?$output_processor@_WV?$string_output_adapter@_W@__crt_stdio_output@@V?$standard_base@_WV?$string_output_adapter@_W@__crt_stdio_output@@@2@@__crt_stdio_output@@AEAA_NXZ 00000001800073b8 f i libucrt:output.obj
 0001:00006684       ?type_case_Z@?$output_processor@_WV?$stream_output_adapter@_W@__crt_stdio_output@@V?$standard_base@_WV?$stream_output_adapter@_W@__crt_stdio_output@@@2@@__crt_stdio_output@@AEAA_NXZ 0000000180007684 f i libucrt:output.obj
 0001:00006684       ?type_case_Z@?$output_processor@_WV?$string_output_adapter@_W@__crt_stdio_output@@V?$standard_base@_WV?$string_output_adapter@_W@__crt_stdio_output@@@2@@__crt_stdio_output@@AEAA_NXZ 0000000180007684 f i libucrt:output.obj
 0001:00006700       ?type_case_a@?$output_processor@_WV?$string_output_adapter@_W@__crt_stdio_output@@V?$standard_base@_WV?$string_output_adapter@_W@__crt_stdio_output@@@2@@__crt_stdio_output@@AEAA_NXZ 0000000180007700 f i libucrt:output.obj
 0001:00006700       ?type_case_a@?$output_processor@_WV?$stream_output_adapter@_W@__crt_stdio_output@@V?$standard_base@_WV?$stream_output_adapter@_W@__crt_stdio_output@@@2@@__crt_stdio_output@@AEAA_NXZ 0000000180007700 f i libucrt:output.obj
 0001:000068e0       ?type_case_c_tchar@?$output_processor@_WV?$string_output_adapter@_W@__crt_stdio_output@@V?$standard_base@_WV?$string_output_adapter@_W@__crt_stdio_output@@@2@@__crt_stdio_output@@AEAA_N_W@Z 00000001800078e0 f i libucrt:output.obj
 0001:000068e0       ?type_case_c_tchar@?$output_processor@_WV?$stream_output_adapter@_W@__crt_stdio_output@@V?$standard_base@_WV?$stream_output_adapter@_W@__crt_stdio_output@@@2@@__crt_stdio_output@@AEAA_N_W@Z 00000001800078e0 f i libucrt:output.obj
 0001:00006988       ?type_case_integer@?$output_processor@_WV?$string_output_adapter@_W@__crt_stdio_output@@V?$standard_base@_WV?$string_output_adapter@_W@__crt_stdio_output@@@2@@__crt_stdio_output@@AEAA_NI_N@Z 0000000180007988 f i libucrt:output.obj
 0001:00006988       ?type_case_integer@?$output_processor@_WV?$stream_output_adapter@_W@__crt_stdio_output@@V?$standard_base@_WV?$stream_output_adapter@_W@__crt_stdio_output@@@2@@__crt_stdio_output@@AEAA_NI_N@Z 0000000180007988 f i libucrt:output.obj
 0001:00006b54       ?type_case_n@?$output_processor@_WV?$stream_output_adapter@_W@__crt_stdio_output@@V?$standard_base@_WV?$stream_output_adapter@_W@__crt_stdio_output@@@2@@__crt_stdio_output@@AEAA_NXZ 0000000180007b54 f i libucrt:output.obj
 0001:00006b54       ?type_case_n@?$output_processor@_WV?$string_output_adapter@_W@__crt_stdio_output@@V?$standard_base@_WV?$string_output_adapter@_W@__crt_stdio_output@@@2@@__crt_stdio_output@@AEAA_NXZ 0000000180007b54 f i libucrt:output.obj
 0001:00006c30       ?type_case_s@?$output_processor@_WV?$string_output_adapter@_W@__crt_stdio_output@@V?$standard_base@_WV?$string_output_adapter@_W@__crt_stdio_output@@@2@@__crt_stdio_output@@AEAA_NXZ 0000000180007c30 f i libucrt:output.obj
 0001:00006c30       ?type_case_s@?$output_processor@_WV?$stream_output_adapter@_W@__crt_stdio_output@@V?$standard_base@_WV?$stream_output_adapter@_W@__crt_stdio_output@@@2@@__crt_stdio_output@@AEAA_NXZ 0000000180007c30 f i libucrt:output.obj
 0001:00006cf8       ?write_stored_string_tchar@?$output_processor@_WV?$stream_output_adapter@_W@__crt_stdio_output@@V?$standard_base@_WV?$stream_output_adapter@_W@__crt_stdio_output@@@2@@__crt_stdio_output@@AEAA_N_W@Z 0000000180007cf8 f i libucrt:output.obj
 0001:00006e00       ?write_stored_string_tchar@?$output_processor@_WV?$string_output_adapter@_W@__crt_stdio_output@@V?$standard_base@_WV?$string_output_adapter@_W@__crt_stdio_output@@@2@@__crt_stdio_output@@AEAA_N_W@Z 0000000180007e00 f i libucrt:output.obj
 0001:00006eec       ?write_string@?$string_output_adapter@_W@__crt_stdio_output@@QEBAXQEB_WHQEAHAEAV__crt_deferred_errno_cache@@@Z 0000000180007eec f i libucrt:output.obj
 0001:00006f94       ?write_string_impl@?$output_adapter_common@_WV?$stream_output_adapter@_W@__crt_stdio_output@@@__crt_stdio_output@@IEBAXQEB_WHQEAHAEAV__crt_deferred_errno_cache@@@Z 0000000180007f94 f i libucrt:output.obj
 0001:00007098       __stdio_common_vfwprintf   0000000180008098 f   libucrt:output.obj
 0001:00007124       __stdio_common_vswprintf   0000000180008124 f   libucrt:output.obj
 0001:0000712c       ??$parse_integer@KV?$c_string_character_source@_W@__crt_strtox@@@__crt_strtox@@YAKQEAU__crt_locale_pointers@@V?$c_string_character_source@_W@0@H_N@Z 000000018000812c f i libucrt:atox.obj
 0001:000077f0       strncmp                    00000001800087f0 f   libucrt:strncmp.obj
 0001:00007870       __acrt_call_reportfault    0000000180008870 f   libucrt:invalid_parameter.obj
 0001:000079cc       __acrt_initialize_invalid_parameter_handler 00000001800089cc f   libucrt:invalid_parameter.obj
 0001:000079d4       _invalid_parameter         00000001800089d4 f   libucrt:invalid_parameter.obj
 0001:00007a84       _invalid_parameter_noinfo  0000000180008a84 f   libucrt:invalid_parameter.obj
 0001:00007aa4       _invoke_watson             0000000180008aa4 f   libucrt:invalid_parameter.obj
 0001:00007aec       _query_app_type            0000000180008aec f   libucrt:report_runtime_error.obj
 0001:00007af4       __acrt_errno_from_os_error 0000000180008af4 f   libucrt:errno.obj
 0001:00007b3c       __acrt_errno_map_os_error  0000000180008b3c f   libucrt:errno.obj
 0001:00007b8c       __doserrno                 0000000180008b8c f   libucrt:errno.obj
 0001:00007bac       _errno                     0000000180008bac f   libucrt:errno.obj
 0001:00007d0c       _itow_s                    0000000180008d0c f   libucrt:xtoa.obj
 0001:00007d2c       _set_error_mode            0000000180008d2c f   libucrt:set_error_mode.obj
 0001:00007d6c       wcscat_s                   0000000180008d6c f   libucrt:wcscat_s.obj
 0001:00007dec       wcscpy_s                   0000000180008dec f   libucrt:wcscpy_s.obj
 0001:00007e54       wcsncat_s                  0000000180008e54 f   libucrt:wcsncat_s.obj
 0001:00007f54       ??$__acrt_wcs_to_mbs_cp@U__crt_win32_buffer_no_resizing@@@@YAHQEB_WAEAV?$__crt_win32_buffer@DU__crt_win32_buffer_no_resizing@@@@I@Z 0000000180008f54 f i libucrt:getmodulefilenamea.obj
 0001:00008068       __acrt_GetModuleFileNameA  0000000180009068 f   libucrt:getmodulefilenamea.obj
 0001:00008188       __acrt_show_wide_message_box 0000000180009188 f   libucrt:crtmbox.obj
 0001:0000822c       __acrt_initialize_stdio    000000018000922c f   libucrt:_file.obj
 0001:0000834c       __acrt_iob_func            000000018000934c f   libucrt:_file.obj
 0001:00008360       __acrt_uninitialize_stdio  0000000180009360 f   libucrt:_file.obj
 0001:000083bc       _lock_file                 00000001800093bc f   libucrt:_file.obj
 0001:000083c8       _unlock_file               00000001800093c8 f   libucrt:_file.obj
 0001:000085f0       __acrt_stdio_flush_nolock  00000001800095f0 f   libucrt:fflush.obj
 0001:0000866c       _fflush_nolock             000000018000966c f   libucrt:fflush.obj
 0001:000086b8       _flushall                  00000001800096b8 f   libucrt:fflush.obj
 0001:000086c0       fflush                     00000001800096c0 f   libucrt:fflush.obj
 0001:00008848       setvbuf                    0000000180009848 f   libucrt:setvbuf.obj
 0001:0000892c       __acrt_get_sigabrt_handler 000000018000992c f   libucrt:signal.obj
 0001:0000895c       __acrt_initialize_signal_handlers 000000018000995c f   libucrt:signal.obj
 0001:0000897c       raise                      000000018000997c f   libucrt:signal.obj
 0001:00008c48       _tolower_l                 0000000180009c48 f   libucrt:tolower_toupper.obj
 0001:00008d88       tolower                    0000000180009d88 f   libucrt:tolower_toupper.obj
 0001:0000912c       __acrt_freeptd             000000018000a12c f   libucrt:per_thread_data.obj
 0001:00009170       __acrt_getptd              000000018000a170 f   libucrt:per_thread_data.obj
 0001:00009244       __acrt_getptd_head         000000018000a244 f   libucrt:per_thread_data.obj
 0001:000092ec       __acrt_getptd_noexit       000000018000a2ec f   libucrt:per_thread_data.obj
 0001:000093b8       __acrt_initialize_ptd      000000018000a3b8 f   libucrt:per_thread_data.obj
 0001:000093f4       __acrt_uninitialize_ptd    000000018000a3f4 f   libucrt:per_thread_data.obj
 0001:00009418       __acrt_update_locale_info  000000018000a418 f   libucrt:locale_update.obj
 0001:0000944c       __acrt_update_multibyte_info 000000018000a44c f   libucrt:locale_update.obj
 0001:000094f0       __acrt_set_locale_changed  000000018000a4f0 f   libucrt:wsetlocale.obj
 0001:000094fc       __acrt_uninitialize_locale 000000018000a4fc f   libucrt:wsetlocale.obj
 0001:0000952c       __acrt_initialize_locks    000000018000a52c f   libucrt:locks.obj
 0001:00009574       __acrt_lock                000000018000a574 f   libucrt:locks.obj
 0001:00009590       __acrt_uninitialize_locks  000000018000a590 f   libucrt:locks.obj
 0001:000095c8       __acrt_unlock              000000018000a5c8 f   libucrt:locks.obj
 0001:000095e4       _malloc_base               000000018000a5e4 f   libucrt:malloc_base.obj
 0001:00009644       __acrt_get_developer_information_policy 000000018000a644 f   libucrt:win_policies.obj
 0001:00009698       __acrt_get_process_end_policy 000000018000a698 f   libucrt:win_policies.obj
 0001:000096d4       __acrt_get_windowing_model_policy 000000018000a6d4 f   libucrt:win_policies.obj
 0001:00009740       _calloc_base               000000018000a740 f   libucrt:calloc_base.obj
 0001:000097b8       _free_base                 000000018000a7b8 f   libucrt:free_base.obj
 0001:0000980c       ??$__acrt_mbs_to_wcs_cp@U__crt_win32_buffer_internal_dynamic_resizing@@@@YAHQEBDAEAV?$__crt_win32_buffer@_WU__crt_win32_buffer_internal_dynamic_resizing@@@@I@Z 000000018000a80c f i libucrt:argv_wildcards.obj
 0001:00009984       ??$__acrt_wcs_to_mbs_cp@U__crt_win32_buffer_internal_dynamic_resizing@@@@YAHQEB_WAEAV?$__crt_win32_buffer@DU__crt_win32_buffer_internal_dynamic_resizing@@@@I@Z 000000018000a984 f i libucrt:argv_wildcards.obj
 0001:0000a1b4       __acrt_expand_narrow_argv_wildcards 000000018000b1b4 f   libucrt:argv_wildcards.obj
 0001:0000a8e8       __acrt_initialize_multibyte 000000018000b8e8 f   libucrt:mbctype.obj
 0001:0000a948       __acrt_update_thread_multibyte_data 000000018000b948 f   libucrt:mbctype.obj
 0001:0000a964       _setmbcp_nolock            000000018000b964 f   libucrt:mbctype.obj
 0001:0000ac98       _ismbblead                 000000018000bc98 f   libucrt:ismbbyte.obj
 0001:0000acac       __acrt_initialize_command_line 000000018000bcac f   libucrt:argv_data.obj
 0001:0000acd4       __acrt_MultiByteToWideChar 000000018000bcd4 f   libucrt:multibytetowidechar.obj
 0001:0000ad30       __acrt_WideCharToMultiByte 000000018000bd30 f   libucrt:widechartomultibyte.obj
 0001:0000adc8       __dcrt_get_narrow_environment_from_os 000000018000bdc8 f   libucrt:get_environment_from_os.obj
 0001:0000aecc       _recalloc_base             000000018000becc f   libucrt:recalloc.obj
 0001:0000b13c       __acrt_AppPolicyGetProcessTerminationMethodInternal 000000018000c13c f   libucrt:winapi_thunks.obj
 0001:0000b18c       __acrt_AppPolicyGetShowDeveloperDiagnosticInternal 000000018000c18c f   libucrt:winapi_thunks.obj
 0001:0000b1dc       __acrt_AppPolicyGetWindowingModelInternal 000000018000c1dc f   libucrt:winapi_thunks.obj
 0001:0000b22c       __acrt_AreFileApisANSI     000000018000c22c f   libucrt:winapi_thunks.obj
 0001:0000b268       __acrt_FlsAlloc            000000018000c268 f   libucrt:winapi_thunks.obj
 0001:0000b2b0       __acrt_FlsFree             000000018000c2b0 f   libucrt:winapi_thunks.obj
 0001:0000b2f8       __acrt_FlsGetValue         000000018000c2f8 f   libucrt:winapi_thunks.obj
 0001:0000b340       __acrt_FlsSetValue         000000018000c340 f   libucrt:winapi_thunks.obj
 0001:0000b394       __acrt_InitializeCriticalSectionEx 000000018000c394 f   libucrt:winapi_thunks.obj
 0001:0000b3f8       __acrt_LCMapStringEx       000000018000c3f8 f   libucrt:winapi_thunks.obj
 0001:0000b4d4       __acrt_LocaleNameToLCID    000000018000c4d4 f   libucrt:winapi_thunks.obj
 0001:0000b524       __acrt_MessageBoxW         000000018000c524 f   libucrt:winapi_thunks.obj
 0001:0000b598       __acrt_can_show_message_box 000000018000c598 f   libucrt:winapi_thunks.obj
 0001:0000b608       __acrt_get_parent_window   000000018000c608 f   libucrt:winapi_thunks.obj
 0001:0000b680       __acrt_initialize_winapi_thunks 000000018000c680 f   libucrt:winapi_thunks.obj
 0001:0000b6b4       __acrt_is_interactive      000000018000c6b4 f   libucrt:winapi_thunks.obj
 0001:0000b77c       __acrt_uninitialize_winapi_thunks 000000018000c77c f   libucrt:winapi_thunks.obj
 0001:0000b7c0       __acrt_initialize_heap     000000018000c7c0 f   libucrt:heap_handle.obj
 0001:0000b7dc       __acrt_uninitialize_heap   000000018000c7dc f   libucrt:heap_handle.obj
 0001:0000b9e4       __acrt_initialize_lowio    000000018000c9e4 f   libucrt:ioinit.obj
 0001:0000ba20       __acrt_uninitialize_lowio  000000018000ca20 f   libucrt:ioinit.obj
 0001:0000ba60       __acrt_execute_initializers 000000018000ca60 f   libucrt:shared_initialization.obj
 0001:0000bae0       __acrt_execute_uninitializers 000000018000cae0 f   libucrt:shared_initialization.obj
 0001:0000bb1c       __acrt_has_user_matherr    000000018000cb1c f   libucrt:matherr.obj
 0001:0000bb3c       __acrt_initialize_user_matherr 000000018000cb3c f   libucrt:matherr.obj
 0001:0000bb44       __acrt_invoke_user_matherr 000000018000cb44 f   libucrt:matherr.obj
 0001:0000bb74       __acrt_stdio_begin_temporary_buffering_nolock 000000018000cb74 f   libucrt:_sftbuf.obj
 0001:0000bc44       __acrt_stdio_end_temporary_buffering_nolock 000000018000cc44 f   libucrt:_sftbuf.obj
 0001:0000bc80       isdigit                    000000018000cc80 f i libucrt:_ctype.obj
 0001:0000bd14       wcstol                     000000018000cd14 f   libucrt:strtox.obj
 0001:0000bd40       _mbtowc_l                  000000018000cd40 f   libucrt:mbtowc.obj
 0001:0000bebc       mbtowc                     000000018000cebc f   libucrt:mbtowc.obj
 0001:0000bec4       _wctomb_s_l                000000018000cec4 f   libucrt:wctomb.obj
 0001:0000c064       wctomb_s                   000000018000d064 f   libucrt:wctomb.obj
 0001:0000c078       wcsnlen                    000000018000d078 f   libucrt:strnlen.obj
 0001:0000cc24       __acrt_fp_format           000000018000dc24 f   libucrt:cvt.obj
 0001:0000ceac       _fputwc_nolock             000000018000deac f   libucrt:fputwc.obj
 0001:0000d028       _fileno                    000000018000e028 f   libucrt:fileno.obj
 0001:0000d050       _fputc_nolock              000000018000e050 f   libucrt:fputc.obj
 0001:0000d068       _get_printf_count_output   000000018000e068 f   libucrt:printf_count_output.obj
 0001:0000d080       __pctype_func              000000018000e080 f   libucrt:ctype.obj
 0001:0000d0b0       iswctype                   000000018000e0b0 f   libucrt:iswctype.obj
 0001:0000d120       _isctype_l                 000000018000e120 f   libucrt:isctype.obj
 0001:0000d230       _fcloseall                 000000018000e230 f   libucrt:closeall.obj
 0001:0000d2e4       __acrt_stdio_free_buffer_nolock 000000018000e2e4 f   libucrt:_freebuf.obj
 0001:0000d3b0       _commit                    000000018000e3b0 f   libucrt:commit.obj
 0001:0000dcb0       _write                     000000018000ecb0 f   libucrt:write.obj
 0001:0000dd9c       _write_nolock              000000018000ed9c f   libucrt:write.obj
 0001:0000e078       _isleadbyte_l              000000018000f078 f i libucrt:_wctype.obj
 0001:0000e3dc       __acrt_LCMapStringA        000000018000f3dc f   libucrt:lcmapstringa.obj
 0001:0000e474       __acrt_add_locale_ref      000000018000f474 f   libucrt:locale_refcounting.obj
 0001:0000e500       __acrt_free_locale         000000018000f500 f   libucrt:locale_refcounting.obj
 0001:0000e678       __acrt_locale_add_lc_time_reference 000000018000f678 f   libucrt:locale_refcounting.obj
 0001:0000e6a0       __acrt_locale_free_lc_time_if_unreferenced 000000018000f6a0 f   libucrt:locale_refcounting.obj
 0001:0000e6d8       __acrt_locale_release_lc_time_reference 000000018000f6d8 f   libucrt:locale_refcounting.obj
 0001:0000e700       __acrt_release_locale_ref  000000018000f700 f   libucrt:locale_refcounting.obj
 0001:0000e7a8       __acrt_update_thread_locale_data 000000018000f7a8 f   libucrt:locale_refcounting.obj
 0001:0000e818       _updatetlocinfoEx_nolock   000000018000f818 f   libucrt:locale_refcounting.obj
 0001:0000e880       __acrt_locale_free_monetary 000000018000f880 f   libucrt:initmon.obj
 0001:0000e98c       __acrt_locale_free_numeric 000000018000f98c f   libucrt:initnum.obj
 0001:0000ea50       __acrt_locale_free_time    000000018000fa50 f   libucrt:inittime.obj
 0001:0000eb58       __acrt_GetStringTypeA      000000018000fb58 f   libucrt:getstringtypea.obj
 0001:0000ece8       _query_new_mode            000000018000fce8 f   libucrt:new_mode.obj
 0001:0000ecf0       qsort                      000000018000fcf0 f   libucrt:qsort.obj
 0001:0000f0b0       strncpy_s                  00000001800100b0 f   libucrt:strncpy_s.obj
 0001:0000f230       strpbrk                    0000000180010230 f   libucrt:strpbrk.obj
 0001:0000f610       _mbsdec                    0000000180010610 f   libucrt:mbsdec.obj
 0001:0000f618       _mbsdec_l                  0000000180010618 f   libucrt:mbsdec.obj
 0001:0000f6c4       _msize_base                00000001800106c4 f   libucrt:msize.obj
 0001:0000f700       _realloc_base              0000000180010700 f   libucrt:realloc_base.obj
 0001:0000f864       __acrt_DownlevelLocaleNameToLCID 0000000180010864 f   libucrt:lcidtoname_downlevel.obj
 0001:0000f898       __acrt_lowio_create_handle_array 0000000180010898 f   libucrt:osfinfo.obj
 0001:0000f940       __acrt_lowio_destroy_handle_array 0000000180010940 f   libucrt:osfinfo.obj
 0001:0000f990       __acrt_lowio_ensure_fh_exists 0000000180010990 f   libucrt:osfinfo.obj
 0001:0000fa38       __acrt_lowio_lock_fh       0000000180010a38 f   libucrt:osfinfo.obj
 0001:0000fa60       __acrt_lowio_unlock_fh     0000000180010a60 f   libucrt:osfinfo.obj
 0001:0000fa88       _free_osfhnd               0000000180010a88 f   libucrt:osfinfo.obj
 0001:0000fb44       _get_osfhandle             0000000180010b44 f   libucrt:osfinfo.obj
 0001:0000fbbc       _isatty                    0000000180010bbc f   libucrt:isatty.obj
 0001:0000fc1c       ?__mbrtowc_utf8@__crt_mbstring@@YA_KPEA_WPEBD_KPEAU_Mbstatet@@@Z 0000000180010c1c f   libucrt:mbrtowc.obj
 0001:0000fc58       ?__mbsrtowcs_utf8@__crt_mbstring@@YA_KPEA_WPEAPEBD_KPEAU_Mbstatet@@@Z 0000000180010c58 f   libucrt:mbrtowc.obj
 0001:0000fdd0       ?__c32rtomb_utf8@__crt_mbstring@@YA_KPEAD_UPEAU_Mbstatet@@@Z 0000000180010dd0 f   libucrt:c32rtomb.obj
 0001:0000fe88       __acrt_fp_strflt_to_string 0000000180010e88 f   libucrt:_fptostr.obj
 0001:0000ff70       ?divide@__crt_strtox@@YA_KAEAUbig_integer@1@AEBU21@@Z 0000000180010f70 f i libucrt:cfout.obj
 0001:0001039c       __acrt_fltout              000000018001139c f   libucrt:cfout.obj
 0001:0001189c       __acrt_stdio_flush_and_write_narrow_nolock 000000018001289c f   libucrt:_flsbuf.obj
 0001:00011988       __acrt_stdio_flush_and_write_wide_nolock 0000000180012988 f   libucrt:_flsbuf.obj
 0001:00011a74       __acrt_GetStringTypeW      0000000180012a74 f   libucrt:getstringtypew.obj
 0001:00011a7c       _fclose_nolock             0000000180012a7c f   libucrt:fclose.obj
 0001:00011b00       fclose                     0000000180012b00 f   libucrt:fclose.obj
 0001:00011cf0       _lseeki64                  0000000180012cf0 f   libucrt:lseek.obj
 0001:00011cf8       _lseeki64_nolock           0000000180012cf8 f   libucrt:lseek.obj
 0001:00011d00       _putwch_nolock             0000000180012d00 f   libucrt:putwch.obj
 0001:00011d3c       __strncnt                  0000000180012d3c f   libucrt:strncnt.obj
 0001:00011d54       ?__mbrtoc32_utf8@__crt_mbstring@@YA_KPEA_UPEBD_KPEAU_Mbstatet@@@Z 0000000180012d54 f   libucrt:mbrtoc32.obj
 0001:00011f30       fegetenv                   0000000180012f30 f   libucrt:fegetenv.obj
 0001:00011f50       fesetenv                   0000000180012f50 f   libucrt:fesetenv.obj
 0001:00011fa0       feholdexcept               0000000180012fa0 f   libucrt:feholdexcept.obj
 0001:00011ff0       ceil                       0000000180012ff0 f   libucrt:ceil.obj
 0001:000120c0       log10                      00000001800130c0 f   libucrt:log10.obj
 0001:0001266c       __acrt_stdio_allocate_buffer_nolock 000000018001366c f   libucrt:_getbuf.obj
 0001:00012748       _close                     0000000180013748 f   libucrt:close.obj
 0001:000127ec       _close_nolock              00000001800137ec f   libucrt:close.obj
 0001:000128ac       ?__acrt_stdio_free_stream@@YAXV__crt_stdio_stream@@@Z 00000001800138ac f   libucrt:stream.obj
 0001:000128c8       __dcrt_lowio_ensure_console_output_initialized 00000001800138c8 f   libucrt:initcon.obj
 0001:0001291c       __dcrt_terminate_console_output 000000018001391c f   libucrt:initcon.obj
 0001:00012938       __dcrt_write_console       0000000180013938 f   libucrt:initcon.obj
 0001:000129f8       __acrt_fenv_get_control    00000001800139f8 f   libucrt:_fenvutils.obj
 0001:00012aec       __acrt_fenv_get_status     0000000180013aec f   libucrt:_fenvutils.obj
 0001:00012b40       __acrt_fenv_set_control    0000000180013b40 f   libucrt:_fenvutils.obj
 0001:00012c88       __acrt_fenv_set_status     0000000180013c88 f   libucrt:_fenvutils.obj
 0001:00012d0c       _clearfp                   0000000180013d0c f   libucrt:ieee.obj
 0001:00012ea0       _handle_error              0000000180013ea0 f   libucrt:libm_error.obj
 0001:00012fc8       _handle_nan                0000000180013fc8 f   libucrt:libm_error.obj
 0001:00012ff0       __acrt_initialize_fma3     0000000180013ff0 f   libucrt:fma3_available.obj
 0001:00013060       _log10_special             0000000180014060 f   libucrt:log_special.obj
 0001:00013130       _get_fpsr                  0000000180014130 f   libucrt:fpsr.obj
 0001:00013140       _set_fpsr                  0000000180014140 f   libucrt:fpsr.obj
 0001:0001314a       _fclrf                     000000018001414a f   libucrt:fpsr.obj
 0001:0001315e       _frnd                      000000018001415e f   libucrt:fpsr.obj
 0001:00013180       _raise_exc                 0000000180014180 f   libucrt:fpexcept.obj
 0001:000131a8       _raise_exc_ex              00000001800141a8 f   libucrt:fpexcept.obj
 0001:000134b8       _set_errno_from_matherr    00000001800144b8 f   libucrt:fpexcept.obj
 0001:000134e8       _clrfp                     00000001800144e8 f   libucrt:fpctrl.obj
 0001:00013508       _ctrlfp                    0000000180014508 f   libucrt:fpctrl.obj
 0001:00013584       _set_statfp                0000000180014584 f   libucrt:fpctrl.obj
 0001:000135a4       _statfp                    00000001800145a4 f   libucrt:fpctrl.obj
 0001:000135b5       IsProcessorFeaturePresent  00000001800145b5 f   kernel32:KERNEL32.dll
 0001:000135bc       ?DloadAcquireSectionWriteAccess@@YAXXZ 00000001800145bc f i DelayImp:delayhlp.obj
 0001:00013668       ?DloadGetSRWLockFunctionPointers@@YAEXZ 0000000180014668 f i DelayImp:delayhlp.obj
 0001:00013704       ?DloadMakePermanentImageCommit@@YAXPEAX_K@Z 0000000180014704 f i DelayImp:delayhlp.obj
 0001:0001379c       ?DloadObtainSection@@YAPEAXPEAK0@Z 000000018001479c f i DelayImp:delayhlp.obj
 0001:00013838       ?DloadProtectSection@@YAXKPEAK@Z 0000000180014838 f i DelayImp:delayhlp.obj
 0001:000138c8       ?DloadReleaseSectionWriteAccess@@YAXXZ 00000001800148c8 f i DelayImp:delayhlp.obj
 0001:0001395c       __delayLoadHelper2         000000018001495c f   DelayImp:delayhlp.obj
 0001:00013c20       _FindPESection             0000000180014c20 f   LIBCMT:pesect.obj
 0001:00013c70       _IsNonwritableInCurrentImage 0000000180014c70 f   LIBCMT:pesect.obj
 0001:00013cc0       _ValidateImageBase         0000000180014cc0 f   LIBCMT:pesect.obj
 0001:00013cf0       __GSHandlerCheck           0000000180014cf0 f   LIBCMT:gshandler.obj
 0001:00013d10       __GSHandlerCheckCommon     0000000180014d10 f   LIBCMT:gshandler.obj
 0001:00013d80       _alloca_probe              0000000180014d80 f   LIBCMT:chkstk.obj
 0001:00013d80       __chkstk                   0000000180014d80 f   LIBCMT:chkstk.obj
 0001:00013df0       memcmp                     0000000180014df0 f   libvcruntime:memcmp.obj
 0001:00013eb8       strrchr                    0000000180014eb8 f   libvcruntime:strrchr.obj
 0001:00014020       _guard_dispatch_icall_nop  0000000180015020 f   LIBCMT:guard_dispatch.obj
 0002:00000000       __imp_GetModuleHandleA     0000000180016000     kernel32:KERNEL32.dll
 0002:00000008       __imp_LoadLibraryExA       0000000180016008     kernel32:KERNEL32.dll
 0002:00000010       __imp_RtlCaptureContext    0000000180016010     kernel32:KERNEL32.dll
 0002:00000018       __imp_RtlLookupFunctionEntry 0000000180016018     kernel32:KERNEL32.dll
 0002:00000020       __imp_RtlVirtualUnwind     0000000180016020     kernel32:KERNEL32.dll
 0002:00000028       __imp_UnhandledExceptionFilter 0000000180016028     kernel32:KERNEL32.dll
 0002:00000030       __imp_SetUnhandledExceptionFilter 0000000180016030     kernel32:KERNEL32.dll
 0002:00000038       __imp_GetCurrentProcess    0000000180016038     kernel32:KERNEL32.dll
 0002:00000040       __imp_TerminateProcess     0000000180016040     kernel32:KERNEL32.dll
 0002:00000048       __imp_IsProcessorFeaturePresent 0000000180016048     kernel32:KERNEL32.dll
 0002:00000050       __imp_IsDebuggerPresent    0000000180016050     kernel32:KERNEL32.dll
 0002:00000058       __imp_GetStartupInfoW      0000000180016058     kernel32:KERNEL32.dll
 0002:00000060       __imp_GetModuleHandleW     0000000180016060     kernel32:KERNEL32.dll
 0002:00000068       __imp_QueryPerformanceCounter 0000000180016068     kernel32:KERNEL32.dll
 0002:00000070       __imp_GetCurrentProcessId  0000000180016070     kernel32:KERNEL32.dll
 0002:00000078       __imp_GetCurrentThreadId   0000000180016078     kernel32:KERNEL32.dll
 0002:00000080       __imp_GetSystemTimeAsFileTime 0000000180016080     kernel32:KERNEL32.dll
 0002:00000088       __imp_InitializeSListHead  0000000180016088     kernel32:KERNEL32.dll
 0002:00000090       __imp_RtlUnwindEx          0000000180016090     kernel32:KERNEL32.dll
 0002:00000098       __imp_RtlPcToFileHeader    0000000180016098     kernel32:KERNEL32.dll
 0002:000000a0       __imp_RaiseException       00000001800160a0     kernel32:KERNEL32.dll
 0002:000000a8       __imp_InterlockedFlushSList 00000001800160a8     kernel32:KERNEL32.dll
 0002:000000b0       __imp_GetLastError         00000001800160b0     kernel32:KERNEL32.dll
 0002:000000b8       __imp_SetLastError         00000001800160b8     kernel32:KERNEL32.dll
 0002:000000c0       __imp_EnterCriticalSection 00000001800160c0     kernel32:KERNEL32.dll
 0002:000000c8       __imp_LeaveCriticalSection 00000001800160c8     kernel32:KERNEL32.dll
 0002:000000d0       __imp_DeleteCriticalSection 00000001800160d0     kernel32:KERNEL32.dll
 0002:000000d8       __imp_InitializeCriticalSectionAndSpinCount 00000001800160d8     kernel32:KERNEL32.dll
 0002:000000e0       __imp_TlsAlloc             00000001800160e0     kernel32:KERNEL32.dll
 0002:000000e8       __imp_TlsGetValue          00000001800160e8     kernel32:KERNEL32.dll
 0002:000000f0       __imp_TlsSetValue          00000001800160f0     kernel32:KERNEL32.dll
 0002:000000f8       __imp_TlsFree              00000001800160f8     kernel32:KERNEL32.dll
 0002:00000100       __imp_FreeLibrary          0000000180016100     kernel32:KERNEL32.dll
 0002:00000108       __imp_GetProcAddress       0000000180016108     kernel32:KERNEL32.dll
 0002:00000110       __imp_LoadLibraryExW       0000000180016110     kernel32:KERNEL32.dll
 0002:00000118       __imp_GetStdHandle         0000000180016118     kernel32:KERNEL32.dll
 0002:00000120       __imp_GetFileType          0000000180016120     kernel32:KERNEL32.dll
 0002:00000128       __imp_GetModuleFileNameW   0000000180016128     kernel32:KERNEL32.dll
 0002:00000130       __imp_GetModuleHandleExW   0000000180016130     kernel32:KERNEL32.dll
 0002:00000138       __imp_WriteConsoleW        0000000180016138     kernel32:KERNEL32.dll
 0002:00000140       __imp_ExitProcess          0000000180016140     kernel32:KERNEL32.dll
 0002:00000148       __imp_WriteFile            0000000180016148     kernel32:KERNEL32.dll
 0002:00000150       __imp_OutputDebugStringW   0000000180016150     kernel32:KERNEL32.dll
 0002:00000158       __imp_HeapAlloc            0000000180016158     kernel32:KERNEL32.dll
 0002:00000160       __imp_HeapFree             0000000180016160     kernel32:KERNEL32.dll
 0002:00000168       __imp_FindClose            0000000180016168     kernel32:KERNEL32.dll
 0002:00000170       __imp_FindFirstFileExW     0000000180016170     kernel32:KERNEL32.dll
 0002:00000178       __imp_FindNextFileW        0000000180016178     kernel32:KERNEL32.dll
 0002:00000180       __imp_IsValidCodePage      0000000180016180     kernel32:KERNEL32.dll
 0002:00000188       __imp_GetACP               0000000180016188     kernel32:KERNEL32.dll
 0002:00000190       __imp_GetOEMCP             0000000180016190     kernel32:KERNEL32.dll
 0002:00000198       __imp_GetCPInfo            0000000180016198     kernel32:KERNEL32.dll
 0002:000001a0       __imp_GetCommandLineA      00000001800161a0     kernel32:KERNEL32.dll
 0002:000001a8       __imp_GetCommandLineW      00000001800161a8     kernel32:KERNEL32.dll
 0002:000001b0       __imp_MultiByteToWideChar  00000001800161b0     kernel32:KERNEL32.dll
 0002:000001b8       __imp_WideCharToMultiByte  00000001800161b8     kernel32:KERNEL32.dll
 0002:000001c0       __imp_GetEnvironmentStringsW 00000001800161c0     kernel32:KERNEL32.dll
 0002:000001c8       __imp_FreeEnvironmentStringsW 00000001800161c8     kernel32:KERNEL32.dll
 0002:000001d0       __imp_LCMapStringW         00000001800161d0     kernel32:KERNEL32.dll
 0002:000001d8       __imp_GetProcessHeap       00000001800161d8     kernel32:KERNEL32.dll
 0002:000001e0       __imp_FlushFileBuffers     00000001800161e0     kernel32:KERNEL32.dll
 0002:000001e8       __imp_GetConsoleCP         00000001800161e8     kernel32:KERNEL32.dll
 0002:000001f0       __imp_GetConsoleMode       00000001800161f0     kernel32:KERNEL32.dll
 0002:000001f8       __imp_GetStringTypeW       00000001800161f8     kernel32:KERNEL32.dll
 0002:00000200       __imp_HeapSize             0000000180016200     kernel32:KERNEL32.dll
 0002:00000208       __imp_HeapReAlloc          0000000180016208     kernel32:KERNEL32.dll
 0002:00000210       __imp_SetStdHandle         0000000180016210     kernel32:KERNEL32.dll
 0002:00000218       __imp_GetFileSizeEx        0000000180016218     kernel32:KERNEL32.dll
 0002:00000220       __imp_SetFilePointerEx     0000000180016220     kernel32:KERNEL32.dll
 0002:00000228       __imp_CloseHandle          0000000180016228     kernel32:KERNEL32.dll
 0002:00000230       __imp_CreateFileW          0000000180016230     kernel32:KERNEL32.dll
 0002:00000238       __imp_GetSystemInfo        0000000180016238     kernel32:KERNEL32.dll
 0002:00000240       __imp_VirtualProtect       0000000180016240     kernel32:KERNEL32.dll
 0002:00000248       __imp_VirtualQuery         0000000180016248     kernel32:KERNEL32.dll
 0002:00000250       \177KERNEL32_NULL_THUNK_DATA 0000000180016250     kernel32:KERNEL32.dll
 0002:00000258       __guard_check_icall_fptr   0000000180016258     LIBCMT:guard_support.obj
 0002:00000260       __guard_dispatch_icall_fptr 0000000180016260     LIBCMT:guard_support.obj
 0002:00000268       __xc_a                     0000000180016268     LIBCMT:initializers.obj
 0002:00000288       _register_addon_           0000000180016288     addon.obj
 0002:00000290       __xc_z                     0000000180016290     LIBCMT:initializers.obj
 0002:00000298       __xi_a                     0000000180016298     LIBCMT:initializers.obj
 0002:000002a0       __acrt_stdio_initializer   00000001800162a0     libucrt:stdio_initializer.obj
 0002:000002a8       __acrt_multibyte_initializer 00000001800162a8     libucrt:multibyte_initializer.obj
 0002:000002b0       __acrt_tran_fma3_initializer 00000001800162b0     libucrt:fma3_initializer.obj
 0002:000002b8       __xi_z                     00000001800162b8     LIBCMT:initializers.obj
 0002:000002c0       __xp_a                     00000001800162c0     LIBCMT:initializers.obj
 0002:000002c8       __acrt_locale_terminator   00000001800162c8     libucrt:locale_initializer.obj
 0002:000002d0       __dcrt_console_output_terminator 00000001800162d0     libucrt:console_output_initializer.obj
 0002:000002d8       __acrt_stdio_terminator    00000001800162d8     libucrt:stdio_initializer.obj
 0002:000002e0       __xp_z                     00000001800162e0     LIBCMT:initializers.obj
 0002:000002e8       __xt_a                     00000001800162e8     LIBCMT:initializers.obj
 0002:000002f0       __xt_z                     00000001800162f0     LIBCMT:initializers.obj
 0002:00000300       __sz_node_exe              0000000180016300     node:node.exe
 0002:00000310       _pRawDllMain               0000000180016310     LIBCMT:dll_dllmain.obj
 0002:00000310       _pDefaultRawDllMain        0000000180016310     LIBCMT:dll_dllmain.obj
 0002:00000330       ??_7exception@std@@6B@     0000000180016330     LIBCMT:throw_bad_alloc.obj
 0002:00000340       ??_C@_0BC@EOODALEL@Unknown?5exception@ 0000000180016340     LIBCMT:throw_bad_alloc.obj
 0002:00000360       ??_7bad_alloc@std@@6B@     0000000180016360     LIBCMT:throw_bad_alloc.obj
 0002:00000370       ??_C@_0P@GHFPNOJB@bad?5allocation@ 0000000180016370     LIBCMT:throw_bad_alloc.obj
 0002:00000388       ??_7bad_array_new_length@std@@6B@ 0000000180016388     LIBCMT:throw_bad_alloc.obj
 0002:00000398       ??_C@_0BF@KINCDENJ@bad?5array?5new?5length@ 0000000180016398     LIBCMT:throw_bad_alloc.obj
 0002:000003b8       ??_7type_info@@6B@         00000001800163b8     LIBCMT:std_type_info_static.obj
 0002:00000418       ??_C@_1DM@KHCHBNEB@?$AAa?$AAp?$AAi?$AA?9?$AAm?$AAs?$AA?9?$AAw?$AAi?$AAn?$AA?9?$AAc?$AAo?$AAr?$AAe@ 0000000180016418     libvcruntime:winapi_downlevel.obj
 0002:00000458       ??_C@_1DK@LPPGFMPP@?$AAa?$AAp?$AAi?$AA?9?$AAm?$AAs?$AA?9?$AAw?$AAi?$AAn?$AA?9?$AAc?$AAo?$AAr?$AAe@ 0000000180016458     libvcruntime:winapi_downlevel.obj
 0002:00000498       ??_C@_1BC@GDMECMAK@?$AAk?$AAe?$AAr?$AAn?$AAe?$AAl?$AA3?$AA2@ 0000000180016498     libvcruntime:winapi_downlevel.obj
 0002:000004b0       ??_C@_1BA@PFFKHIOG@?$AAa?$AAp?$AAi?$AA?9?$AAm?$AAs?$AA?9@ 00000001800164b0     libvcruntime:winapi_downlevel.obj
 0002:000004c0       ??_C@_1BA@IAIFMGEF@?$AAe?$AAx?$AAt?$AA?9?$AAm?$AAs?$AA?9@ 00000001800164c0     libvcruntime:winapi_downlevel.obj
 0002:000004d8       ??_C@_08KNHFBNJ@FlsAlloc@  00000001800164d8     libvcruntime:winapi_downlevel.obj
 0002:000004f0       ??_C@_07PEJMOBNF@FlsFree@  00000001800164f0     libvcruntime:winapi_downlevel.obj
 0002:00000500       ??_C@_0M@GDNOONDI@FlsGetValue@ 0000000180016500     libvcruntime:winapi_downlevel.obj
 0002:00000518       ??_C@_0M@JCPCPOEF@FlsSetValue@ 0000000180016518     libvcruntime:winapi_downlevel.obj
 0002:00000530       ??_C@_0BM@HCFOFFN@InitializeCriticalSectionEx@ 0000000180016530     libvcruntime:winapi_downlevel.obj
 0002:00000550       _pDestructExceptionObject  0000000180016550     libvcruntime:ehhelpers.obj
 0002:00000898       ??_C@_08EHJDFFNH@__based?$CI@ 0000000180016898     libvcruntime:undname.obj
 0002:000008a8       ??_C@_07KOLFKCDI@__cdecl@  00000001800168a8     libvcruntime:undname.obj
 0002:000008b0       ??_C@_08GHMPAG@__pascal@   00000001800168b0     libvcruntime:undname.obj
 0002:000008c0       ??_C@_09IFJBGAPI@__stdcall@ 00000001800168c0     libvcruntime:undname.obj
 0002:000008d0       ??_C@_0L@NPHFGOKO@__thiscall@ 00000001800168d0     libvcruntime:undname.obj
 0002:000008e0       ??_C@_0L@JMKHOMEK@__fastcall@ 00000001800168e0     libvcruntime:undname.obj
 0002:000008f0       ??_C@_0N@BCKKPABJ@__vectorcall@ 00000001800168f0     libvcruntime:undname.obj
 0002:00000900       ??_C@_09HIJEGCPM@__clrcall@ 0000000180016900     libvcruntime:undname.obj
 0002:0000090c       ??_C@_06GHPCKEAG@__eabi@   000000018001690c     libvcruntime:undname.obj
 0002:00000918       ??_C@_09IOPIDJLG@__swift_1@ 0000000180016918     libvcruntime:undname.obj
 0002:00000928       ??_C@_09KFNFGKHF@__swift_2@ 0000000180016928     libvcruntime:undname.obj
 0002:00000938       ??_C@_07JOMMBBKO@__ptr64@  0000000180016938     libvcruntime:undname.obj
 0002:00000940       ??_C@_0L@PILCLIHE@__restrict@ 0000000180016940     libvcruntime:undname.obj
 0002:00000950       ??_C@_0M@GFIIJFMG@__unaligned@ 0000000180016950     libvcruntime:undname.obj
 0002:00000960       ??_C@_09DHDLOLLB@restrict?$CI@ 0000000180016960     libvcruntime:undname.obj
 0002:0000096a       ??_C@_00CNPNBAHC@@         000000018001696a     libvcruntime:undname.obj
 0002:0000096c       ??_C@_04NIHEBCM@?5new@     000000018001696c     libvcruntime:undname.obj
 0002:00000978       ??_C@_07FPCDHGMM@?5delete@ 0000000180016978     libvcruntime:undname.obj
 0002:00000980       ??_C@_01NEMOKFLO@?$DN@     0000000180016980     libvcruntime:undname.obj
 0002:00000984       ??_C@_02GPIOPFAK@?$DO?$DO@ 0000000180016984     libvcruntime:undname.obj
 0002:00000988       ??_C@_02FODMEDOG@?$DM?$DM@ 0000000180016988     libvcruntime:undname.obj
 0002:0000098c       ??_C@_01DCLJPIOD@?$CB@     000000018001698c     libvcruntime:undname.obj
 0002:00000990       ??_C@_02EGOFBIJA@?$DN?$DN@ 0000000180016990     libvcruntime:undname.obj
 0002:00000994       ??_C@_02FDNJECIE@?$CB?$DN@ 0000000180016994     libvcruntime:undname.obj
 0002:00000998       ??_C@_02GPECMEKF@?$FL?$FN@ 0000000180016998     libvcruntime:undname.obj
 0002:000009a0       ??_C@_08LHJFAFGD@operator@ 00000001800169a0     libvcruntime:undname.obj
 0002:000009ac       ??_C@_02HBOOOICD@?9?$DO@   00000001800169ac     libvcruntime:undname.obj
 0002:000009b0       ??_C@_01NBENCBCI@?$CK@     00000001800169b0     libvcruntime:undname.obj
 0002:000009b4       ??_C@_02ECNGHCIF@?$CL?$CL@ 00000001800169b4     libvcruntime:undname.obj
 0002:000009b8       ??_C@_02BAABKJLB@?9?9@     00000001800169b8     libvcruntime:undname.obj
 0002:000009bc       ??_C@_01JOAMLHOP@?9@       00000001800169bc     libvcruntime:undname.obj
 0002:000009c0       ??_C@_01MIFGBAGJ@?$CL@     00000001800169c0     libvcruntime:undname.obj
 0002:000009c4       ??_C@_01HNPIGOCE@?$CG@     00000001800169c4     libvcruntime:undname.obj
 0002:000009c8       ??_C@_03MNHNFDLC@?9?$DO?$CK@ 00000001800169c8     libvcruntime:undname.obj
 0002:000009cc       ??_C@_01KMDKNFGN@?1@       00000001800169cc     libvcruntime:undname.obj
 0002:000009d0       ??_C@_01FGNFDNOH@?$CF@     00000001800169d0     libvcruntime:undname.obj
 0002:000009d4       ??_C@_01MNNFJEPP@?$DM@     00000001800169d4     libvcruntime:undname.obj
 0002:000009d8       ??_C@_02EHCHHCKH@?$DM?$DN@ 00000001800169d8     libvcruntime:undname.obj
 0002:000009dc       ??_C@_01PPODPGHN@?$DO@     00000001800169dc     libvcruntime:undname.obj
 0002:000009e0       ??_C@_02EEKDKGMJ@?$DO?$DN@ 00000001800169e0     libvcruntime:undname.obj
 0002:000009e4       ??_C@_01IHBHIGKO@?0@       00000001800169e4     libvcruntime:undname.obj
 0002:000009e8       ??_C@_02HCKGKOFO@?$CI?$CJ@ 00000001800169e8     libvcruntime:undname.obj
 0002:000009ec       ??_C@_01PJKLJHI@?$HO@      00000001800169ec     libvcruntime:undname.obj
 0002:000009f0       ??_C@_01JKBOJNNK@?$FO@     00000001800169f0     libvcruntime:undname.obj
 0002:000009f4       ??_C@_01DNKMNLPK@?$HM@     00000001800169f4     libvcruntime:undname.obj
 0002:000009f8       ??_C@_02PPKAJPJL@?$CG?$CG@ 00000001800169f8     libvcruntime:undname.obj
 0002:000009fc       ??_C@_02NONPIBCD@?$HM?$HM@ 00000001800169fc     libvcruntime:undname.obj
 0002:00000a00       ??_C@_02FPIMKNGF@?$CK?$DN@ 0000000180016a00     libvcruntime:undname.obj
 0002:00000a04       ??_C@_02FOEOMHFC@?$CL?$DN@ 0000000180016a04     libvcruntime:undname.obj
 0002:00000a08       ??_C@_02FKMDLLOA@?9?$DN@   0000000180016a08     libvcruntime:undname.obj
 0002:00000a0c       ??_C@_02FJEHGPIO@?1?$DN@   0000000180016a0c     libvcruntime:undname.obj
 0002:00000a10       ??_C@_02FENAOKFI@?$CF?$DN@ 0000000180016a10     libvcruntime:undname.obj
 0002:00000a14       ??_C@_03IKFCCPFF@?$DO?$DO?$DN@ 0000000180016a14     libvcruntime:undname.obj
 0002:00000a18       ??_C@_03CDNPDDLA@?$DM?$DM?$DN@ 0000000180016a18     libvcruntime:undname.obj
 0002:00000a1c       ??_C@_02FGJGFEAB@?$CG?$DN@ 0000000180016a1c     libvcruntime:undname.obj
 0002:00000a20       ??_C@_02DHLNPPGH@?$HM?$DN@ 0000000180016a20     libvcruntime:undname.obj
 0002:00000a24       ??_C@_02MHEGNOJ@?$FO?$DN@  0000000180016a24     libvcruntime:undname.obj
 0002:00000a28       ??_C@_09IFPLHPGF@?$GAvftable?8@ 0000000180016a28     libvcruntime:undname.obj
 0002:00000a38       ??_C@_09BLBHBJP@?$GAvbtable?8@ 0000000180016a38     libvcruntime:undname.obj
 0002:00000a48       ??_C@_07FEEIOKP@?$GAvcall?8@ 0000000180016a48     libvcruntime:undname.obj
 0002:00000a50       ??_C@_08LLFFHHDJ@?$GAtypeof?8@ 0000000180016a50     libvcruntime:undname.obj
 0002:00000a60       ??_C@_0BF@KDPPACIK@?$GAlocal?5static?5guard?8@ 0000000180016a60     libvcruntime:undname.obj
 0002:00000a78       ??_C@_08OBABFOLI@?$GAstring?8@ 0000000180016a78     libvcruntime:undname.obj
 0002:00000a88       ??_C@_0BD@JDLKDPAB@?$GAvbase?5destructor?8@ 0000000180016a88     libvcruntime:undname.obj
 0002:00000aa0       ??_C@_0BN@DEGPLNFK@?$GAvector?5deleting?5destructor?8@ 0000000180016aa0     libvcruntime:undname.obj
 0002:00000ac0       ??_C@_0BO@OBMKPJIG@?$GAdefault?5constructor?5closure?8@ 0000000180016ac0     libvcruntime:undname.obj
 0002:00000ae0       ??_C@_0BN@IMDCHIKM@?$GAscalar?5deleting?5destructor?8@ 0000000180016ae0     libvcruntime:undname.obj
 0002:00000b00       ??_C@_0BO@PFGOCPJJ@?$GAvector?5constructor?5iterator?8@ 0000000180016b00     libvcruntime:undname.obj
 0002:00000b20       ??_C@_0BN@LFPFMEDL@?$GAvector?5destructor?5iterator?8@ 0000000180016b20     libvcruntime:undname.obj
 0002:00000b40       ??_C@_0CE@IKBNEHA@?$GAvector?5vbase?5constructor?5itera@ 0000000180016b40     libvcruntime:undname.obj
 0002:00000b68       ??_C@_0BL@NILFHHPC@?$GAvirtual?5displacement?5map?8@ 0000000180016b68     libvcruntime:undname.obj
 0002:00000b88       ??_C@_0CB@JONCMFFK@?$GAeh?5vector?5constructor?5iterator@ 0000000180016b88     libvcruntime:undname.obj
 0002:00000bb0       ??_C@_0CA@GCEOPDGL@?$GAeh?5vector?5destructor?5iterator?8@ 0000000180016bb0     libvcruntime:undname.obj
 0002:00000bd0       ??_C@_0CH@OOJPLCPH@?$GAeh?5vector?5vbase?5constructor?5it@ 0000000180016bd0     libvcruntime:undname.obj
 0002:00000bf8       ??_C@_0BL@LLKPOHJI@?$GAcopy?5constructor?5closure?8@ 0000000180016bf8     libvcruntime:undname.obj
 0002:00000c18       ??_C@_0BA@KBCDOMBN@?$GAudt?5returning?8@ 0000000180016c18     libvcruntime:undname.obj
 0002:00000c28       ??_C@_03KLGMFNMG@?$GAEH@   0000000180016c28     libvcruntime:undname.obj
 0002:00000c2c       ??_C@_05KHLCHHI@?$GARTTI@  0000000180016c2c     libvcruntime:undname.obj
 0002:00000c38       ??_C@_0BA@KKLDJDLB@?$GAlocal?5vftable?8@ 0000000180016c38     libvcruntime:undname.obj
 0002:00000c48       ??_C@_0CE@IIHCMGGL@?$GAlocal?5vftable?5constructor?5clos@ 0000000180016c48     libvcruntime:undname.obj
 0002:00000c6c       ??_C@_06FHBGPFGH@?5new?$FL?$FN@ 0000000180016c6c     libvcruntime:undname.obj
 0002:00000c78       ??_C@_09LBNFPBCA@?5delete?$FL?$FN@ 0000000180016c78     libvcruntime:undname.obj
 0002:00000c88       ??_C@_0P@HJKNJFNN@?$GAomni?5callsig?8@ 0000000180016c88     libvcruntime:undname.obj
 0002:00000c98       ??_C@_0BL@CNOONJFP@?$GAplacement?5delete?5closure?8@ 0000000180016c98     libvcruntime:undname.obj
 0002:00000cb8       ??_C@_0BN@CKNJLHMB@?$GAplacement?5delete?$FL?$FN?5closure?8@ 0000000180016cb8     libvcruntime:undname.obj
 0002:00000cd8       ??_C@_0CG@CFDHKGGD@?$GAmanaged?5vector?5constructor?5ite@ 0000000180016cd8     libvcruntime:undname.obj
 0002:00000d00       ??_C@_0CF@IMGKMJNO@?$GAmanaged?5vector?5destructor?5iter@ 0000000180016d00     libvcruntime:undname.obj
 0002:00000d28       ??_C@_0CG@HLDDJMAG@?$GAeh?5vector?5copy?5constructor?5ite@ 0000000180016d28     libvcruntime:undname.obj
 0002:00000d50       ??_C@_0CM@FCBBDIGB@?$GAeh?5vector?5vbase?5copy?5construct@ 0000000180016d50     libvcruntime:undname.obj
 0002:00000d80       ??_C@_0BL@CLIPGLGB@?$GAdynamic?5initializer?5for?5?8@ 0000000180016d80     libvcruntime:undname.obj
 0002:00000da0       ??_C@_0CB@PDBIFEP@?$GAdynamic?5atexit?5destructor?5for?5@ 0000000180016da0     libvcruntime:undname.obj
 0002:00000dc8       ??_C@_0CD@CGAJBKEJ@?$GAvector?5copy?5constructor?5iterat@ 0000000180016dc8     libvcruntime:undname.obj
 0002:00000df0       ??_C@_0CJ@GJELGAMM@?$GAvector?5vbase?5copy?5constructor?5@ 0000000180016df0     libvcruntime:undname.obj
 0002:00000e20       ??_C@_0CL@FGIJHLCE@?$GAmanaged?5vector?5copy?5constructo@ 0000000180016e20     libvcruntime:undname.obj
 0002:00000e50       ??_C@_0BM@PMGGMLDN@?$GAlocal?5static?5thread?5guard?8@ 0000000180016e50     libvcruntime:undname.obj
 0002:00000e70       ??_C@_0N@BDNMDMOL@operator?5?$CC?$CC?5@ 0000000180016e70     libvcruntime:undname.obj
 0002:00000e80       ??_C@_0BC@GGEBGALA@operator?5co_await@ 0000000180016e80     libvcruntime:undname.obj
 0002:00000e98       ??_C@_0BC@DAFEJGAK@?5Type?5Descriptor?8@ 0000000180016e98     libvcruntime:undname.obj
 0002:00000eb0       ??_C@_0BM@LDKODKLH@?5Base?5Class?5Descriptor?5at?5?$CI@ 0000000180016eb0     libvcruntime:undname.obj
 0002:00000ed0       ??_C@_0BD@LGICGFMM@?5Base?5Class?5Array?8@ 0000000180016ed0     libvcruntime:undname.obj
 0002:00000ee8       ??_C@_0BN@MECKDCOJ@?5Class?5Hierarchy?5Descriptor?8@ 0000000180016ee8     libvcruntime:undname.obj
 0002:00000f08       ??_C@_0BK@CFCOFLF@?5Complete?5Object?5Locator?8@ 0000000180016f08     libvcruntime:undname.obj
 0002:00000f30       ??_C@_1FE@LHBLIKM@?$AAA?$AAs?$AAs?$AAe?$AAr?$AAt?$AAi?$AAo?$AAn?$AA?5?$AAf?$AAa?$AAi?$AAl?$AAe?$AAd?$AA?3?$AA?5?$AA?$CF?$AAT?$AAs?$AA?0?$AA?5?$AAf?$AAi?$AAl?$AAe?$AA?5?$AA?$CF?$AAT?$AAs?$AA?0@ 0000000180016f30     libucrt:assert.obj
 0002:00000f90       ??_C@_1EK@MBDPDCGA@?$AAM?$AAi?$AAc?$AAr?$AAo?$AAs?$AAo?$AAf?$AAt?$AA?5?$AAV?$AAi?$AAs?$AAu?$AAa?$AAl?$AA?5?$AAC?$AA?$CL?$AA?$CL?$AA?5?$AAR?$AAu?$AAn?$AAt?$AAi?$AAm?$AAe?$AA?5?$AAL?$AAi?$AAb@ 0000000180016f90     libucrt:assert.obj
 0002:00000fe0       ??_C@_1CE@OJBNHDMO@?$AAA?$AAs?$AAs?$AAe?$AAr?$AAt?$AAi?$AAo?$AAn?$AA?5?$AAf?$AAa?$AAi?$AAl?$AAe?$AAd?$AA?$CB?$AA?$AA@ 0000000180016fe0     libucrt:assert.obj
 0002:00001008       ??_C@_1BE@PHKBBGE@?$AAP?$AAr?$AAo?$AAg?$AAr?$AAa?$AAm?$AA?3?$AA?5?$AA?$AA@ 0000000180017008     libucrt:assert.obj
 0002:00001020       ??_C@_1O@HEMHKNDC@?$AAF?$AAi?$AAl?$AAe?$AA?3?$AA?5?$AA?$AA@ 0000000180017020     libucrt:assert.obj
 0002:00001030       ??_C@_1O@KCAFKHJE@?$AAL?$AAi?$AAn?$AAe?$AA?3?$AA?5?$AA?$AA@ 0000000180017030     libucrt:assert.obj
 0002:00001040       ??_C@_1BK@PEDCIPMA@?$AAE?$AAx?$AAp?$AAr?$AAe?$AAs?$AAs?$AAi?$AAo?$AAn?$AA?3?$AA?5?$AA?$AA@ 0000000180017040     libucrt:assert.obj
 0002:00001060       ??_C@_1OA@EGMLFBHJ@?$AAF?$AAo?$AAr?$AA?5?$AAi?$AAn?$AAf?$AAo?$AAr?$AAm?$AAa?$AAt?$AAi?$AAo?$AAn?$AA?5?$AAo?$AAn?$AA?5?$AAh?$AAo?$AAw?$AA?5?$AAy?$AAo?$AAu?$AAr?$AA?5?$AAp?$AAr?$AAo?$AAg@ 0000000180017060     libucrt:assert.obj
 0002:00001140       ??_C@_1HK@POCJMFGK@?$AA?$CI?$AAP?$AAr?$AAe?$AAs?$AAs?$AA?5?$AAR?$AAe?$AAt?$AAr?$AAy?$AA?5?$AAt?$AAo?$AA?5?$AAd?$AAe?$AAb?$AAu?$AAg?$AA?5?$AAt?$AAh?$AAe?$AA?5?$AAa?$AAp?$AAp?$AAl?$AAi?$AAc@ 0000000180017140     libucrt:assert.obj
 0002:000011c0       ??_C@_17LGKOMLJ@?$AA?4?$AA?4?$AA?4?$AA?$AA@ 00000001800171c0     libucrt:assert.obj
 0002:000011c8       ??_C@_13LBAGMAIH@?$AA?6?$AA?$AA@ 00000001800171c8     libucrt:assert.obj
 0002:000011cc       ??_C@_15IABLJNFO@?$AA?6?$AA?6?$AA?$AA@ 00000001800171cc     libucrt:assert.obj
 0002:000011d8       ??_C@_1CO@EAEJAADC@?$AA?$DM?$AAp?$AAr?$AAo?$AAg?$AAr?$AAa?$AAm?$AA?5?$AAn?$AAa?$AAm?$AAe?$AA?5?$AAu?$AAn?$AAk?$AAn?$AAo?$AAw?$AAn?$AA?$DO?$AA?$AA@ 00000001800171d8     libucrt:assert.obj
 0002:00001210       __acrt_exception_action_table 0000000180017210     libucrt:exception_filter.obj
 0002:000012d0       __acrt_signal_action_table_count 00000001800172d0     libucrt:exception_filter.obj
 0002:000012d8       __acrt_signal_action_first_fpe_index 00000001800172d8     libucrt:exception_filter.obj
 0002:000012e0       __acrt_signal_action_fpe_count 00000001800172e0     libucrt:exception_filter.obj
 0002:000012e8       ??_C@_1BI@BGOHAHKC@?$AAm?$AAs?$AAc?$AAo?$AAr?$AAe?$AAe?$AA?4?$AAd?$AAl?$AAl?$AA?$AA@ 00000001800172e8     libucrt:exit.obj
 0002:00001300       ??_C@_0P@MIGLKIOC@CorExitProcess?$AA@ 0000000180017300     libucrt:exit.obj
 0002:00001410       standard_lookup_table      0000000180017410     libucrt:output.obj
 0002:00001470       ??_C@_1O@CEDCILHN@?$AA?$CI?$AAn?$AAu?$AAl?$AAl?$AA?$CJ?$AA?$AA@ 0000000180017470     libucrt:output.obj
 0002:00001480       ??_C@_06OJHGLDPL@?$CInull?$CJ?$AA@ 0000000180017480     libucrt:output.obj
 0002:00001600       __lc_time_c                0000000180017600     libucrt:nlsdata.obj
 0002:000018c0       ??_C@_03KOEHGMDN@Sun?$AA@  00000001800178c0     libucrt:nlsdata.obj
 0002:000018c4       ??_C@_03PDAGKDH@Mon?$AA@   00000001800178c4     libucrt:nlsdata.obj
 0002:000018c8       ??_C@_03NAGEINEP@Tue?$AA@  00000001800178c8     libucrt:nlsdata.obj
 0002:000018cc       ??_C@_03MHOMLAJA@Wed?$AA@  00000001800178cc     libucrt:nlsdata.obj
 0002:000018d0       ??_C@_03IOFIKPDN@Thu?$AA@  00000001800178d0     libucrt:nlsdata.obj
 0002:000018d4       ??_C@_03IDIOELNC@Fri?$AA@  00000001800178d4     libucrt:nlsdata.obj
 0002:000018d8       ??_C@_03FEFJNEK@Sat?$AA@   00000001800178d8     libucrt:nlsdata.obj
 0002:000018dc       ??_C@_06OOPIFAJ@Sunday?$AA@ 00000001800178dc     libucrt:nlsdata.obj
 0002:000018e4       ??_C@_06JLEDEDGH@Monday?$AA@ 00000001800178e4     libucrt:nlsdata.obj
 0002:000018f0       ??_C@_07BAAGCFCM@Tuesday?$AA@ 00000001800178f0     libucrt:nlsdata.obj
 0002:000018f8       ??_C@_09DLIGFAKA@Wednesday?$AA@ 00000001800178f8     libucrt:nlsdata.obj
 0002:00001908       ??_C@_08HACCIKIA@Thursday?$AA@ 0000000180017908     libucrt:nlsdata.obj
 0002:00001914       ??_C@_06JECMNKMI@Friday?$AA@ 0000000180017914     libucrt:nlsdata.obj
 0002:00001920       ??_C@_08INBOOONO@Saturday?$AA@ 0000000180017920     libucrt:nlsdata.obj
 0002:0000192c       ??_C@_03JIHJHPIE@Jan?$AA@  000000018001792c     libucrt:nlsdata.obj
 0002:00001930       ??_C@_03HJBDCHOM@Feb?$AA@  0000000180017930     libucrt:nlsdata.obj
 0002:00001934       ??_C@_03ODNJBKGA@Mar?$AA@  0000000180017934     libucrt:nlsdata.obj
 0002:00001938       ??_C@_03LEOLGMJP@Apr?$AA@  0000000180017938     libucrt:nlsdata.obj
 0002:0000193c       ??_C@_03CNMDKL@May?$AA@    000000018001793c     libucrt:nlsdata.obj
 0002:00001940       ??_C@_03IDFGHECI@Jun?$AA@  0000000180017940     libucrt:nlsdata.obj
 0002:00001944       ??_C@_03LBGABGKK@Jul?$AA@  0000000180017944     libucrt:nlsdata.obj
 0002:00001948       ??_C@_03IFJFEIGA@Aug?$AA@  0000000180017948     libucrt:nlsdata.obj
 0002:0000194c       ??_C@_03GGCAPAJC@Sep?$AA@  000000018001794c     libucrt:nlsdata.obj
 0002:00001950       ??_C@_03BMAOKBAD@Oct?$AA@  0000000180017950     libucrt:nlsdata.obj
 0002:00001954       ??_C@_03JPJOFNIA@Nov?$AA@  0000000180017954     libucrt:nlsdata.obj
 0002:00001958       ??_C@_03MKABNOCG@Dec?$AA@  0000000180017958     libucrt:nlsdata.obj
 0002:00001960       ??_C@_07CGJPFGJA@January?$AA@ 0000000180017960     libucrt:nlsdata.obj
 0002:00001968       ??_C@_08GNJGEPFN@February?$AA@ 0000000180017968     libucrt:nlsdata.obj
 0002:00001974       ??_C@_05HPCKOFNC@March?$AA@ 0000000180017974     libucrt:nlsdata.obj
 0002:0000197c       ??_C@_05DMJDNLEJ@April?$AA@ 000000018001797c     libucrt:nlsdata.obj
 0002:00001984       ??_C@_04CNLMGBGM@June?$AA@ 0000000180017984     libucrt:nlsdata.obj
 0002:0000198c       ??_C@_04MIEPOIFP@July?$AA@ 000000018001798c     libucrt:nlsdata.obj
 0002:00001994       ??_C@_06LBBHFDDG@August?$AA@ 0000000180017994     libucrt:nlsdata.obj
 0002:000019a0       ??_C@_09BHHEALKD@September?$AA@ 00000001800179a0     libucrt:nlsdata.obj
 0002:000019b0       ??_C@_07JJNFCEND@October?$AA@ 00000001800179b0     libucrt:nlsdata.obj
 0002:000019b8       ??_C@_08HCHEGEOA@November?$AA@ 00000001800179b8     libucrt:nlsdata.obj
 0002:000019c8       ??_C@_08EDHMEBNP@December?$AA@ 00000001800179c8     libucrt:nlsdata.obj
 0002:000019d4       ??_C@_02DEDBPAFC@AM?$AA@   00000001800179d4     libucrt:nlsdata.obj
 0002:000019d8       ??_C@_02CJNFDJBF@PM?$AA@   00000001800179d8     libucrt:nlsdata.obj
 0002:000019e0       ??_C@_08BPBNCDIB@MM?1dd?1yy?$AA@ 00000001800179e0     libucrt:nlsdata.obj
 0002:000019f0       ??_C@_0BE@CKGJFCPC@dddd?0?5MMMM?5dd?0?5yyyy?$AA@ 00000001800179f0     libucrt:nlsdata.obj
 0002:00001a08       ??_C@_08JCCMCCIL@HH?3mm?3ss?$AA@ 0000000180017a08     libucrt:nlsdata.obj
 0002:00001a18       ??_C@_17MBGCMIPB@?$AAS?$AAu?$AAn?$AA?$AA@ 0000000180017a18     libucrt:nlsdata.obj
 0002:00001a20       ??_C@_17KBOMKBF@?$AAM?$AAo?$AAn?$AA?$AA@ 0000000180017a20     libucrt:nlsdata.obj
 0002:00001a28       ??_C@_17BMKGEGOJ@?$AAT?$AAu?$AAe?$AA?$AA@ 0000000180017a28     libucrt:nlsdata.obj
 0002:00001a30       ??_C@_17CJEDCEPE@?$AAW?$AAe?$AAd?$AA?$AA@ 0000000180017a30     libucrt:nlsdata.obj
 0002:00001a38       ??_C@_17PDPHAADD@?$AAT?$AAh?$AAu?$AA?$AA@ 0000000180017a38     libucrt:nlsdata.obj
 0002:00001a40       ??_C@_17HFOLPPLP@?$AAF?$AAr?$AAi?$AA?$AA@ 0000000180017a40     libucrt:nlsdata.obj
 0002:00001a48       ??_C@_17GGIBDPIH@?$AAS?$AAa?$AAt?$AA?$AA@ 0000000180017a48     libucrt:nlsdata.obj
 0002:00001a50       ??_C@_1O@IHNHDHPB@?$AAS?$AAu?$AAn?$AAd?$AAa?$AAy?$AA?$AA@ 0000000180017a50     libucrt:nlsdata.obj
 0002:00001a60       ??_C@_1O@MMNBFLIA@?$AAM?$AAo?$AAn?$AAd?$AAa?$AAy?$AA?$AA@ 0000000180017a60     libucrt:nlsdata.obj
 0002:00001a70       ??_C@_1BA@ENFBFFEK@?$AAT?$AAu?$AAe?$AAs?$AAd?$AAa?$AAy?$AA?$AA@ 0000000180017a70     libucrt:nlsdata.obj
 0002:00001a80       ??_C@_1BE@EBOGMDOH@?$AAW?$AAe?$AAd?$AAn?$AAe?$AAs?$AAd?$AAa?$AAy?$AA?$AA@ 0000000180017a80     libucrt:nlsdata.obj
 0002:00001a98       ??_C@_1BC@HHMNLIHE@?$AAT?$AAh?$AAu?$AAr?$AAs?$AAd?$AAa?$AAy?$AA?$AA@ 0000000180017a98     libucrt:nlsdata.obj
 0002:00001ab0       ??_C@_1O@PDICJHAG@?$AAF?$AAr?$AAi?$AAd?$AAa?$AAy?$AA?$AA@ 0000000180017ab0     libucrt:nlsdata.obj
 0002:00001ac0       ??_C@_1BC@ENMNNPAJ@?$AAS?$AAa?$AAt?$AAu?$AAr?$AAd?$AAa?$AAy?$AA?$AA@ 0000000180017ac0     libucrt:nlsdata.obj
 0002:00001ad8       ??_C@_17DKNBKCHM@?$AAJ?$AAa?$AAn?$AA?$AA@ 0000000180017ad8     libucrt:nlsdata.obj
 0002:00001ae0       ??_C@_17LMDJEKJN@?$AAF?$AAe?$AAb?$AA?$AA@ 0000000180017ae0     libucrt:nlsdata.obj
 0002:00001ae8       ??_C@_17CKNLEDEC@?$AAM?$AAa?$AAr?$AA?$AA@ 0000000180017ae8     libucrt:nlsdata.obj
 0002:00001af0       ??_C@_17LFPOIHDD@?$AAA?$AAp?$AAr?$AA?$AA@ 0000000180017af0     libucrt:nlsdata.obj
 0002:00001af8       ??_C@_17PNNKMEED@?$AAM?$AAa?$AAy?$AA?$AA@ 0000000180017af8     libucrt:nlsdata.obj
 0002:00001b00       ??_C@_17KCJGOCPB@?$AAJ?$AAu?$AAn?$AA?$AA@ 0000000180017b00     libucrt:nlsdata.obj
 0002:00001b08       ??_C@_17IJPCKHK@?$AAJ?$AAu?$AAl?$AA?$AA@ 0000000180017b08     libucrt:nlsdata.obj
 0002:00001b10       ??_C@_17ICPELBCN@?$AAA?$AAu?$AAg?$AA?$AA@ 0000000180017b10     libucrt:nlsdata.obj
 0002:00001b18       ??_C@_17HCHCOKMG@?$AAS?$AAe?$AAp?$AA?$AA@ 0000000180017b18     libucrt:nlsdata.obj
 0002:00001b20       ??_C@_17FNLKOI@?$AAO?$AAc?$AAt?$AA?$AA@ 0000000180017b20     libucrt:nlsdata.obj
 0002:00001b28       ??_C@_17BBDMLCIG@?$AAN?$AAo?$AAv?$AA?$AA@ 0000000180017b28     libucrt:nlsdata.obj
 0002:00001b30       ??_C@_17EGKACKIF@?$AAD?$AAe?$AAc?$AA?$AA@ 0000000180017b30     libucrt:nlsdata.obj
 0002:00001b38       ??_C@_1BA@EFMEIEBA@?$AAJ?$AAa?$AAn?$AAu?$AAa?$AAr?$AAy?$AA?$AA@ 0000000180017b38     libucrt:nlsdata.obj
 0002:00001b48       ??_C@_1BC@JGDDFFAM@?$AAF?$AAe?$AAb?$AAr?$AAu?$AAa?$AAr?$AAy?$AA?$AA@ 0000000180017b48     libucrt:nlsdata.obj
 0002:00001b60       ??_C@_1M@IKEENEDF@?$AAM?$AAa?$AAr?$AAc?$AAh?$AA?$AA@ 0000000180017b60     libucrt:nlsdata.obj
 0002:00001b70       ??_C@_1M@GJNLMHFD@?$AAA?$AAp?$AAr?$AAi?$AAl?$AA?$AA@ 0000000180017b70     libucrt:nlsdata.obj
 0002:00001b80       ??_C@_19EPFLPGAP@?$AAJ?$AAu?$AAn?$AAe?$AA?$AA@ 0000000180017b80     libucrt:nlsdata.obj
 0002:00001b90       ??_C@_19BIFMLPCD@?$AAJ?$AAu?$AAl?$AAy?$AA?$AA@ 0000000180017b90     libucrt:nlsdata.obj
 0002:00001ba0       ??_C@_1O@PAHLKOAC@?$AAA?$AAu?$AAg?$AAu?$AAs?$AAt?$AA?$AA@ 0000000180017ba0     libucrt:nlsdata.obj
 0002:00001bb0       ??_C@_1BE@DKAAMBJL@?$AAS?$AAe?$AAp?$AAt?$AAe?$AAm?$AAb?$AAe?$AAr?$AA?$AA@ 0000000180017bb0     libucrt:nlsdata.obj
 0002:00001bc8       ??_C@_1BA@EPANDLNG@?$AAO?$AAc?$AAt?$AAo?$AAb?$AAe?$AAr?$AA?$AA@ 0000000180017bc8     libucrt:nlsdata.obj
 0002:00001bd8       ??_C@_1BC@BGLIFPF@?$AAN?$AAo?$AAv?$AAe?$AAm?$AAb?$AAe?$AAr?$AA?$AA@ 0000000180017bd8     libucrt:nlsdata.obj
 0002:00001bf0       ??_C@_1BC@FEMKIFH@?$AAD?$AAe?$AAc?$AAe?$AAm?$AAb?$AAe?$AAr?$AA?$AA@ 0000000180017bf0     libucrt:nlsdata.obj
 0002:00001c04       ??_C@_15ODEHAHHF@?$AAA?$AAM?$AA?$AA@ 0000000180017c04     libucrt:nlsdata.obj
 0002:00001c0c       ??_C@_15CLMNNGEL@?$AAP?$AAM?$AA?$AA@ 0000000180017c0c     libucrt:nlsdata.obj
 0002:00001c18       ??_C@_1BC@IEBCMHCM@?$AAM?$AAM?$AA?1?$AAd?$AAd?$AA?1?$AAy?$AAy?$AA?$AA@ 0000000180017c18     libucrt:nlsdata.obj
 0002:00001c30       ??_C@_1CI@KNAKOEBC@?$AAd?$AAd?$AAd?$AAd?$AA?0?$AA?5?$AAM?$AAM?$AAM?$AAM?$AA?5?$AAd?$AAd?$AA?0?$AA?5?$AAy?$AAy?$AAy?$AAy?$AA?$AA@ 0000000180017c30     libucrt:nlsdata.obj
 0002:00001c58       ??_C@_1BC@GDGBMEMK@?$AAH?$AAH?$AA?3?$AAm?$AAm?$AA?3?$AAs?$AAs?$AA?$AA@ 0000000180017c58     libucrt:nlsdata.obj
 0002:00001c70       ??_C@_1M@BMHNFIME@?$AAe?$AAn?$AA?9?$AAU?$AAS?$AA?$AA@ 0000000180017c70     libucrt:nlsdata.obj
 0002:00001ca0       ??_C@_1M@HPNHIDJI@?$AAj?$AAa?$AA?9?$AAJ?$AAP?$AA?$AA@ 0000000180017ca0     libucrt:mbctype.obj
 0002:00001cb0       ??_C@_1M@BIBDDEMK@?$AAz?$AAh?$AA?9?$AAC?$AAN?$AA?$AA@ 0000000180017cb0     libucrt:mbctype.obj
 0002:00001cc0       ??_C@_1M@JLOOOEGK@?$AAk?$AAo?$AA?9?$AAK?$AAR?$AA?$AA@ 0000000180017cc0     libucrt:mbctype.obj
 0002:00001cd0       ??_C@_1M@CLNBBOPM@?$AAz?$AAh?$AA?9?$AAT?$AAW?$AA?$AA@ 0000000180017cd0     libucrt:mbctype.obj
 0002:00001d80       ??_C@_1EA@JGEFHKEI@?$AAa?$AAp?$AAi?$AA?9?$AAm?$AAs?$AA?9?$AAw?$AAi?$AAn?$AA?9?$AAc?$AAo?$AAr?$AAe?$AA?9?$AAd?$AAa?$AAt?$AAe?$AAt?$AAi?$AAm?$AAe?$AA?9?$AAl?$AA1?$AA?9?$AA1?$AA?9?$AA1?$AA?$AA@ 0000000180017d80     libucrt:winapi_thunks.obj
 0002:00001dc0       ??_C@_1DM@KHCHBNEB@?$AAa?$AAp?$AAi?$AA?9?$AAm?$AAs?$AA?9?$AAw?$AAi?$AAn?$AA?9?$AAc?$AAo?$AAr?$AAe?$AA?9?$AAf?$AAi?$AAb?$AAe?$AAr?$AAs?$AA?9?$AAl?$AA1?$AA?9?$AA1?$AA?9?$AA1?$AA?$AA@ 0000000180017dc0     libucrt:winapi_thunks.obj
 0002:00001e00       ??_C@_1DI@IJCEHOCB@?$AAa?$AAp?$AAi?$AA?9?$AAm?$AAs?$AA?9?$AAw?$AAi?$AAn?$AA?9?$AAc?$AAo?$AAr?$AAe?$AA?9?$AAf?$AAi?$AAl?$AAe?$AA?9?$AAl?$AA1?$AA?9?$AA2?$AA?9?$AA2?$AA?$AA@ 0000000180017e00     libucrt:winapi_thunks.obj
 0002:00001e40       ??_C@_1EI@MPIAOHOC@?$AAa?$AAp?$AAi?$AA?9?$AAm?$AAs?$AA?9?$AAw?$AAi?$AAn?$AA?9?$AAc?$AAo?$AAr?$AAe?$AA?9?$AAl?$AAo?$AAc?$AAa?$AAl?$AAi?$AAz?$AAa?$AAt?$AAi?$AAo?$AAn?$AA?9?$AAl?$AA1?$AA?9@ 0000000180017e40     libucrt:winapi_thunks.obj
 0002:00001e90       ??_C@_1FK@FPHCKFIE@?$AAa?$AAp?$AAi?$AA?9?$AAm?$AAs?$AA?9?$AAw?$AAi?$AAn?$AA?9?$AAc?$AAo?$AAr?$AAe?$AA?9?$AAl?$AAo?$AAc?$AAa?$AAl?$AAi?$AAz?$AAa?$AAt?$AAi?$AAo?$AAn?$AA?9?$AAo?$AAb?$AAs@ 0000000180017e90     libucrt:winapi_thunks.obj
 0002:00001ef0       ??_C@_1EM@DILCGIIO@?$AAa?$AAp?$AAi?$AA?9?$AAm?$AAs?$AA?9?$AAw?$AAi?$AAn?$AA?9?$AAc?$AAo?$AAr?$AAe?$AA?9?$AAp?$AAr?$AAo?$AAc?$AAe?$AAs?$AAs?$AAt?$AAh?$AAr?$AAe?$AAa?$AAd?$AAs?$AA?9?$AAl@ 0000000180017ef0     libucrt:winapi_thunks.obj
 0002:00001f40       ??_C@_1DM@LNCGDDPN@?$AAa?$AAp?$AAi?$AA?9?$AAm?$AAs?$AA?9?$AAw?$AAi?$AAn?$AA?9?$AAc?$AAo?$AAr?$AAe?$AA?9?$AAs?$AAt?$AAr?$AAi?$AAn?$AAg?$AA?9?$AAl?$AA1?$AA?9?$AA1?$AA?9?$AA0?$AA?$AA@ 0000000180017f40     libucrt:winapi_thunks.obj
 0002:00001f80       ??_C@_1DK@LPPGFMPP@?$AAa?$AAp?$AAi?$AA?9?$AAm?$AAs?$AA?9?$AAw?$AAi?$AAn?$AA?9?$AAc?$AAo?$AAr?$AAe?$AA?9?$AAs?$AAy?$AAn?$AAc?$AAh?$AA?9?$AAl?$AA1?$AA?9?$AA2?$AA?9?$AA0?$AA?$AA@ 0000000180017f80     libucrt:winapi_thunks.obj
 0002:00001fc0       ??_C@_1DO@FPAPJEMD@?$AAa?$AAp?$AAi?$AA?9?$AAm?$AAs?$AA?9?$AAw?$AAi?$AAn?$AA?9?$AAc?$AAo?$AAr?$AAe?$AA?9?$AAs?$AAy?$AAs?$AAi?$AAn?$AAf?$AAo?$AA?9?$AAl?$AA1?$AA?9?$AA2?$AA?9?$AA1?$AA?$AA@ 0000000180017fc0     libucrt:winapi_thunks.obj
 0002:00002000       ??_C@_1DK@NDHNAHIO@?$AAa?$AAp?$AAi?$AA?9?$AAm?$AAs?$AA?9?$AAw?$AAi?$AAn?$AA?9?$AAc?$AAo?$AAr?$AAe?$AA?9?$AAw?$AAi?$AAn?$AAr?$AAt?$AA?9?$AAl?$AA1?$AA?9?$AA1?$AA?9?$AA0?$AA?$AA@ 0000000180018000     libucrt:winapi_thunks.obj
 0002:00002040       ??_C@_1DM@KGHDGBCM@?$AAa?$AAp?$AAi?$AA?9?$AAm?$AAs?$AA?9?$AAw?$AAi?$AAn?$AA?9?$AAc?$AAo?$AAr?$AAe?$AA?9?$AAx?$AAs?$AAt?$AAa?$AAt?$AAe?$AA?9?$AAl?$AA2?$AA?9?$AA1?$AA?9?$AA0?$AA?$AA@ 0000000180018040     libucrt:winapi_thunks.obj
 0002:00002080       ??_C@_1EO@IJIOEFOH@?$AAa?$AAp?$AAi?$AA?9?$AAm?$AAs?$AA?9?$AAw?$AAi?$AAn?$AA?9?$AAr?$AAt?$AAc?$AAo?$AAr?$AAe?$AA?9?$AAn?$AAt?$AAu?$AAs?$AAe?$AAr?$AA?9?$AAw?$AAi?$AAn?$AAd?$AAo?$AAw?$AA?9@ 0000000180018080     libucrt:winapi_thunks.obj
 0002:000020d0       ??_C@_1FG@HHGEKANL@?$AAa?$AAp?$AAi?$AA?9?$AAm?$AAs?$AA?9?$AAw?$AAi?$AAn?$AA?9?$AAs?$AAe?$AAc?$AAu?$AAr?$AAi?$AAt?$AAy?$AA?9?$AAs?$AAy?$AAs?$AAt?$AAe?$AAm?$AAf?$AAu?$AAn?$AAc?$AAt?$AAi@ 00000001800180d0     libucrt:winapi_thunks.obj
 0002:00002130       ??_C@_1EG@DBIOJECG@?$AAe?$AAx?$AAt?$AA?9?$AAm?$AAs?$AA?9?$AAw?$AAi?$AAn?$AA?9?$AAn?$AAt?$AAu?$AAs?$AAe?$AAr?$AA?9?$AAd?$AAi?$AAa?$AAl?$AAo?$AAg?$AAb?$AAo?$AAx?$AA?9?$AAl?$AA1?$AA?9?$AA1@ 0000000180018130     libucrt:winapi_thunks.obj
 0002:00002180       ??_C@_1EO@FIHMJCLF@?$AAe?$AAx?$AAt?$AA?9?$AAm?$AAs?$AA?9?$AAw?$AAi?$AAn?$AA?9?$AAn?$AAt?$AAu?$AAs?$AAe?$AAr?$AA?9?$AAw?$AAi?$AAn?$AAd?$AAo?$AAw?$AAs?$AAt?$AAa?$AAt?$AAi?$AAo?$AAn?$AA?9@ 0000000180018180     libucrt:winapi_thunks.obj
 0002:000021d0       ??_C@_1BC@DNHGCMLG@?$AAa?$AAd?$AAv?$AAa?$AAp?$AAi?$AA3?$AA2?$AA?$AA@ 00000001800181d0     libucrt:winapi_thunks.obj
 0002:000021e8       ??_C@_1BC@GDMECMAK@?$AAk?$AAe?$AAr?$AAn?$AAe?$AAl?$AA3?$AA2?$AA?$AA@ 00000001800181e8     libucrt:winapi_thunks.obj
 0002:00002200       ??_C@_1M@OAIMIKLP@?$AAn?$AAt?$AAd?$AAl?$AAl?$AA?$AA@ 0000000180018200     libucrt:winapi_thunks.obj
 0002:00002210       ??_C@_1EG@DPGNFKGC@?$AAa?$AAp?$AAi?$AA?9?$AAm?$AAs?$AA?9?$AAw?$AAi?$AAn?$AA?9?$AAa?$AAp?$AAp?$AAm?$AAo?$AAd?$AAe?$AAl?$AA?9?$AAr?$AAu?$AAn?$AAt?$AAi?$AAm?$AAe?$AA?9?$AAl?$AA1?$AA?9?$AA1@ 0000000180018210     libucrt:winapi_thunks.obj
 0002:00002258       ??_C@_1O@BCCLBEOE@?$AAu?$AAs?$AAe?$AAr?$AA3?$AA2?$AA?$AA@ 0000000180018258     libucrt:winapi_thunks.obj
 0002:00002268       ??_C@_1BA@PFFKHIOG@?$AAa?$AAp?$AAi?$AA?9?$AAm?$AAs?$AA?9?$AA?$AA@ 0000000180018268     libucrt:winapi_thunks.obj
 0002:00002278       ??_C@_1BA@IAIFMGEF@?$AAe?$AAx?$AAt?$AA?9?$AAm?$AAs?$AA?9?$AA?$AA@ 0000000180018278     libucrt:winapi_thunks.obj
 0002:00002290       ??_C@_0BA@FHFNEAED@AreFileApisANSI?$AA@ 0000000180018290     libucrt:winapi_thunks.obj
 0002:000022a8       ??_C@_08KNHFBNJ@FlsAlloc?$AA@ 00000001800182a8     libucrt:winapi_thunks.obj
 0002:000022c0       ??_C@_07PEJMOBNF@FlsFree?$AA@ 00000001800182c0     libucrt:winapi_thunks.obj
 0002:000022d0       ??_C@_0M@GDNOONDI@FlsGetValue?$AA@ 00000001800182d0     libucrt:winapi_thunks.obj
 0002:000022e8       ??_C@_0M@JCPCPOEF@FlsSetValue?$AA@ 00000001800182e8     libucrt:winapi_thunks.obj
 0002:00002300       ??_C@_0BA@HNOPNCHB@GetActiveWindow?$AA@ 0000000180018300     libucrt:winapi_thunks.obj
 0002:00002318       ??_C@_0BD@HHGDFDBJ@GetLastActivePopup?$AA@ 0000000180018318     libucrt:winapi_thunks.obj
 0002:00002338       ??_C@_0BI@DFKBFLJE@GetProcessWindowStation?$AA@ 0000000180018338     libucrt:winapi_thunks.obj
 0002:00002358       ??_C@_0BK@DEKFELLI@GetUserObjectInformationW?$AA@ 0000000180018358     libucrt:winapi_thunks.obj
 0002:00002380       ??_C@_0BM@HCFOFFN@InitializeCriticalSectionEx?$AA@ 0000000180018380     libucrt:winapi_thunks.obj
 0002:000023a8       ??_C@_0O@KKBNKAPF@LCMapStringEx?$AA@ 00000001800183a8     libucrt:winapi_thunks.obj
 0002:000023c0       ??_C@_0BB@HBDEELFH@LocaleNameToLCID?$AA@ 00000001800183c0     libucrt:winapi_thunks.obj
 0002:000023e0       ??_C@_0M@CHKKJDAI@MessageBoxA?$AA@ 00000001800183e0     libucrt:winapi_thunks.obj
 0002:000023f8       ??_C@_0M@DLDCCGNP@MessageBoxW?$AA@ 00000001800183f8     libucrt:winapi_thunks.obj
 0002:00002408       ??_C@_0CF@OJOFEIGO@AppPolicyGetProcessTerminationMe@ 0000000180018408     libucrt:winapi_thunks.obj
 0002:00002438       ??_C@_0CE@OICFMIKE@AppPolicyGetShowDeveloperDiagnos@ 0000000180018438     libucrt:winapi_thunks.obj
 0002:00002460       ??_C@_0BL@ODDJNEDA@AppPolicyGetWindowingModel?$AA@ 0000000180018460     libucrt:winapi_thunks.obj
 0002:0000247c       ??_C@_03OEIAHPBN@INF?$AA@  000000018001847c     libucrt:cvt.obj
 0002:00002480       ??_C@_03OJHLLCGB@inf?$AA@  0000000180018480     libucrt:cvt.obj
 0002:00002484       ??_C@_03LKNCIKJB@NAN?$AA@  0000000180018484     libucrt:cvt.obj
 0002:00002488       ??_C@_03LHCJEHON@nan?$AA@  0000000180018488     libucrt:cvt.obj
 0002:00002490       ??_C@_09OFJJIMPC@NAN?$CISNAN?$CJ?$AA@ 0000000180018490     libucrt:cvt.obj
 0002:000024a0       ??_C@_09IPFBKMDL@nan?$CIsnan?$CJ?$AA@ 00000001800184a0     libucrt:cvt.obj
 0002:000024b0       ??_C@_08IKHNHAJ@NAN?$CIIND?$CJ?$AA@ 00000001800184b0     libucrt:cvt.obj
 0002:000024c0       ??_C@_08OFCDMILK@nan?$CIind?$CJ?$AA@ 00000001800184c0     libucrt:cvt.obj
 0002:000024cc       ??_C@_05KLBDPFGC@e?$CL000?$AA@ 00000001800184cc     libucrt:cvt.obj
 0002:000024e0       __newctype                 00000001800184e0     libucrt:ctype.obj
 0002:000027e0       __newclmap                 00000001800187e0     libucrt:ctype.obj
 0002:00002960       __newcumap                 0000000180018960     libucrt:ctype.obj
 0002:00002ae0       _wctype                    0000000180018ae0     libucrt:ctype.obj
 0002:00002ce4       ??_C@_15PJPFLCCM@?$AAu?$AAk?$AA?$AA@ 0000000180018ce4     libucrt:get_qualified_locale.obj
 0002:00003b30       ??_C@_15EMKDOKLE@?$AAa?$AAr?$AA?$AA@ 0000000180019b30     libucrt:lcidtoname_downlevel.obj
 0002:00003b38       ??_C@_15KNPADPLH@?$AAb?$AAg?$AA?$AA@ 0000000180019b38     libucrt:lcidtoname_downlevel.obj
 0002:00003b40       ??_C@_15EDMHLDMO@?$AAc?$AAa?$AA?$AA@ 0000000180019b40     libucrt:lcidtoname_downlevel.obj
 0002:00003b48       ??_C@_1O@BPEAJADD@?$AAz?$AAh?$AA?9?$AAC?$AAH?$AAS?$AA?$AA@ 0000000180019b48     libucrt:lcidtoname_downlevel.obj
 0002:00003b58       ??_C@_15LJNHCMNK@?$AAc?$AAs?$AA?$AA@ 0000000180019b58     libucrt:lcidtoname_downlevel.obj
 0002:00003b60       ??_C@_15FOMCIDHG@?$AAd?$AAa?$AA?$AA@ 0000000180019b60     libucrt:lcidtoname_downlevel.obj
 0002:00003b68       ??_C@_15NBKABECB@?$AAd?$AAe?$AA?$AA@ 0000000180019b68     libucrt:lcidtoname_downlevel.obj
 0002:00003b70       ??_C@_15GHPEIIAO@?$AAe?$AAl?$AA?$AA@ 0000000180019b70     libucrt:lcidtoname_downlevel.obj
 0002:00003b78       ??_C@_15MNPNEAIF@?$AAe?$AAn?$AA?$AA@ 0000000180019b78     libucrt:lcidtoname_downlevel.obj
 0002:00003b80       ??_C@_15GPIOMPMH@?$AAe?$AAs?$AA?$AA@ 0000000180019b80     libucrt:lcidtoname_downlevel.obj
 0002:00003b88       ??_C@_15NGLOAKJC@?$AAf?$AAi?$AA?$AA@ 0000000180019b88     libucrt:lcidtoname_downlevel.obj
 0002:00003b90       ??_C@_15FBKGNKAM@?$AAf?$AAr?$AA?$AA@ 0000000180019b90     libucrt:lcidtoname_downlevel.obj
 0002:00003b98       ??_C@_15KGGCNEFK@?$AAh?$AAe?$AA?$AA@ 0000000180019b98     libucrt:lcidtoname_downlevel.obj
 0002:00003ba0       ??_C@_15PGHLIDMF@?$AAh?$AAu?$AA?$AA@ 0000000180019ba0     libucrt:lcidtoname_downlevel.obj
 0002:00003ba8       ??_C@_15BIEMAPLM@?$AAi?$AAs?$AA?$AA@ 0000000180019ba8     libucrt:lcidtoname_downlevel.obj
 0002:00003bb0       ??_C@_15IFJLDHAF@?$AAi?$AAt?$AA?$AA@ 0000000180019bb0     libucrt:lcidtoname_downlevel.obj
 0002:00003bb8       ??_C@_15GEMIOCAG@?$AAj?$AAa?$AA?$AA@ 0000000180019bb8     libucrt:lcidtoname_downlevel.obj
 0002:00003bc0       ??_C@_15EPELEGJA@?$AAk?$AAo?$AA?$AA@ 0000000180019bc0     libucrt:lcidtoname_downlevel.obj
 0002:00003bc8       ??_C@_15NDDHIMN@?$AAn?$AAl?$AA?$AA@ 0000000180019bc8     libucrt:lcidtoname_downlevel.obj
 0002:00003bd0       ??_C@_15BPIGNHCD@?$AAn?$AAo?$AA?$AA@ 0000000180019bd0     libucrt:lcidtoname_downlevel.obj
 0002:00003bd8       ??_C@_15DEOPBLCG@?$AAp?$AAl?$AA?$AA@ 0000000180019bd8     libucrt:lcidtoname_downlevel.obj
 0002:00003be0       ??_C@_15KBECGEFG@?$AAp?$AAt?$AA?$AA@ 0000000180019be0     libucrt:lcidtoname_downlevel.obj
 0002:00003be8       ??_C@_15GLJCBFMD@?$AAr?$AAo?$AA?$AA@ 0000000180019be8     libucrt:lcidtoname_downlevel.obj
 0002:00003bf0       ??_C@_15FEDGKCDI@?$AAr?$AAu?$AA?$AA@ 0000000180019bf0     libucrt:lcidtoname_downlevel.obj
 0002:00003bf8       ??_C@_15GLKMLLHM@?$AAh?$AAr?$AA?$AA@ 0000000180019bf8     libucrt:lcidtoname_downlevel.obj
 0002:00003c00       ??_C@_15CPKMFBDB@?$AAs?$AAk?$AA?$AA@ 0000000180019c00     libucrt:lcidtoname_downlevel.obj
 0002:00003c08       ??_C@_15BAAIOGMK@?$AAs?$AAq?$AA?$AA@ 0000000180019c08     libucrt:lcidtoname_downlevel.obj
 0002:00003c10       ??_C@_15INNPNOHD@?$AAs?$AAv?$AA?$AA@ 0000000180019c10     libucrt:lcidtoname_downlevel.obj
 0002:00003c18       ??_C@_15CABMMOGH@?$AAt?$AAh?$AA?$AA@ 0000000180019c18     libucrt:lcidtoname_downlevel.obj
 0002:00003c20       ??_C@_15BPLIHJJM@?$AAt?$AAr?$AA?$AA@ 0000000180019c20     libucrt:lcidtoname_downlevel.obj
 0002:00003c28       ??_C@_15NEOEKKDJ@?$AAu?$AAr?$AA?$AA@ 0000000180019c28     libucrt:lcidtoname_downlevel.obj
 0002:00003c30       ??_C@_15NFICGAJK@?$AAi?$AAd?$AA?$AA@ 0000000180019c30     libucrt:lcidtoname_downlevel.obj
 0002:00003c38       ??_C@_15HPJPHDM@?$AAb?$AAe?$AA?$AA@ 0000000180019c38     libucrt:lcidtoname_downlevel.obj
 0002:00003c40       ??_C@_15LCHLGJII@?$AAs?$AAl?$AA?$AA@ 0000000180019c40     libucrt:lcidtoname_downlevel.obj
 0002:00003c48       ??_C@_15PCFJPHHO@?$AAe?$AAt?$AA?$AA@ 0000000180019c48     libucrt:lcidtoname_downlevel.obj
 0002:00003c50       ??_C@_15HPFPGODN@?$AAl?$AAv?$AA?$AA@ 0000000180019c50     libucrt:lcidtoname_downlevel.obj
 0002:00003c58       ??_C@_15NFFGKGLG@?$AAl?$AAt?$AA?$AA@ 0000000180019c58     libucrt:lcidtoname_downlevel.obj
 0002:00003c60       ??_C@_15BDAKCCHN@?$AAf?$AAa?$AA?$AA@ 0000000180019c60     libucrt:lcidtoname_downlevel.obj
 0002:00003c68       ??_C@_15NFGIAIAJ@?$AAv?$AAi?$AA?$AA@ 0000000180019c68     libucrt:lcidtoname_downlevel.obj
 0002:00003c70       ??_C@_15LMKNDMHN@?$AAh?$AAy?$AA?$AA@ 0000000180019c70     libucrt:lcidtoname_downlevel.obj
 0002:00003c78       ??_C@_15IJBHMCFL@?$AAa?$AAz?$AA?$AA@ 0000000180019c78     libucrt:lcidtoname_downlevel.obj
 0002:00003c80       ??_C@_15EKOFJABL@?$AAe?$AAu?$AA?$AA@ 0000000180019c80     libucrt:lcidtoname_downlevel.obj
 0002:00003c88       ??_C@_15BGHADCNK@?$AAm?$AAk?$AA?$AA@ 0000000180019c88     libucrt:lcidtoname_downlevel.obj
 0002:00003c90       ??_C@_15JDNICKHM@?$AAa?$AAf?$AA?$AA@ 0000000180019c90     libucrt:lcidtoname_downlevel.obj
 0002:00003c98       ??_C@_15KPJEDBKD@?$AAk?$AAa?$AA?$AA@ 0000000180019c98     libucrt:lcidtoname_downlevel.obj
 0002:00003ca0       ??_C@_15PDNFFFEO@?$AAf?$AAo?$AA?$AA@ 0000000180019ca0     libucrt:lcidtoname_downlevel.obj
 0002:00003ca8       ??_C@_15OMLEGLOC@?$AAh?$AAi?$AA?$AA@ 0000000180019ca8     libucrt:lcidtoname_downlevel.obj
 0002:00003cb0       ??_C@_15IDNNENKK@?$AAm?$AAs?$AA?$AA@ 0000000180019cb0     libucrt:lcidtoname_downlevel.obj
 0002:00003cb8       ??_C@_15MACJNBMH@?$AAk?$AAk?$AA?$AA@ 0000000180019cb8     libucrt:lcidtoname_downlevel.obj
 0002:00003cc0       ??_C@_15DKDJEOND@?$AAk?$AAy?$AA?$AA@ 0000000180019cc0     libucrt:lcidtoname_downlevel.obj
 0002:00003cc8       ??_C@_15DFGDLJBG@?$AAs?$AAw?$AA?$AA@ 0000000180019cc8     libucrt:lcidtoname_downlevel.obj
 0002:00003cd0       ??_C@_15BBFAICNG@?$AAu?$AAz?$AA?$AA@ 0000000180019cd0     libucrt:lcidtoname_downlevel.obj
 0002:00003cd8       ??_C@_15DKNDCGEA@?$AAt?$AAt?$AA?$AA@ 0000000180019cd8     libucrt:lcidtoname_downlevel.obj
 0002:00003ce0       ??_C@_15MGIFMDPL@?$AAp?$AAa?$AA?$AA@ 0000000180019ce0     libucrt:lcidtoname_downlevel.obj
 0002:00003ce8       ??_C@_15HCNDBBA@?$AAg?$AAu?$AA?$AA@ 0000000180019ce8     libucrt:lcidtoname_downlevel.obj
 0002:00003cf0       ??_C@_15FNBEIBON@?$AAt?$AAa?$AA?$AA@ 0000000180019cf0     libucrt:lcidtoname_downlevel.obj
 0002:00003cf8       ??_C@_15NCHGBGLK@?$AAt?$AAe?$AA?$AA@ 0000000180019cf8     libucrt:lcidtoname_downlevel.obj
 0002:00003d00       ??_C@_15PHPHCBPF@?$AAk?$AAn?$AA?$AA@ 0000000180019d00     libucrt:lcidtoname_downlevel.obj
 0002:00003d08       ??_C@_15DLGBCKMP@?$AAm?$AAr?$AA?$AA@ 0000000180019d08     libucrt:lcidtoname_downlevel.obj
 0002:00003d10       ??_C@_15EABBLBFF@?$AAs?$AAa?$AA?$AA@ 0000000180019d10     libucrt:lcidtoname_downlevel.obj
 0002:00003d18       ??_C@_15CBKOMCOI@?$AAm?$AAn?$AA?$AA@ 0000000180019d18     libucrt:lcidtoname_downlevel.obj
 0002:00003d20       ??_C@_15CKDMCJAF@?$AAg?$AAl?$AA?$AA@ 0000000180019d20     libucrt:lcidtoname_downlevel.obj
 0002:00003d28       ??_C@_17CNJFBPG@?$AAk?$AAo?$AAk?$AA?$AA@ 0000000180019d28     libucrt:lcidtoname_downlevel.obj
 0002:00003d30       ??_C@_17FFBJICPL@?$AAs?$AAy?$AAr?$AA?$AA@ 0000000180019d30     libucrt:lcidtoname_downlevel.obj
 0002:00003d38       ??_C@_17KPNDCPAF@?$AAd?$AAi?$AAv?$AA?$AA@ 0000000180019d38     libucrt:lcidtoname_downlevel.obj
 0002:00003d40       ??_C@_11LOCGONAA@?$AA?$AA@ 0000000180019d40     libucrt:lcidtoname_downlevel.obj
 0002:00003d48       ??_C@_1M@OKAHONE@?$AAa?$AAr?$AA?9?$AAS?$AAA?$AA?$AA@ 0000000180019d48     libucrt:lcidtoname_downlevel.obj
 0002:00003d58       ??_C@_1M@FFFIGIGK@?$AAb?$AAg?$AA?9?$AAB?$AAG?$AA?$AA@ 0000000180019d58     libucrt:lcidtoname_downlevel.obj
 0002:00003d68       ??_C@_1M@BJNKEDC@?$AAc?$AAa?$AA?9?$AAE?$AAS?$AA?$AA@ 0000000180019d68     libucrt:lcidtoname_downlevel.obj
 0002:00003d78       ??_C@_1M@IJJHFJHA@?$AAc?$AAs?$AA?9?$AAC?$AAZ?$AA?$AA@ 0000000180019d78     libucrt:lcidtoname_downlevel.obj
 0002:00003d88       ??_C@_1M@CLPEOBGI@?$AAd?$AAa?$AA?9?$AAD?$AAK?$AA?$AA@ 0000000180019d88     libucrt:lcidtoname_downlevel.obj
 0002:00003d98       ??_C@_1M@MCMADGCB@?$AAd?$AAe?$AA?9?$AAD?$AAE?$AA?$AA@ 0000000180019d98     libucrt:lcidtoname_downlevel.obj
 0002:00003da8       ??_C@_1M@OOCKEMAM@?$AAe?$AAl?$AA?9?$AAG?$AAR?$AA?$AA@ 0000000180019da8     libucrt:lcidtoname_downlevel.obj
 0002:00003db8       ??_C@_1M@DDNJFGID@?$AAf?$AAi?$AA?9?$AAF?$AAI?$AA?$AA@ 0000000180019db8     libucrt:lcidtoname_downlevel.obj
 0002:00003dc8       ??_C@_1M@GLIPPMAC@?$AAf?$AAr?$AA?9?$AAF?$AAR?$AA?$AA@ 0000000180019dc8     libucrt:lcidtoname_downlevel.obj
 0002:00003dd8       ??_C@_1M@GFMCHPE@?$AAh?$AAe?$AA?9?$AAI?$AAL?$AA?$AA@ 0000000180019dd8     libucrt:lcidtoname_downlevel.obj
 0002:00003de8       ??_C@_1M@MHLPGNKM@?$AAh?$AAu?$AA?9?$AAH?$AAU?$AA?$AA@ 0000000180019de8     libucrt:lcidtoname_downlevel.obj
 0002:00003df8       ??_C@_1M@LPDDNNPN@?$AAi?$AAs?$AA?9?$AAI?$AAS?$AA?$AA@ 0000000180019df8     libucrt:lcidtoname_downlevel.obj
 0002:00003e08       ??_C@_1M@MADIPODN@?$AAi?$AAt?$AA?9?$AAI?$AAT?$AA?$AA@ 0000000180019e08     libucrt:lcidtoname_downlevel.obj
 0002:00003e18       ??_C@_1M@IHBJJGG@?$AAn?$AAl?$AA?9?$AAN?$AAL?$AA?$AA@ 0000000180019e18     libucrt:lcidtoname_downlevel.obj
 0002:00003e28       ??_C@_1M@EANAGDL@?$AAn?$AAb?$AA?9?$AAN?$AAO?$AA?$AA@ 0000000180019e28     libucrt:lcidtoname_downlevel.obj
 0002:00003e38       ??_C@_1M@NEIEMEGP@?$AAp?$AAl?$AA?9?$AAP?$AAL?$AA?$AA@ 0000000180019e38     libucrt:lcidtoname_downlevel.obj
 0002:00003e48       ??_C@_1M@BOCFIGEP@?$AAp?$AAt?$AA?9?$AAB?$AAR?$AA?$AA@ 0000000180019e48     libucrt:lcidtoname_downlevel.obj
 0002:00003e58       ??_C@_1M@IMPFOPBG@?$AAr?$AAo?$AA?9?$AAR?$AAO?$AA?$AA@ 0000000180019e58     libucrt:lcidtoname_downlevel.obj
 0002:00003e68       ??_C@_1M@IDNNEJMM@?$AAr?$AAu?$AA?9?$AAR?$AAU?$AA?$AA@ 0000000180019e68     libucrt:lcidtoname_downlevel.obj
 0002:00003e78       ??_C@_1M@LILEEOGM@?$AAh?$AAr?$AA?9?$AAH?$AAR?$AA?$AA@ 0000000180019e78     libucrt:lcidtoname_downlevel.obj
 0002:00003e88       ??_C@_1M@FKIFEHPB@?$AAs?$AAk?$AA?9?$AAS?$AAK?$AA?$AA@ 0000000180019e88     libucrt:lcidtoname_downlevel.obj
 0002:00003e98       ??_C@_1M@LJMAMNPJ@?$AAs?$AAq?$AA?9?$AAA?$AAL?$AA?$AA@ 0000000180019e98     libucrt:lcidtoname_downlevel.obj
 0002:00003ea8       ??_C@_1M@GIAKDKJK@?$AAs?$AAv?$AA?9?$AAS?$AAE?$AA?$AA@ 0000000180019ea8     libucrt:lcidtoname_downlevel.obj
 0002:00003eb8       ??_C@_1M@MKJKIKCL@?$AAt?$AAh?$AA?9?$AAT?$AAH?$AA?$AA@ 0000000180019eb8     libucrt:lcidtoname_downlevel.obj
 0002:00003ec8       ??_C@_1M@MFLCCMPB@?$AAt?$AAr?$AA?9?$AAT?$AAR?$AA?$AA@ 0000000180019ec8     libucrt:lcidtoname_downlevel.obj
 0002:00003ed8       ??_C@_1M@OIJHDKJN@?$AAu?$AAr?$AA?9?$AAP?$AAK?$AA?$AA@ 0000000180019ed8     libucrt:lcidtoname_downlevel.obj
 0002:00003ee8       ??_C@_1M@LHIPCIEK@?$AAi?$AAd?$AA?9?$AAI?$AAD?$AA?$AA@ 0000000180019ee8     libucrt:lcidtoname_downlevel.obj
 0002:00003ef8       ??_C@_1M@MFMOBGI@?$AAu?$AAk?$AA?9?$AAU?$AAA?$AA?$AA@ 0000000180019ef8     libucrt:lcidtoname_downlevel.obj
 0002:00003f08       ??_C@_1M@OBGLJIPL@?$AAb?$AAe?$AA?9?$AAB?$AAY?$AA?$AA@ 0000000180019f08     libucrt:lcidtoname_downlevel.obj
 0002:00003f18       ??_C@_1M@BCFAJEAD@?$AAs?$AAl?$AA?9?$AAS?$AAI?$AA?$AA@ 0000000180019f18     libucrt:lcidtoname_downlevel.obj
 0002:00003f28       ??_C@_1M@FKFFEDDN@?$AAe?$AAt?$AA?9?$AAE?$AAE?$AA?$AA@ 0000000180019f28     libucrt:lcidtoname_downlevel.obj
 0002:00003f38       ??_C@_1M@KGKKAACI@?$AAl?$AAv?$AA?9?$AAL?$AAV?$AA?$AA@ 0000000180019f38     libucrt:lcidtoname_downlevel.obj
 0002:00003f48       ??_C@_1M@IFGBIJO@?$AAl?$AAt?$AA?9?$AAL?$AAT?$AA?$AA@ 0000000180019f48     libucrt:lcidtoname_downlevel.obj
 0002:00003f58       ??_C@_1M@FGEAHEDM@?$AAf?$AAa?$AA?9?$AAI?$AAR?$AA?$AA@ 0000000180019f58     libucrt:lcidtoname_downlevel.obj
 0002:00003f68       ??_C@_1M@KBMAIBFN@?$AAv?$AAi?$AA?9?$AAV?$AAN?$AA?$AA@ 0000000180019f68     libucrt:lcidtoname_downlevel.obj
 0002:00003f78       ??_C@_1M@GPCBKDJK@?$AAh?$AAy?$AA?9?$AAA?$AAM?$AA?$AA@ 0000000180019f78     libucrt:lcidtoname_downlevel.obj
 0002:00003f88       ??_C@_1BG@BECMDDJB@?$AAa?$AAz?$AA?9?$AAA?$AAZ?$AA?9?$AAL?$AAa?$AAt?$AAn?$AA?$AA@ 0000000180019f88     libucrt:lcidtoname_downlevel.obj
 0002:00003fa0       ??_C@_1M@MAOFCAEA@?$AAe?$AAu?$AA?9?$AAE?$AAS?$AA?$AA@ 0000000180019fa0     libucrt:lcidtoname_downlevel.obj
 0002:00003fb0       ??_C@_1M@IGHABKPI@?$AAm?$AAk?$AA?9?$AAM?$AAK?$AA?$AA@ 0000000180019fb0     libucrt:lcidtoname_downlevel.obj
 0002:00003fc0       ??_C@_1M@IAIGNEJG@?$AAt?$AAn?$AA?9?$AAZ?$AAA?$AA?$AA@ 0000000180019fc0     libucrt:lcidtoname_downlevel.obj
 0002:00003fd0       ??_C@_1M@IIJCOJFA@?$AAx?$AAh?$AA?9?$AAZ?$AAA?$AA?$AA@ 0000000180019fd0     libucrt:lcidtoname_downlevel.obj
 0002:00003fe0       ??_C@_1M@LGPJHNJH@?$AAz?$AAu?$AA?9?$AAZ?$AAA?$AA?$AA@ 0000000180019fe0     libucrt:lcidtoname_downlevel.obj
 0002:00003ff0       ??_C@_1M@HOKAOIO@?$AAa?$AAf?$AA?9?$AAZ?$AAA?$AA?$AA@ 0000000180019ff0     libucrt:lcidtoname_downlevel.obj
 0002:00004000       ??_C@_1M@DPCLHLIE@?$AAk?$AAa?$AA?9?$AAG?$AAE?$AA?$AA@ 000000018001a000     libucrt:lcidtoname_downlevel.obj
 0002:00004010       ??_C@_1M@BLKMHJBI@?$AAf?$AAo?$AA?9?$AAF?$AAO?$AA?$AA@ 000000018001a010     libucrt:lcidtoname_downlevel.obj
 0002:00004020       ??_C@_1M@LGGJAPPB@?$AAh?$AAi?$AA?9?$AAI?$AAN?$AA?$AA@ 000000018001a020     libucrt:lcidtoname_downlevel.obj
 0002:00004030       ??_C@_1M@FIKPIHFE@?$AAm?$AAt?$AA?9?$AAM?$AAT?$AA?$AA@ 000000018001a030     libucrt:lcidtoname_downlevel.obj
 0002:00004040       ??_C@_1M@HEGGPBFA@?$AAs?$AAe?$AA?9?$AAN?$AAO?$AA?$AA@ 000000018001a040     libucrt:lcidtoname_downlevel.obj
 0002:00004050       ??_C@_1M@EIBJEEPA@?$AAm?$AAs?$AA?9?$AAM?$AAY?$AA?$AA@ 000000018001a050     libucrt:lcidtoname_downlevel.obj
 0002:00004060       ??_C@_1M@FHLBGMPP@?$AAk?$AAk?$AA?9?$AAK?$AAZ?$AA?$AA@ 000000018001a060     libucrt:lcidtoname_downlevel.obj
 0002:00004070       ??_C@_1M@NGJJLCGI@?$AAk?$AAy?$AA?9?$AAK?$AAG?$AA?$AA@ 000000018001a070     libucrt:lcidtoname_downlevel.obj
 0002:00004080       ??_C@_1M@GIENNBFC@?$AAs?$AAw?$AA?9?$AAK?$AAE?$AA?$AA@ 000000018001a080     libucrt:lcidtoname_downlevel.obj
 0002:00004090       ??_C@_1BG@NDGMJIMJ@?$AAu?$AAz?$AA?9?$AAU?$AAZ?$AA?9?$AAL?$AAa?$AAt?$AAn?$AA?$AA@ 000000018001a090     libucrt:lcidtoname_downlevel.obj
 0002:000040a8       ??_C@_1M@IDCCIHBC@?$AAt?$AAt?$AA?9?$AAR?$AAU?$AA?$AA@ 000000018001a0a8     libucrt:lcidtoname_downlevel.obj
 0002:000040b8       ??_C@_1M@LOICPMOJ@?$AAb?$AAn?$AA?9?$AAI?$AAN?$AA?$AA@ 000000018001a0b8     libucrt:lcidtoname_downlevel.obj
 0002:000040c8       ??_C@_1M@KPKKNEAH@?$AAp?$AAa?$AA?9?$AAI?$AAN?$AA?$AA@ 000000018001a0c8     libucrt:lcidtoname_downlevel.obj
 0002:000040d8       ??_C@_1M@PJGPPBOG@?$AAg?$AAu?$AA?9?$AAI?$AAN?$AA?$AA@ 000000018001a0d8     libucrt:lcidtoname_downlevel.obj
 0002:000040e8       ??_C@_1M@KMKMOPHI@?$AAt?$AAa?$AA?9?$AAI?$AAN?$AA?$AA@ 000000018001a0e8     libucrt:lcidtoname_downlevel.obj
 0002:000040f8       ??_C@_1M@KFEHEPAC@?$AAt?$AAe?$AA?9?$AAI?$AAN?$AA?$AA@ 000000018001a0f8     libucrt:lcidtoname_downlevel.obj
 0002:00004108       ??_C@_1M@CDCLMGHI@?$AAk?$AAn?$AA?9?$AAI?$AAN?$AA?$AA@ 000000018001a108     libucrt:lcidtoname_downlevel.obj
 0002:00004118       ??_C@_1M@MIODLDKF@?$AAm?$AAl?$AA?9?$AAI?$AAN?$AA?$AA@ 000000018001a118     libucrt:lcidtoname_downlevel.obj
 0002:00004128       ??_C@_1M@PBIEACPO@?$AAm?$AAr?$AA?9?$AAI?$AAN?$AA?$AA@ 000000018001a128     libucrt:lcidtoname_downlevel.obj
 0002:00004138       ??_C@_1M@NIDEAGPH@?$AAs?$AAa?$AA?9?$AAI?$AAN?$AA?$AA@ 000000018001a138     libucrt:lcidtoname_downlevel.obj
 0002:00004148       ??_C@_1M@FHIHCBIO@?$AAm?$AAn?$AA?9?$AAM?$AAN?$AA?$AA@ 000000018001a148     libucrt:lcidtoname_downlevel.obj
 0002:00004158       ??_C@_1M@JAIJPENP@?$AAc?$AAy?$AA?9?$AAG?$AAB?$AA?$AA@ 000000018001a158     libucrt:lcidtoname_downlevel.obj
 0002:00004168       ??_C@_1M@PHGFBEPN@?$AAg?$AAl?$AA?9?$AAE?$AAS?$AA?$AA@ 000000018001a168     libucrt:lcidtoname_downlevel.obj
 0002:00004178       ??_C@_1O@KPIPDNCP@?$AAk?$AAo?$AAk?$AA?9?$AAI?$AAN?$AA?$AA@ 000000018001a178     libucrt:lcidtoname_downlevel.obj
 0002:00004188       ??_C@_1O@KNHJLDJA@?$AAs?$AAy?$AAr?$AA?9?$AAS?$AAY?$AA?$AA@ 000000018001a188     libucrt:lcidtoname_downlevel.obj
 0002:00004198       ??_C@_1O@MKEKBLAH@?$AAd?$AAi?$AAv?$AA?9?$AAM?$AAV?$AA?$AA@ 000000018001a198     libucrt:lcidtoname_downlevel.obj
 0002:000041a8       ??_C@_1O@OHDCKDDF@?$AAq?$AAu?$AAz?$AA?9?$AAB?$AAO?$AA?$AA@ 000000018001a1a8     libucrt:lcidtoname_downlevel.obj
 0002:000041b8       ??_C@_1M@LEPJNLFD@?$AAn?$AAs?$AA?9?$AAZ?$AAA?$AA?$AA@ 000000018001a1b8     libucrt:lcidtoname_downlevel.obj
 0002:000041c8       ??_C@_1M@OMLEIIJB@?$AAm?$AAi?$AA?9?$AAN?$AAZ?$AA?$AA@ 000000018001a1c8     libucrt:lcidtoname_downlevel.obj
 0002:000041d8       ??_C@_1M@PMPEAILG@?$AAa?$AAr?$AA?9?$AAI?$AAQ?$AA?$AA@ 000000018001a1d8     libucrt:lcidtoname_downlevel.obj
 0002:000041e8       ??_C@_1M@CNKPNOEE@?$AAd?$AAe?$AA?9?$AAC?$AAH?$AA?$AA@ 000000018001a1e8     libucrt:lcidtoname_downlevel.obj
 0002:000041f8       ??_C@_1M@LKMGMLKO@?$AAe?$AAn?$AA?9?$AAG?$AAB?$AA?$AA@ 000000018001a1f8     libucrt:lcidtoname_downlevel.obj
 0002:00004208       ??_C@_1M@PGKJFFGL@?$AAe?$AAs?$AA?9?$AAM?$AAX?$AA?$AA@ 000000018001a208     libucrt:lcidtoname_downlevel.obj
 0002:00004218       ??_C@_1M@DNNANBDC@?$AAf?$AAr?$AA?9?$AAB?$AAE?$AA?$AA@ 000000018001a218     libucrt:lcidtoname_downlevel.obj
 0002:00004228       ??_C@_1M@HLGMDFHM@?$AAi?$AAt?$AA?9?$AAC?$AAH?$AA?$AA@ 000000018001a228     libucrt:lcidtoname_downlevel.obj
 0002:00004238       ??_C@_1M@CLLBGJH@?$AAn?$AAl?$AA?9?$AAB?$AAE?$AA?$AA@ 000000018001a238     libucrt:lcidtoname_downlevel.obj
 0002:00004248       ??_C@_1M@BODBOGLF@?$AAn?$AAn?$AA?9?$AAN?$AAO?$AA?$AA@ 000000018001a248     libucrt:lcidtoname_downlevel.obj
 0002:00004258       ??_C@_1M@HFFAHKAD@?$AAp?$AAt?$AA?9?$AAP?$AAT?$AA?$AA@ 000000018001a258     libucrt:lcidtoname_downlevel.obj
 0002:00004268       ??_C@_1BG@LNOAKHIE@?$AAs?$AAr?$AA?9?$AAS?$AAP?$AA?9?$AAL?$AAa?$AAt?$AAn?$AA?$AA@ 000000018001a268     libucrt:lcidtoname_downlevel.obj
 0002:00004280       ??_C@_1M@HBMHBGAK@?$AAs?$AAv?$AA?9?$AAF?$AAI?$AA?$AA@ 000000018001a280     libucrt:lcidtoname_downlevel.obj
 0002:00004290       ??_C@_1BG@DGCJGJBE@?$AAa?$AAz?$AA?9?$AAA?$AAZ?$AA?9?$AAC?$AAy?$AAr?$AAl?$AA?$AA@ 000000018001a290     libucrt:lcidtoname_downlevel.obj
 0002:000042a8       ??_C@_1M@KEJDAAHB@?$AAs?$AAe?$AA?9?$AAS?$AAE?$AA?$AA@ 000000018001a2a8     libucrt:lcidtoname_downlevel.obj
 0002:000042b8       ??_C@_1M@HEIBJJAD@?$AAm?$AAs?$AA?9?$AAB?$AAN?$AA?$AA@ 000000018001a2b8     libucrt:lcidtoname_downlevel.obj
 0002:000042c8       ??_C@_1BG@PBGJMCEM@?$AAu?$AAz?$AA?9?$AAU?$AAZ?$AA?9?$AAC?$AAy?$AAr?$AAl?$AA?$AA@ 000000018001a2c8     libucrt:lcidtoname_downlevel.obj
 0002:000042e0       ??_C@_1O@LAOBCMDF@?$AAq?$AAu?$AAz?$AA?9?$AAE?$AAC?$AA?$AA@ 000000018001a2e0     libucrt:lcidtoname_downlevel.obj
 0002:000042f0       ??_C@_1M@POEEMAIO@?$AAa?$AAr?$AA?9?$AAE?$AAG?$AA?$AA@ 000000018001a2f0     libucrt:lcidtoname_downlevel.obj
 0002:00004300       ??_C@_1M@EFAKDEDL@?$AAz?$AAh?$AA?9?$AAH?$AAK?$AA?$AA@ 000000018001a300     libucrt:lcidtoname_downlevel.obj
 0002:00004310       ??_C@_1M@HKKIJHGI@?$AAd?$AAe?$AA?9?$AAA?$AAT?$AA?$AA@ 000000018001a310     libucrt:lcidtoname_downlevel.obj
 0002:00004320       ??_C@_1M@KBFBEHJF@?$AAe?$AAn?$AA?9?$AAA?$AAU?$AA?$AA@ 000000018001a320     libucrt:lcidtoname_downlevel.obj
 0002:00004330       ??_C@_1M@MNPLFAAH@?$AAe?$AAs?$AA?9?$AAE?$AAS?$AA?$AA@ 000000018001a330     libucrt:lcidtoname_downlevel.obj
 0002:00004340       ??_C@_1M@HJOOJFMA@?$AAf?$AAr?$AA?9?$AAC?$AAA?$AA?$AA@ 000000018001a340     libucrt:lcidtoname_downlevel.obj
 0002:00004350       ??_C@_1BG@JPOFPNAB@?$AAs?$AAr?$AA?9?$AAS?$AAP?$AA?9?$AAC?$AAy?$AAr?$AAl?$AA?$AA@ 000000018001a350     libucrt:lcidtoname_downlevel.obj
 0002:00004368       ??_C@_1M@LNFOCMOB@?$AAs?$AAe?$AA?9?$AAF?$AAI?$AA?$AA@ 000000018001a368     libucrt:lcidtoname_downlevel.obj
 0002:00004378       ??_C@_1O@MGJBOAMB@?$AAq?$AAu?$AAz?$AA?9?$AAP?$AAE?$AA?$AA@ 000000018001a378     libucrt:lcidtoname_downlevel.obj
 0002:00004388       ??_C@_1M@GJINLBOK@?$AAa?$AAr?$AA?9?$AAL?$AAY?$AA?$AA@ 000000018001a388     libucrt:lcidtoname_downlevel.obj
 0002:00004398       ??_C@_1M@GGMNHJNL@?$AAz?$AAh?$AA?9?$AAS?$AAG?$AA?$AA@ 000000018001a398     libucrt:lcidtoname_downlevel.obj
 0002:000043a8       ??_C@_1M@HOIKODND@?$AAd?$AAe?$AA?9?$AAL?$AAU?$AA?$AA@ 000000018001a3a8     libucrt:lcidtoname_downlevel.obj
 0002:000043b8       ??_C@_1M@DDOCCGFG@?$AAe?$AAn?$AA?9?$AAC?$AAA?$AA?$AA@ 000000018001a3b8     libucrt:lcidtoname_downlevel.obj
 0002:000043c8       ??_C@_1M@BNOEMJLF@?$AAe?$AAs?$AA?9?$AAG?$AAT?$AA?$AA@ 000000018001a3c8     libucrt:lcidtoname_downlevel.obj
 0002:000043d8       ??_C@_1M@EOGNKEK@?$AAf?$AAr?$AA?9?$AAC?$AAH?$AA?$AA@ 000000018001a3d8     libucrt:lcidtoname_downlevel.obj
 0002:000043e8       ??_C@_1M@FLIDJFHL@?$AAh?$AAr?$AA?9?$AAB?$AAA?$AA?$AA@ 000000018001a3e8     libucrt:lcidtoname_downlevel.obj
 0002:000043f8       ??_C@_1O@FMCELNAJ@?$AAs?$AAm?$AAj?$AA?9?$AAN?$AAO?$AA?$AA@ 000000018001a3f8     libucrt:lcidtoname_downlevel.obj
 0002:00004408       ??_C@_1M@JHGLJMGJ@?$AAa?$AAr?$AA?9?$AAD?$AAZ?$AA?$AA@ 000000018001a408     libucrt:lcidtoname_downlevel.obj
 0002:00004418       ??_C@_1M@JKKFDCNP@?$AAz?$AAh?$AA?9?$AAM?$AAO?$AA?$AA@ 000000018001a418     libucrt:lcidtoname_downlevel.obj
 0002:00004428       ??_C@_1M@GEEFALPE@?$AAd?$AAe?$AA?9?$AAL?$AAI?$AA?$AA@ 000000018001a428     libucrt:lcidtoname_downlevel.obj
 0002:00004438       ??_C@_1M@IGEOFBG@?$AAe?$AAn?$AA?9?$AAN?$AAZ?$AA?$AA@ 000000018001a438     libucrt:lcidtoname_downlevel.obj
 0002:00004448       ??_C@_1M@KDBONEHP@?$AAe?$AAs?$AA?9?$AAC?$AAR?$AA?$AA@ 000000018001a448     libucrt:lcidtoname_downlevel.obj
 0002:00004458       ??_C@_1M@FHMDOHNN@?$AAf?$AAr?$AA?9?$AAL?$AAU?$AA?$AA@ 000000018001a458     libucrt:lcidtoname_downlevel.obj
 0002:00004468       ??_C@_1BG@NFKKMAFG@?$AAb?$AAs?$AA?9?$AAB?$AAA?$AA?9?$AAL?$AAa?$AAt?$AAn?$AA?$AA@ 000000018001a468     libucrt:lcidtoname_downlevel.obj
 0002:00004480       ??_C@_1O@IMNBEMCI@?$AAs?$AAm?$AAj?$AA?9?$AAS?$AAE?$AA?$AA@ 000000018001a480     libucrt:lcidtoname_downlevel.obj
 0002:00004490       ??_C@_1M@DHHMBNDP@?$AAa?$AAr?$AA?9?$AAM?$AAA?$AA?$AA@ 000000018001a490     libucrt:lcidtoname_downlevel.obj
 0002:000044a0       ??_C@_1M@BNBLJCGH@?$AAe?$AAn?$AA?9?$AAI?$AAE?$AA?$AA@ 000000018001a4a0     libucrt:lcidtoname_downlevel.obj
 0002:000044b0       ??_C@_1M@GEPAFMDL@?$AAe?$AAs?$AA?9?$AAP?$AAA?$AA?$AA@ 000000018001a4b0     libucrt:lcidtoname_downlevel.obj
 0002:000044c0       ??_C@_1M@OJONDMDL@?$AAf?$AAr?$AA?9?$AAM?$AAC?$AA?$AA@ 000000018001a4c0     libucrt:lcidtoname_downlevel.obj
 0002:000044d0       ??_C@_1BG@OBCNFJB@?$AAs?$AAr?$AA?9?$AAB?$AAA?$AA?9?$AAL?$AAa?$AAt?$AAn?$AA?$AA@ 000000018001a4d0     libucrt:lcidtoname_downlevel.obj
 0002:000044e8       ??_C@_1O@KEMEEGPO@?$AAs?$AAm?$AAa?$AA?9?$AAN?$AAO?$AA?$AA@ 000000018001a4e8     libucrt:lcidtoname_downlevel.obj
 0002:000044f8       ??_C@_1M@ELMGFODK@?$AAa?$AAr?$AA?9?$AAT?$AAN?$AA?$AA@ 000000018001a4f8     libucrt:lcidtoname_downlevel.obj
 0002:00004508       ??_C@_1M@BHDLHFAF@?$AAe?$AAn?$AA?9?$AAZ?$AAA?$AA?$AA@ 000000018001a508     libucrt:lcidtoname_downlevel.obj
 0002:00004518       ??_C@_1M@BMGIGLIF@?$AAe?$AAs?$AA?9?$AAD?$AAO?$AA?$AA@ 000000018001a518     libucrt:lcidtoname_downlevel.obj
 0002:00004528       ??_C@_1BG@CMBHIPBE@?$AAs?$AAr?$AA?9?$AAB?$AAA?$AA?9?$AAC?$AAy?$AAr?$AAl?$AA?$AA@ 000000018001a528     libucrt:lcidtoname_downlevel.obj
 0002:00004540       ??_C@_1O@HEDBLHNP@?$AAs?$AAm?$AAa?$AA?9?$AAS?$AAE?$AA?$AA@ 000000018001a540     libucrt:lcidtoname_downlevel.obj
 0002:00004550       ??_C@_1M@DAGCADIM@?$AAa?$AAr?$AA?9?$AAO?$AAM?$AA?$AA@ 000000018001a550     libucrt:lcidtoname_downlevel.obj
 0002:00004560       ??_C@_1M@FODLMICG@?$AAe?$AAn?$AA?9?$AAJ?$AAM?$AA?$AA@ 000000018001a560     libucrt:lcidtoname_downlevel.obj
 0002:00004570       ??_C@_1M@DNMLCIHB@?$AAe?$AAs?$AA?9?$AAV?$AAE?$AA?$AA@ 000000018001a570     libucrt:lcidtoname_downlevel.obj
 0002:00004580       ??_C@_1O@EOKHMKJK@?$AAs?$AAm?$AAs?$AA?9?$AAF?$AAI?$AA?$AA@ 000000018001a580     libucrt:lcidtoname_downlevel.obj
 0002:00004590       ??_C@_1M@CAFJMKOF@?$AAa?$AAr?$AA?9?$AAY?$AAE?$AA?$AA@ 000000018001a590     libucrt:lcidtoname_downlevel.obj
 0002:000045a0       ??_C@_1M@CBFHIJLI@?$AAe?$AAn?$AA?9?$AAC?$AAB?$AA?$AA@ 000000018001a5a0     libucrt:lcidtoname_downlevel.obj
 0002:000045b0       ??_C@_1M@BGNFLDN@?$AAe?$AAs?$AA?9?$AAC?$AAO?$AA?$AA@ 000000018001a5b0     libucrt:lcidtoname_downlevel.obj
 0002:000045c0       ??_C@_1O@JMPHMAMC@?$AAs?$AAm?$AAn?$AA?9?$AAF?$AAI?$AA?$AA@ 000000018001a5c0     libucrt:lcidtoname_downlevel.obj
 0002:000045d0       ??_C@_1M@JLANABKE@?$AAa?$AAr?$AA?9?$AAS?$AAY?$AA?$AA@ 000000018001a5d0     libucrt:lcidtoname_downlevel.obj
 0002:000045e0       ??_C@_1M@HPKGCFGN@?$AAe?$AAn?$AA?9?$AAB?$AAZ?$AA?$AA@ 000000018001a5e0     libucrt:lcidtoname_downlevel.obj
 0002:000045f0       ??_C@_1M@OLJCMLGM@?$AAe?$AAs?$AA?9?$AAP?$AAE?$AA?$AA@ 000000018001a5f0     libucrt:lcidtoname_downlevel.obj
 0002:00004600       ??_C@_1M@MKKGFKLE@?$AAa?$AAr?$AA?9?$AAJ?$AAO?$AA?$AA@ 000000018001a600     libucrt:lcidtoname_downlevel.obj
 0002:00004610       ??_C@_1M@EKPGLDNI@?$AAe?$AAn?$AA?9?$AAT?$AAT?$AA?$AA@ 000000018001a610     libucrt:lcidtoname_downlevel.obj
 0002:00004620       ??_C@_1M@OONGHFHE@?$AAe?$AAs?$AA?9?$AAA?$AAR?$AA?$AA@ 000000018001a620     libucrt:lcidtoname_downlevel.obj
 0002:00004630       ??_C@_1M@OOJFGBHE@?$AAa?$AAr?$AA?9?$AAL?$AAB?$AA?$AA@ 000000018001a630     libucrt:lcidtoname_downlevel.obj
 0002:00004640       ??_C@_1M@GCEJHNEG@?$AAe?$AAn?$AA?9?$AAZ?$AAW?$AA?$AA@ 000000018001a640     libucrt:lcidtoname_downlevel.obj
 0002:00004650       ??_C@_1M@JNOCAHJI@?$AAe?$AAs?$AA?9?$AAE?$AAC?$AA?$AA@ 000000018001a650     libucrt:lcidtoname_downlevel.obj
 0002:00004660       ??_C@_1M@JEFHPGGB@?$AAa?$AAr?$AA?9?$AAK?$AAW?$AA?$AA@ 000000018001a660     libucrt:lcidtoname_downlevel.obj
 0002:00004670       ??_C@_1M@MLKIBJOJ@?$AAe?$AAn?$AA?9?$AAP?$AAH?$AA?$AA@ 000000018001a670     libucrt:lcidtoname_downlevel.obj
 0002:00004680       ??_C@_1M@BDNIPEND@?$AAe?$AAs?$AA?9?$AAC?$AAL?$AA?$AA@ 000000018001a680     libucrt:lcidtoname_downlevel.obj
 0002:00004690       ??_C@_1M@MPNMEKBD@?$AAa?$AAr?$AA?9?$AAA?$AAE?$AA?$AA@ 000000018001a690     libucrt:lcidtoname_downlevel.obj
 0002:000046a0       ??_C@_1M@KBJALCPI@?$AAe?$AAs?$AA?9?$AAU?$AAY?$AA?$AA@ 000000018001a6a0     libucrt:lcidtoname_downlevel.obj
 0002:000046b0       ??_C@_1M@LLCCOAGA@?$AAa?$AAr?$AA?9?$AAB?$AAH?$AA?$AA@ 000000018001a6b0     libucrt:lcidtoname_downlevel.obj
 0002:000046c0       ??_C@_1M@PBFNCDEL@?$AAe?$AAs?$AA?9?$AAP?$AAY?$AA?$AA@ 000000018001a6c0     libucrt:lcidtoname_downlevel.obj
 0002:000046d0       ??_C@_1M@EDGINPNP@?$AAa?$AAr?$AA?9?$AAQ?$AAA?$AA?$AA@ 000000018001a6d0     libucrt:lcidtoname_downlevel.obj
 0002:000046e0       ??_C@_1M@MKDBIIJI@?$AAe?$AAs?$AA?9?$AAB?$AAO?$AA?$AA@ 000000018001a6e0     libucrt:lcidtoname_downlevel.obj
 0002:000046f0       ??_C@_1M@CPKKEBLD@?$AAe?$AAs?$AA?9?$AAS?$AAV?$AA?$AA@ 000000018001a6f0     libucrt:lcidtoname_downlevel.obj
 0002:00004700       ??_C@_1M@NDBGMMJL@?$AAe?$AAs?$AA?9?$AAH?$AAN?$AA?$AA@ 000000018001a700     libucrt:lcidtoname_downlevel.obj
 0002:00004710       ??_C@_1M@JIJIBHDP@?$AAe?$AAs?$AA?9?$AAN?$AAI?$AA?$AA@ 000000018001a710     libucrt:lcidtoname_downlevel.obj
 0002:00004720       ??_C@_1M@CGFMKEEK@?$AAe?$AAs?$AA?9?$AAP?$AAR?$AA?$AA@ 000000018001a720     libucrt:lcidtoname_downlevel.obj
 0002:00004730       ??_C@_1O@ICJHKIIK@?$AAz?$AAh?$AA?9?$AAC?$AAH?$AAT?$AA?$AA@ 000000018001a730     libucrt:lcidtoname_downlevel.obj
 0002:00004740       ??_C@_15CLNEJCE@?$AAs?$AAr?$AA?$AA@ 000000018001a740     libucrt:lcidtoname_downlevel.obj
 0002:00005590       ??_C@_1M@KAHEKEIG@?$AAa?$AAf?$AA?9?$AAz?$AAa?$AA?$AA@ 000000018001b590     libucrt:lcidtoname_downlevel.obj
 0002:000055a0       ??_C@_1M@GIECOABL@?$AAa?$AAr?$AA?9?$AAa?$AAe?$AA?$AA@ 000000018001b5a0     libucrt:lcidtoname_downlevel.obj
 0002:000055b0       ??_C@_1M@BMLMEKGI@?$AAa?$AAr?$AA?9?$AAb?$AAh?$AA?$AA@ 000000018001b5b0     libucrt:lcidtoname_downlevel.obj
 0002:000055c0       ??_C@_1M@DAPFDGGB@?$AAa?$AAr?$AA?9?$AAd?$AAz?$AA?$AA@ 000000018001b5c0     libucrt:lcidtoname_downlevel.obj
 0002:000055d0       ??_C@_1M@FJNKGKIG@?$AAa?$AAr?$AA?9?$AAe?$AAg?$AA?$AA@ 000000018001b5d0     libucrt:lcidtoname_downlevel.obj
 0002:000055e0       ??_C@_1M@FLGKKCLO@?$AAa?$AAr?$AA?9?$AAi?$AAq?$AA?$AA@ 000000018001b5e0     libucrt:lcidtoname_downlevel.obj
 0002:000055f0       ??_C@_1M@GNDIPALM@?$AAa?$AAr?$AA?9?$AAj?$AAo?$AA?$AA@ 000000018001b5f0     libucrt:lcidtoname_downlevel.obj
 0002:00005600       ??_C@_1M@DDMJFMGJ@?$AAa?$AAr?$AA?9?$AAk?$AAw?$AA?$AA@ 000000018001b600     libucrt:lcidtoname_downlevel.obj
 0002:00005610       ??_C@_1M@EJALMLHM@?$AAa?$AAr?$AA?9?$AAl?$AAb?$AA?$AA@ 000000018001b610     libucrt:lcidtoname_downlevel.obj
 0002:00005620       ??_C@_1M@MOBDBLOC@?$AAa?$AAr?$AA?9?$AAl?$AAy?$AA?$AA@ 000000018001b620     libucrt:lcidtoname_downlevel.obj
 0002:00005630       ??_C@_1M@JAOCLHDH@?$AAa?$AAr?$AA?9?$AAm?$AAa?$AA?$AA@ 000000018001b630     libucrt:lcidtoname_downlevel.obj
 0002:00005640       ??_C@_1M@JHPMKJIE@?$AAa?$AAr?$AA?9?$AAo?$AAm?$AA?$AA@ 000000018001b640     libucrt:lcidtoname_downlevel.obj
 0002:00005650       ??_C@_1M@OEPGHFNH@?$AAa?$AAr?$AA?9?$AAq?$AAa?$AA?$AA@ 000000018001b650     libucrt:lcidtoname_downlevel.obj
 0002:00005660       ??_C@_1M@KJDONENM@?$AAa?$AAr?$AA?9?$AAs?$AAa?$AA?$AA@ 000000018001b660     libucrt:lcidtoname_downlevel.obj
 0002:00005670       ??_C@_1M@DMJDKLKM@?$AAa?$AAr?$AA?9?$AAs?$AAy?$AA?$AA@ 000000018001b670     libucrt:lcidtoname_downlevel.obj
 0002:00005680       ??_C@_1M@OMFIPEDC@?$AAa?$AAr?$AA?9?$AAt?$AAn?$AA?$AA@ 000000018001b680     libucrt:lcidtoname_downlevel.obj
 0002:00005690       ??_C@_1M@IHMHGAON@?$AAa?$AAr?$AA?9?$AAy?$AAe?$AA?$AA@ 000000018001b690     libucrt:lcidtoname_downlevel.obj
 0002:000056a0       ??_C@_1BG@KDCPGJGB@?$AAa?$AAz?$AA?9?$AAa?$AAz?$AA?9?$AAc?$AAy?$AAr?$AAl?$AA?$AA@ 000000018001b6a0     libucrt:lcidtoname_downlevel.obj
 0002:000056b8       ??_C@_1BG@IBCKDDOE@?$AAa?$AAz?$AA?9?$AAa?$AAz?$AA?9?$AAl?$AAa?$AAt?$AAn?$AA?$AA@ 000000018001b6b8     libucrt:lcidtoname_downlevel.obj
 0002:000056d0       ??_C@_1M@EGPFDCPD@?$AAb?$AAe?$AA?9?$AAb?$AAy?$AA?$AA@ 000000018001b6d0     libucrt:lcidtoname_downlevel.obj
 0002:000056e0       ??_C@_1M@PCMGMCGC@?$AAb?$AAg?$AA?9?$AAb?$AAg?$AA?$AA@ 000000018001b6e0     libucrt:lcidtoname_downlevel.obj
 0002:000056f0       ??_C@_1M@BJBMFGOB@?$AAb?$AAn?$AA?9?$AAi?$AAn?$AA?$AA@ 000000018001b6f0     libucrt:lcidtoname_downlevel.obj
 0002:00005700       ??_C@_1BG@EAKMMACD@?$AAb?$AAs?$AA?9?$AAb?$AAa?$AA?9?$AAl?$AAa?$AAt?$AAn?$AA?$AA@ 000000018001b700     libucrt:lcidtoname_downlevel.obj
 0002:00005718       ??_C@_1M@KGADAODK@?$AAc?$AAa?$AA?9?$AAe?$AAs?$AA?$AA@ 000000018001b718     libucrt:lcidtoname_downlevel.obj
 0002:00005728       ??_C@_1M@COAJPDHI@?$AAc?$AAs?$AA?9?$AAc?$AAz?$AA?$AA@ 000000018001b728     libucrt:lcidtoname_downlevel.obj
 0002:00005738       ??_C@_1M@DHBHFONH@?$AAc?$AAy?$AA?9?$AAg?$AAb?$AA?$AA@ 000000018001b738     libucrt:lcidtoname_downlevel.obj
 0002:00005748       ??_C@_1M@IMGKELGA@?$AAd?$AAa?$AA?9?$AAd?$AAk?$AA?$AA@ 000000018001b748     libucrt:lcidtoname_downlevel.obj
 0002:00005758       ??_C@_1M@NNDGDNGA@?$AAd?$AAe?$AA?9?$AAa?$AAt?$AA?$AA@ 000000018001b758     libucrt:lcidtoname_downlevel.obj
 0002:00005768       ??_C@_1M@IKDBHEEM@?$AAd?$AAe?$AA?9?$AAc?$AAh?$AA?$AA@ 000000018001b768     libucrt:lcidtoname_downlevel.obj
 0002:00005778       ??_C@_1M@GFFOJMCJ@?$AAd?$AAe?$AA?9?$AAd?$AAe?$AA?$AA@ 000000018001b778     libucrt:lcidtoname_downlevel.obj
 0002:00005788       ??_C@_1M@MDNLKBPM@?$AAd?$AAe?$AA?9?$AAl?$AAi?$AA?$AA@ 000000018001b788     libucrt:lcidtoname_downlevel.obj
 0002:00005798       ??_C@_1M@NJBEEJNL@?$AAd?$AAe?$AA?9?$AAl?$AAu?$AA?$AA@ 000000018001b798     libucrt:lcidtoname_downlevel.obj
 0002:000057a8       ??_C@_1O@GNNELBAP@?$AAd?$AAi?$AAv?$AA?9?$AAm?$AAv?$AA?$AA@ 000000018001b7a8     libucrt:lcidtoname_downlevel.obj
 0002:000057b8       ??_C@_1M@EJLEOGAE@?$AAe?$AAl?$AA?9?$AAg?$AAr?$AA?$AA@ 000000018001b7b8     libucrt:lcidtoname_downlevel.obj
 0002:000057c8       ??_C@_1M@GMPONJN@?$AAe?$AAn?$AA?9?$AAa?$AAu?$AA?$AA@ 000000018001b7c8     libucrt:lcidtoname_downlevel.obj
 0002:000057d8       ??_C@_1M@NIDIIPGF@?$AAe?$AAn?$AA?9?$AAb?$AAz?$AA?$AA@ 000000018001b7d8     libucrt:lcidtoname_downlevel.obj
 0002:000057e8       ??_C@_1M@JEHMIMFO@?$AAe?$AAn?$AA?9?$AAc?$AAa?$AA?$AA@ 000000018001b7e8     libucrt:lcidtoname_downlevel.obj
 0002:000057f8       ??_C@_1M@IGMJCDLA@?$AAe?$AAn?$AA?9?$AAc?$AAb?$AA?$AA@ 000000018001b7f8     libucrt:lcidtoname_downlevel.obj
 0002:00005808       ??_C@_1M@BNFIGBKG@?$AAe?$AAn?$AA?9?$AAg?$AAb?$AA?$AA@ 000000018001b808     libucrt:lcidtoname_downlevel.obj
 0002:00005818       ??_C@_1M@LKIFDIGP@?$AAe?$AAn?$AA?9?$AAi?$AAe?$AA?$AA@ 000000018001b818     libucrt:lcidtoname_downlevel.obj
 0002:00005828       ??_C@_1M@PJKFGCCO@?$AAe?$AAn?$AA?9?$AAj?$AAm?$AA?$AA@ 000000018001b828     libucrt:lcidtoname_downlevel.obj
 0002:00005838       ??_C@_1M@KPPKEPBO@?$AAe?$AAn?$AA?9?$AAn?$AAz?$AA?$AA@ 000000018001b838     libucrt:lcidtoname_downlevel.obj
 0002:00005848       ??_C@_1M@GMDGLDOB@?$AAe?$AAn?$AA?9?$AAp?$AAh?$AA?$AA@ 000000018001b848     libucrt:lcidtoname_downlevel.obj
 0002:00005858       ??_C@_1M@ONGIBJNA@?$AAe?$AAn?$AA?9?$AAt?$AAt?$AA?$AA@ 000000018001b858     libucrt:lcidtoname_downlevel.obj
 0002:00005868       ??_C@_1M@LLODPCMM@?$AAe?$AAn?$AA?9?$AAu?$AAs?$AA?$AA@ 000000018001b868     libucrt:lcidtoname_downlevel.obj
 0002:00005878       ??_C@_1M@LAKFNPAN@?$AAe?$AAn?$AA?9?$AAz?$AAa?$AA?$AA@ 000000018001b878     libucrt:lcidtoname_downlevel.obj
 0002:00005888       ??_C@_1M@MFNHNHEO@?$AAe?$AAn?$AA?9?$AAz?$AAw?$AA?$AA@ 000000018001b888     libucrt:lcidtoname_downlevel.obj
 0002:00005898       ??_C@_1M@EJEINPHM@?$AAe?$AAs?$AA?9?$AAa?$AAr?$AA?$AA@ 000000018001b898     libucrt:lcidtoname_downlevel.obj
 0002:000058a8       ??_C@_1M@GNKPCCJA@?$AAe?$AAs?$AA?9?$AAb?$AAo?$AA?$AA@ 000000018001b8a8     libucrt:lcidtoname_downlevel.obj
 0002:000058b8       ??_C@_1M@LEEGFONL@?$AAe?$AAs?$AA?9?$AAc?$AAl?$AA?$AA@ 000000018001b8b8     libucrt:lcidtoname_downlevel.obj
 0002:000058c8       ??_C@_1M@KGPDPBDF@?$AAe?$AAs?$AA?9?$AAc?$AAo?$AA?$AA@ 000000018001b8c8     libucrt:lcidtoname_downlevel.obj
 0002:000058d8       ??_C@_1M@EIAHOHH@?$AAe?$AAs?$AA?9?$AAc?$AAr?$AA?$AA@ 000000018001b8d8     libucrt:lcidtoname_downlevel.obj
 0002:000058e8       ??_C@_1M@LLPGMBIN@?$AAe?$AAs?$AA?9?$AAd?$AAo?$AA?$AA@ 000000018001b8e8     libucrt:lcidtoname_downlevel.obj
 0002:000058f8       ??_C@_1M@DKHMKNJA@?$AAe?$AAs?$AA?9?$AAe?$AAc?$AA?$AA@ 000000018001b8f8     libucrt:lcidtoname_downlevel.obj
 0002:00005908       ??_C@_1M@GKGFPKAP@?$AAe?$AAs?$AA?9?$AAe?$AAs?$AA?$AA@ 000000018001b908     libucrt:lcidtoname_downlevel.obj
 0002:00005918       ??_C@_1M@LKHKGDLN@?$AAe?$AAs?$AA?9?$AAg?$AAt?$AA?$AA@ 000000018001b918     libucrt:lcidtoname_downlevel.obj
 0002:00005928       ??_C@_1M@HEIIGGJD@?$AAe?$AAs?$AA?9?$AAh?$AAn?$AA?$AA@ 000000018001b928     libucrt:lcidtoname_downlevel.obj
 0002:00005938       ??_C@_1M@FBDHPPGD@?$AAe?$AAs?$AA?9?$AAm?$AAx?$AA?$AA@ 000000018001b938     libucrt:lcidtoname_downlevel.obj
 0002:00005948       ??_C@_1M@DPAGLNDH@?$AAe?$AAs?$AA?9?$AAn?$AAi?$AA?$AA@ 000000018001b948     libucrt:lcidtoname_downlevel.obj
 0002:00005958       ??_C@_1M@MDGOPGDD@?$AAe?$AAs?$AA?9?$AAp?$AAa?$AA?$AA@ 000000018001b958     libucrt:lcidtoname_downlevel.obj
 0002:00005968       ??_C@_1M@EMAMGBGE@?$AAe?$AAs?$AA?9?$AAp?$AAe?$AA?$AA@ 000000018001b968     libucrt:lcidtoname_downlevel.obj
 0002:00005978       ??_C@_1M@IBMCAOEC@?$AAe?$AAs?$AA?9?$AAp?$AAr?$AA?$AA@ 000000018001b978     libucrt:lcidtoname_downlevel.obj
 0002:00005988       ??_C@_1M@FGMDIJED@?$AAe?$AAs?$AA?9?$AAp?$AAy?$AA?$AA@ 000000018001b988     libucrt:lcidtoname_downlevel.obj
 0002:00005998       ??_C@_1M@IIDEOLLL@?$AAe?$AAs?$AA?9?$AAs?$AAv?$AA?$AA@ 000000018001b998     libucrt:lcidtoname_downlevel.obj
 0002:000059a8       ??_C@_1M@GAOBIPA@?$AAe?$AAs?$AA?9?$AAu?$AAy?$AA?$AA@ 000000018001b9a8     libucrt:lcidtoname_downlevel.obj
 0002:000059b8       ??_C@_1M@JKFFICHJ@?$AAe?$AAs?$AA?9?$AAv?$AAe?$AA?$AA@ 000000018001b9b8     libucrt:lcidtoname_downlevel.obj
 0002:000059c8       ??_C@_1M@PNMLOJDF@?$AAe?$AAt?$AA?9?$AAe?$AAe?$AA?$AA@ 000000018001b9c8     libucrt:lcidtoname_downlevel.obj
 0002:000059d8       ??_C@_1M@GHHLIKEI@?$AAe?$AAu?$AA?9?$AAe?$AAs?$AA?$AA@ 000000018001b9d8     libucrt:lcidtoname_downlevel.obj
 0002:000059e8       ??_C@_1M@PBNONODE@?$AAf?$AAa?$AA?9?$AAi?$AAr?$AA?$AA@ 000000018001b9e8     libucrt:lcidtoname_downlevel.obj
 0002:000059f8       ??_C@_1M@JEEHPMIL@?$AAf?$AAi?$AA?9?$AAf?$AAi?$AA?$AA@ 000000018001b9f8     libucrt:lcidtoname_downlevel.obj
 0002:00005a08       ??_C@_1M@LMDCNDBA@?$AAf?$AAo?$AA?9?$AAf?$AAo?$AA?$AA@ 000000018001ba08     libucrt:lcidtoname_downlevel.obj
 0002:00005a18       ??_C@_1M@JKEOHLDK@?$AAf?$AAr?$AA?9?$AAb?$AAe?$AA?$AA@ 000000018001ba18     libucrt:lcidtoname_downlevel.obj
 0002:00005a28       ??_C@_1M@NOHADPMI@?$AAf?$AAr?$AA?9?$AAc?$AAa?$AA?$AA@ 000000018001ba28     libucrt:lcidtoname_downlevel.obj
 0002:00005a38       ??_C@_1M@KDHIHAEC@?$AAf?$AAr?$AA?9?$AAc?$AAh?$AA?$AA@ 000000018001ba38     libucrt:lcidtoname_downlevel.obj
 0002:00005a48       ??_C@_1M@MMBBFGAK@?$AAf?$AAr?$AA?9?$AAf?$AAr?$AA?$AA@ 000000018001ba48     libucrt:lcidtoname_downlevel.obj
 0002:00005a58       ??_C@_1M@PAFNENNF@?$AAf?$AAr?$AA?9?$AAl?$AAu?$AA?$AA@ 000000018001ba58     libucrt:lcidtoname_downlevel.obj
 0002:00005a68       ??_C@_1M@EOHDJGDD@?$AAf?$AAr?$AA?9?$AAm?$AAc?$AA?$AA@ 000000018001ba68     libucrt:lcidtoname_downlevel.obj
 0002:00005a78       ??_C@_1M@FAPLLOPF@?$AAg?$AAl?$AA?9?$AAe?$AAs?$AA?$AA@ 000000018001ba78     libucrt:lcidtoname_downlevel.obj
 0002:00005a88       ??_C@_1M@FOPBFLOO@?$AAg?$AAu?$AA?9?$AAi?$AAn?$AA?$AA@ 000000018001ba88     libucrt:lcidtoname_downlevel.obj
 0002:00005a98       ??_C@_1M@KBMCINPM@?$AAh?$AAe?$AA?9?$AAi?$AAl?$AA?$AA@ 000000018001ba98     libucrt:lcidtoname_downlevel.obj
 0002:00005aa8       ??_C@_1M@BBPHKFPJ@?$AAh?$AAi?$AA?9?$AAi?$AAn?$AA?$AA@ 000000018001baa8     libucrt:lcidtoname_downlevel.obj
 0002:00005ab8       ??_C@_1M@PMBNDPHD@?$AAh?$AAr?$AA?9?$AAb?$AAa?$AA?$AA@ 000000018001bab8     libucrt:lcidtoname_downlevel.obj
 0002:00005ac8       ??_C@_1M@BPCKOEGE@?$AAh?$AAr?$AA?9?$AAh?$AAr?$AA?$AA@ 000000018001bac8     libucrt:lcidtoname_downlevel.obj
 0002:00005ad8       ??_C@_1M@GACBMHKE@?$AAh?$AAu?$AA?9?$AAh?$AAu?$AA?$AA@ 000000018001bad8     libucrt:lcidtoname_downlevel.obj
 0002:00005ae8       ??_C@_1M@MILPAJJC@?$AAh?$AAy?$AA?9?$AAa?$AAm?$AA?$AA@ 000000018001bae8     libucrt:lcidtoname_downlevel.obj
 0002:00005af8       ??_C@_1M@BABBICEC@?$AAi?$AAd?$AA?9?$AAi?$AAd?$AA?$AA@ 000000018001baf8     libucrt:lcidtoname_downlevel.obj
 0002:00005b08       ??_C@_1M@BIKNHHPF@?$AAi?$AAs?$AA?9?$AAi?$AAs?$AA?$AA@ 000000018001bb08     libucrt:lcidtoname_downlevel.obj
 0002:00005b18       ??_C@_1M@NMPCJPHE@?$AAi?$AAt?$AA?9?$AAc?$AAh?$AA?$AA@ 000000018001bb18     libucrt:lcidtoname_downlevel.obj
 0002:00005b28       ??_C@_1M@GHKGFEDF@?$AAi?$AAt?$AA?9?$AAi?$AAt?$AA?$AA@ 000000018001bb28     libucrt:lcidtoname_downlevel.obj
 0002:00005b38       ??_C@_1M@NIEJCJJA@?$AAj?$AAa?$AA?9?$AAj?$AAp?$AA?$AA@ 000000018001bb38     libucrt:lcidtoname_downlevel.obj
 0002:00005b48       ??_C@_1M@JILFNBIM@?$AAk?$AAa?$AA?9?$AAg?$AAe?$AA?$AA@ 000000018001bb48     libucrt:lcidtoname_downlevel.obj
 0002:00005b58       ??_C@_1M@PACPMGPH@?$AAk?$AAk?$AA?9?$AAk?$AAz?$AA?$AA@ 000000018001bb58     libucrt:lcidtoname_downlevel.obj
 0002:00005b68       ??_C@_1M@IELFGMHA@?$AAk?$AAn?$AA?9?$AAi?$AAn?$AA?$AA@ 000000018001bb68     libucrt:lcidtoname_downlevel.obj
 0002:00005b78       ??_C@_1O@IBBJHCH@?$AAk?$AAo?$AAk?$AA?9?$AAi?$AAn?$AA?$AA@ 000000018001bb78     libucrt:lcidtoname_downlevel.obj
 0002:00005b88       ??_C@_1M@DMHAEOGC@?$AAk?$AAo?$AA?9?$AAk?$AAr?$AA?$AA@ 000000018001bb88     libucrt:lcidtoname_downlevel.obj
 0002:00005b98       ??_C@_1M@HBAHBIGA@?$AAk?$AAy?$AA?9?$AAk?$AAg?$AA?$AA@ 000000018001bb98     libucrt:lcidtoname_downlevel.obj
 0002:00005ba8       ??_C@_1M@KPMILCJG@?$AAl?$AAt?$AA?9?$AAl?$AAt?$AA?$AA@ 000000018001bba8     libucrt:lcidtoname_downlevel.obj
 0002:00005bb8       ??_C@_1M@BDEKKCA@?$AAl?$AAv?$AA?9?$AAl?$AAv?$AA?$AA@ 000000018001bbb8     libucrt:lcidtoname_downlevel.obj
 0002:00005bc8       ??_C@_1M@ELCKCCJJ@?$AAm?$AAi?$AA?9?$AAn?$AAz?$AA?$AA@ 000000018001bbc8     libucrt:lcidtoname_downlevel.obj
 0002:00005bd8       ??_C@_1M@CBOOLAPA@?$AAm?$AAk?$AA?9?$AAm?$AAk?$AA?$AA@ 000000018001bbd8     libucrt:lcidtoname_downlevel.obj
 0002:00005be8       ??_C@_1M@GPHNBJKN@?$AAm?$AAl?$AA?9?$AAi?$AAn?$AA?$AA@ 000000018001bbe8     libucrt:lcidtoname_downlevel.obj
 0002:00005bf8       ??_C@_1M@PABJILIG@?$AAm?$AAn?$AA?9?$AAm?$AAn?$AA?$AA@ 000000018001bbf8     libucrt:lcidtoname_downlevel.obj
 0002:00005c08       ??_C@_1M@FGBKKIPG@?$AAm?$AAr?$AA?9?$AAi?$AAn?$AA?$AA@ 000000018001bc08     libucrt:lcidtoname_downlevel.obj
 0002:00005c18       ??_C@_1M@NDBPDDAL@?$AAm?$AAs?$AA?9?$AAb?$AAn?$AA?$AA@ 000000018001bc18     libucrt:lcidtoname_downlevel.obj
 0002:00005c28       ??_C@_1M@OPIHOOPI@?$AAm?$AAs?$AA?9?$AAm?$AAy?$AA?$AA@ 000000018001bc28     libucrt:lcidtoname_downlevel.obj
 0002:00005c38       ??_C@_1M@PPDBCNFM@?$AAm?$AAt?$AA?9?$AAm?$AAt?$AA?$AA@ 000000018001bc38     libucrt:lcidtoname_downlevel.obj
 0002:00005c48       ??_C@_1M@KDJDKMDD@?$AAn?$AAb?$AA?9?$AAn?$AAo?$AA?$AA@ 000000018001bc48     libucrt:lcidtoname_downlevel.obj
 0002:00005c58       ??_C@_1M@KFCFLMJP@?$AAn?$AAl?$AA?9?$AAb?$AAe?$AA?$AA@ 000000018001bc58     libucrt:lcidtoname_downlevel.obj
 0002:00005c68       ??_C@_1M@KPOPDDGO@?$AAn?$AAl?$AA?9?$AAn?$AAl?$AA?$AA@ 000000018001bc68     libucrt:lcidtoname_downlevel.obj
 0002:00005c78       ??_C@_1M@LJKPEMLN@?$AAn?$AAn?$AA?9?$AAn?$AAo?$AA?$AA@ 000000018001bc78     libucrt:lcidtoname_downlevel.obj
 0002:00005c88       ??_C@_1M@BDGHHBFL@?$AAn?$AAs?$AA?9?$AAz?$AAa?$AA?$AA@ 000000018001bc88     libucrt:lcidtoname_downlevel.obj
 0002:00005c98       ??_C@_1M@IDEHOAP@?$AAp?$AAa?$AA?9?$AAi?$AAn?$AA?$AA@ 000000018001bc98     libucrt:lcidtoname_downlevel.obj
 0002:00005ca8       ??_C@_1M@HDBKGOGH@?$AAp?$AAl?$AA?9?$AAp?$AAl?$AA?$AA@ 000000018001bca8     libucrt:lcidtoname_downlevel.obj
 0002:00005cb8       ??_C@_1M@LJLLCMEH@?$AAp?$AAt?$AA?9?$AAb?$AAr?$AA?$AA@ 000000018001bcb8     libucrt:lcidtoname_downlevel.obj
 0002:00005cc8       ??_C@_1M@NCMONAAL@?$AAp?$AAt?$AA?9?$AAp?$AAt?$AA?$AA@ 000000018001bcc8     libucrt:lcidtoname_downlevel.obj
 0002:00005cd8       ??_C@_1O@EAKMAJDN@?$AAq?$AAu?$AAz?$AA?9?$AAb?$AAo?$AA?$AA@ 000000018001bcd8     libucrt:lcidtoname_downlevel.obj
 0002:00005ce8       ??_C@_1O@BHHPIGDN@?$AAq?$AAu?$AAz?$AA?9?$AAe?$AAc?$AA?$AA@ 000000018001bce8     libucrt:lcidtoname_downlevel.obj
 0002:00005cf8       ??_C@_1O@GBAPEKMJ@?$AAq?$AAu?$AAz?$AA?9?$AAp?$AAe?$AA?$AA@ 000000018001bcf8     libucrt:lcidtoname_downlevel.obj
 0002:00005d08       ??_C@_1M@CLGLEFBO@?$AAr?$AAo?$AA?9?$AAr?$AAo?$AA?$AA@ 000000018001bd08     libucrt:lcidtoname_downlevel.obj
 0002:00005d18       ??_C@_1M@CEEDODME@?$AAr?$AAu?$AA?9?$AAr?$AAu?$AA?$AA@ 000000018001bd18     libucrt:lcidtoname_downlevel.obj
 0002:00005d28       ??_C@_1M@HPKKKMPP@?$AAs?$AAa?$AA?9?$AAi?$AAn?$AA?$AA@ 000000018001bd28     libucrt:lcidtoname_downlevel.obj
 0002:00005d38       ??_C@_1M@BKMAIGOJ@?$AAs?$AAe?$AA?9?$AAf?$AAi?$AA?$AA@ 000000018001bd38     libucrt:lcidtoname_downlevel.obj
 0002:00005d48       ??_C@_1M@NDPIFLFI@?$AAs?$AAe?$AA?9?$AAn?$AAo?$AA?$AA@ 000000018001bd48     libucrt:lcidtoname_downlevel.obj
 0002:00005d58       ??_C@_1M@DANKKHJ@?$AAs?$AAe?$AA?9?$AAs?$AAe?$AA?$AA@ 000000018001bd58     libucrt:lcidtoname_downlevel.obj
 0002:00005d68       ??_C@_1M@PNBLONPJ@?$AAs?$AAk?$AA?9?$AAs?$AAk?$AA?$AA@ 000000018001bd68     libucrt:lcidtoname_downlevel.obj
 0002:00005d78       ??_C@_1M@LFMODOAL@?$AAs?$AAl?$AA?9?$AAs?$AAi?$AA?$AA@ 000000018001bd78     libucrt:lcidtoname_downlevel.obj
 0002:00005d88       ??_C@_1O@DFKOMPG@?$AAs?$AAm?$AAa?$AA?9?$AAn?$AAo?$AA?$AA@ 000000018001bd88     libucrt:lcidtoname_downlevel.obj
 0002:00005d98       ??_C@_1O@NDKPBNNH@?$AAs?$AAm?$AAa?$AA?9?$AAs?$AAe?$AA?$AA@ 000000018001bd98     libucrt:lcidtoname_downlevel.obj
 0002:00005da8       ??_C@_1O@PLLKBHAB@?$AAs?$AAm?$AAj?$AA?9?$AAn?$AAo?$AA?$AA@ 000000018001bda8     libucrt:lcidtoname_downlevel.obj
 0002:00005db8       ??_C@_1O@CLEPOGCA@?$AAs?$AAm?$AAj?$AA?9?$AAs?$AAe?$AA?$AA@ 000000018001bdb8     libucrt:lcidtoname_downlevel.obj
 0002:00005dc8       ??_C@_1O@DLGJGKMK@?$AAs?$AAm?$AAn?$AA?9?$AAf?$AAi?$AA?$AA@ 000000018001bdc8     libucrt:lcidtoname_downlevel.obj
 0002:00005dd8       ??_C@_1O@OJDJGAJC@?$AAs?$AAm?$AAs?$AA?9?$AAf?$AAi?$AA?$AA@ 000000018001bdd8     libucrt:lcidtoname_downlevel.obj
 0002:00005de8       ??_C@_1M@BOFOGHPB@?$AAs?$AAq?$AA?9?$AAa?$AAl?$AA?$AA@ 000000018001bde8     libucrt:lcidtoname_downlevel.obj
 0002:00005df8       ??_C@_1BG@LJBBIPGB@?$AAs?$AAr?$AA?9?$AAb?$AAa?$AA?9?$AAc?$AAy?$AAr?$AAl?$AA?$AA@ 000000018001bdf8     libucrt:lcidtoname_downlevel.obj
 0002:00005e10       ??_C@_1BG@JLBENFOE@?$AAs?$AAr?$AA?9?$AAb?$AAa?$AA?9?$AAl?$AAa?$AAt?$AAn?$AA?$AA@ 000000018001be10     libucrt:lcidtoname_downlevel.obj
 0002:00005e28       ??_C@_1BG@KODPNHE@?$AAs?$AAr?$AA?9?$AAs?$AAp?$AA?9?$AAc?$AAy?$AAr?$AAl?$AA?$AA@ 000000018001be28     libucrt:lcidtoname_downlevel.obj
 0002:00005e40       ??_C@_1BG@CIOGKHPB@?$AAs?$AAr?$AA?9?$AAs?$AAp?$AA?9?$AAl?$AAa?$AAt?$AAn?$AA?$AA@ 000000018001be40     libucrt:lcidtoname_downlevel.obj
 0002:00005e58       ??_C@_1M@NGFJLMAC@?$AAs?$AAv?$AA?9?$AAf?$AAi?$AA?$AA@ 000000018001be58     libucrt:lcidtoname_downlevel.obj
 0002:00005e68       ??_C@_1M@MPJEJAJC@?$AAs?$AAv?$AA?9?$AAs?$AAe?$AA?$AA@ 000000018001be68     libucrt:lcidtoname_downlevel.obj
 0002:00005e78       ??_C@_1M@MPNDHLFK@?$AAs?$AAw?$AA?9?$AAk?$AAe?$AA?$AA@ 000000018001be78     libucrt:lcidtoname_downlevel.obj
 0002:00005e88       ??_C@_1O@KOHBJJI@?$AAs?$AAy?$AAr?$AA?9?$AAs?$AAy?$AA?$AA@ 000000018001be88     libucrt:lcidtoname_downlevel.obj
 0002:00005e98       ??_C@_1M@LDCEFHA@?$AAt?$AAa?$AA?9?$AAi?$AAn?$AA?$AA@ 000000018001be98     libucrt:lcidtoname_downlevel.obj
 0002:00005ea8       ??_C@_1M@CNJOFAK@?$AAt?$AAe?$AA?9?$AAi?$AAn?$AA?$AA@ 000000018001bea8     libucrt:lcidtoname_downlevel.obj
 0002:00005eb8       ??_C@_1M@GNAECACD@?$AAt?$AAh?$AA?9?$AAt?$AAh?$AA?$AA@ 000000018001beb8     libucrt:lcidtoname_downlevel.obj
 0002:00005ec8       ??_C@_1M@CHBIHOJO@?$AAt?$AAn?$AA?9?$AAz?$AAa?$AA?$AA@ 000000018001bec8     libucrt:lcidtoname_downlevel.obj
 0002:00005ed8       ??_C@_1M@GCCMIGPJ@?$AAt?$AAr?$AA?9?$AAt?$AAr?$AA?$AA@ 000000018001bed8     libucrt:lcidtoname_downlevel.obj
 0002:00005ee8       ??_C@_1M@CELMCNBK@?$AAt?$AAt?$AA?9?$AAr?$AAu?$AA?$AA@ 000000018001bee8     libucrt:lcidtoname_downlevel.obj
 0002:00005ef8       ??_C@_1M@KLMCELGA@?$AAu?$AAk?$AA?9?$AAu?$AAa?$AA?$AA@ 000000018001bef8     libucrt:lcidtoname_downlevel.obj
 0002:00005f08       ??_C@_1M@EPAJJAJF@?$AAu?$AAr?$AA?9?$AAp?$AAk?$AA?$AA@ 000000018001bf08     libucrt:lcidtoname_downlevel.obj
 0002:00005f18       ??_C@_1BG@GEGPMCDJ@?$AAu?$AAz?$AA?9?$AAu?$AAz?$AA?9?$AAc?$AAy?$AAr?$AAl?$AA?$AA@ 000000018001bf18     libucrt:lcidtoname_downlevel.obj
 0002:00005f30       ??_C@_1BG@EGGKJILM@?$AAu?$AAz?$AA?9?$AAu?$AAz?$AA?9?$AAl?$AAa?$AAt?$AAn?$AA?$AA@ 000000018001bf30     libucrt:lcidtoname_downlevel.obj
 0002:00005f48       ??_C@_1M@GFOCLFF@?$AAv?$AAi?$AA?9?$AAv?$AAn?$AA?$AA@ 000000018001bf48     libucrt:lcidtoname_downlevel.obj
 0002:00005f58       ??_C@_1M@CPAMEDFI@?$AAx?$AAh?$AA?9?$AAz?$AAa?$AA?$AA@ 000000018001bf58     libucrt:lcidtoname_downlevel.obj
 0002:00005f68       ??_C@_1O@EBKIFIGN@?$AAz?$AAh?$AA?9?$AAc?$AAh?$AAs?$AA?$AA@ 000000018001bf68     libucrt:lcidtoname_downlevel.obj
 0002:00005f78       ??_C@_1O@NMHPGANE@?$AAz?$AAh?$AA?9?$AAc?$AAh?$AAt?$AA?$AA@ 000000018001bf78     libucrt:lcidtoname_downlevel.obj
 0002:00005f88       ??_C@_1M@LPINJOMC@?$AAz?$AAh?$AA?9?$AAc?$AAn?$AA?$AA@ 000000018001bf88     libucrt:lcidtoname_downlevel.obj
 0002:00005f98       ??_C@_1M@OCJEJODD@?$AAz?$AAh?$AA?9?$AAh?$AAk?$AA?$AA@ 000000018001bf98     libucrt:lcidtoname_downlevel.obj
 0002:00005fa8       ??_C@_1M@DNDLJINH@?$AAz?$AAh?$AA?9?$AAm?$AAo?$AA?$AA@ 000000018001bfa8     libucrt:lcidtoname_downlevel.obj
 0002:00005fb8       ??_C@_1M@MBFDNDND@?$AAz?$AAh?$AA?9?$AAs?$AAg?$AA?$AA@ 000000018001bfb8     libucrt:lcidtoname_downlevel.obj
 0002:00005fc8       ??_C@_1M@IMEPLEPE@?$AAz?$AAh?$AA?9?$AAt?$AAw?$AA?$AA@ 000000018001bfc8     libucrt:lcidtoname_downlevel.obj
 0002:00005fd8       ??_C@_1M@BBGHNHJP@?$AAz?$AAu?$AA?9?$AAz?$AAa?$AA?$AA@ 000000018001bfd8     libucrt:lcidtoname_downlevel.obj
 0002:00005fe4       ??_C@_00CNPNBAHC@?$AA@     000000018001bfe4     libucrt:mbrtowc.obj
 0002:00005ff0       ?large_power_data@?1??multiply_by_power_of_ten@__crt_strtox@@YA_NAEAUbig_integer@2@I@Z@4QBIB 000000018001bff0     libucrt:cfout.obj
 0002:00006900       ?large_power_indices@?1??multiply_by_power_of_ten@__crt_strtox@@YA_NAEAUbig_integer@2@I@Z@4QBUunpack_index@?1??12@YA_N0I@Z@B 000000018001c900     libucrt:cfout.obj
 0002:00006998       ?small_powers_of_ten@?1??multiply_by_power_of_ten@__crt_strtox@@YA_NAEAUbig_integer@2@I@Z@4QBIB 000000018001c998     libucrt:cfout.obj
 0002:000069bc       ??_C@_01GBGANLPD@0?$AA@    000000018001c9bc     libucrt:cfout.obj
 0002:000069c0       ??_C@_05DNEBIAHO@1?$CDINF?$AA@ 000000018001c9c0     libucrt:cfout.obj
 0002:000069c8       ??_C@_06IMKFLFPG@1?$CDQNAN?$AA@ 000000018001c9c8     libucrt:cfout.obj
 0002:000069d0       ??_C@_06PGGFOGJG@1?$CDSNAN?$AA@ 000000018001c9d0     libucrt:cfout.obj
 0002:000069d8       ??_C@_05PHHOCPM@1?$CDIND?$AA@ 000000018001c9d8     libucrt:cfout.obj
 0002:000069e0       __real@3ff0000000000000    000000018001c9e0     libucrt:ceil.obj
 0002:00006c40       ??_C@_1BA@BALFACEM@?$AAC?$AAO?$AAN?$AAO?$AAU?$AAT?$AA$?$AA?$AA@ 000000018001cc40     libucrt:initcon.obj
 0002:00006c50       __log10_256_lead           000000018001cc50     libucrt:log10_256_lead_tail_table.obj
 0002:00007460       __log10_256_tail           000000018001d460     libucrt:log10_256_lead_tail_table.obj
 0002:00007c70       __log_F_inv_qword          000000018001dc70     libucrt:log_f_inv_qword_table.obj
 0002:00008480       ??_C@_05HGHHAHAP@log10?$AA@ 000000018001e480     libucrt:log_special.obj
 0002:000084a0       ??_C@_1BK@DBDEIDLH@?$AAK?$AAE?$AAR?$AAN?$AAE?$AAL?$AA3?$AA2?$AA?4?$AAD?$AAL?$AAL@ 000000018001e4a0     DelayImp:delayhlp.obj
 0002:000084c0       ??_C@_0BI@OMNLIJDB@AcquireSRWLockExclusive@ 000000018001e4c0     DelayImp:delayhlp.obj
 0002:000084d8       ??_C@_0BI@HMIEPCNJ@ReleaseSRWLockExclusive@ 000000018001e4d8     DelayImp:delayhlp.obj
 0002:000084f0       __pfnDliFailureHook2       000000018001e4f0     DelayImp:delayhk1.obj
 0002:00008500       _load_config_used          000000018001e500     LIBCMT:loadcfg.obj
 0002:00008600       ??_C@_0IB@NNDGOOOG@c?3?2users?2iain?2documents?2github?2@ 000000018001e600     addon.obj
 0002:00008684       ??_C@_05ONJGPJEO@addon@    000000018001e684     addon.obj
 0002:000086a0       __pfnDliNotifyHook2        000000018001e6a0     win_delay_load_hook.obj
 0002:000086a8       ??_7HashFn@@6B@            000000018001e6a8     addon.obj
 0002:000086c0       ??_C@_1IA@GNNFCIGI@?$AAc?$AA?3?$AA?2?$AAu?$AAs?$AAe?$AAr?$AAs?$AA?2?$AAi?$AAa?$AAi?$AAn?$AA?2?$AA?4@ 000000018001e6c0     hash_set_wrap.obj
 0002:00008740       ??_C@_1CO@EGNPJLKI@?$AAp?$AAe?$AAr?$AAs?$AAi?$AAs?$AAt?$AAe?$AAn?$AAt?$AA?$CI?$AA?$CJ?$AA?4?$AAI?$AAs@ 000000018001e740     hash_set_wrap.obj
 0002:00008770       ??_C@_1EC@NOLNIHNJ@?$AAh?$AAa?$AAn?$AAd?$AAl?$AAe?$AA?9?$AA?$DO?$AAI?$AAn?$AAt?$AAe?$AAr?$AAn?$AAa@ 000000018001e770     hash_set_wrap.obj
 0002:000087b8       ??_C@_1DA@FBGAEOIO@?$AA?$CB?$AAp?$AAe?$AAr?$AAs?$AAi?$AAs?$AAt?$AAe?$AAn?$AAt?$AA?$CI?$AA?$CJ?$AA?4?$AAI@ 000000018001e7b8     hash_set_wrap.obj
 0002:000087e8       ??_C@_1CO@JCKLEFMA@?$AA?$CB?$AAp?$AAe?$AAr?$AAs?$AAi?$AAs?$AAt?$AAe?$AAn?$AAt?$AA?$CI?$AA?$CJ?$AA?4?$AAI@ 000000018001e7e8     hash_set_wrap.obj
 0002:00008818       ??_C@_1BE@GMLLOIPJ@?$AAr?$AAe?$AAf?$AAs?$AA_?$AA?5?$AA?$DO?$AA?5?$AA0@ 000000018001e818     hash_set_wrap.obj
 0002:00008830       ??_C@_1CC@GBFLAAPF@?$AAw?$AAr?$AAa?$AAp?$AA?9?$AA?$DO?$AAr?$AAe?$AAf?$AAs?$AA_?$AA?5?$AA?$DN?$AA?$DN?$AA?5@ 000000018001e830     hash_set_wrap.obj
 0002:00008858       ??_C@_07LFGHOIAJ@HashSet@  000000018001e858     hash_set_wrap.obj
 0002:00008860       ??_C@_03BDGOHNNK@add@      000000018001e860     hash_set_wrap.obj
 0002:00008864       ??_C@_06OGCODMJI@exists@   000000018001e864     hash_set_wrap.obj
 0002:00008870       ??_C@_1CE@IAEMMFJ@?$AA?$CB?$AAh?$AAa?$AAn?$AAd?$AAl?$AAe?$AA?4?$AAI?$AAs?$AAE?$AAm?$AAp?$AAt?$AAy@ 000000018001e870     hash_set_wrap.obj
 0002:00008898       ??_7ObjectWrap@node@@6B@   000000018001e898     hash_set_wrap.obj
 0002:000088b0       ??_7HashSetWrap@0@6B@      000000018001e8b0     hash_set_wrap.obj
 0002:000088c8       ??_C@_08HCOMDCCD@iojs?4exe@ 000000018001e8c8     win_delay_load_hook.obj
 0002:000088d8       ??_C@_08JDDNMFDB@node?4exe@ 000000018001e8d8     win_delay_load_hook.obj
 0002:00008960       ??_R4exception@std@@6B@    000000018001e960     LIBCMT:throw_bad_alloc.obj
 0002:00008988       ??_R3exception@std@@8      000000018001e988     LIBCMT:throw_bad_alloc.obj
 0002:000089a0       ??_R2exception@std@@8      000000018001e9a0     LIBCMT:throw_bad_alloc.obj
 0002:000089b0       ??_R1A@?0A@EA@exception@std@@8 000000018001e9b0     LIBCMT:throw_bad_alloc.obj
 0002:000089d8       ??_R4bad_alloc@std@@6B@    000000018001e9d8     LIBCMT:throw_bad_alloc.obj
 0002:00008a00       ??_R3bad_alloc@std@@8      000000018001ea00     LIBCMT:throw_bad_alloc.obj
 0002:00008a18       ??_R2bad_alloc@std@@8      000000018001ea18     LIBCMT:throw_bad_alloc.obj
 0002:00008a30       ??_R1A@?0A@EA@bad_alloc@std@@8 000000018001ea30     LIBCMT:throw_bad_alloc.obj
 0002:00008a58       ??_R4bad_array_new_length@std@@6B@ 000000018001ea58     LIBCMT:throw_bad_alloc.obj
 0002:00008a80       ??_R3bad_array_new_length@std@@8 000000018001ea80     LIBCMT:throw_bad_alloc.obj
 0002:00008a98       ??_R2bad_array_new_length@std@@8 000000018001ea98     LIBCMT:throw_bad_alloc.obj
 0002:00008ab8       ??_R1A@?0A@EA@bad_array_new_length@std@@8 000000018001eab8     LIBCMT:throw_bad_alloc.obj
 0002:00008ae0       ??_R4type_info@@6B@        000000018001eae0     LIBCMT:std_type_info_static.obj
 0002:00008b08       ??_R3type_info@@8          000000018001eb08     LIBCMT:std_type_info_static.obj
 0002:00008b20       ??_R2type_info@@8          000000018001eb20     LIBCMT:std_type_info_static.obj
 0002:00008b30       ??_R1A@?0A@EA@type_info@@8 000000018001eb30     LIBCMT:std_type_info_static.obj
 0002:00008f80       __rtc_iaa                  000000018001ef80     LIBCMT:initsect.obj
 0002:00008f88       __rtc_izz                  000000018001ef88     LIBCMT:initsect.obj
 0002:00008f90       __rtc_taa                  000000018001ef90     LIBCMT:initsect.obj
 0002:00008f98       __rtc_tzz                  000000018001ef98     LIBCMT:initsect.obj
 0002:0000a030       _TI2?AVbad_alloc@std@@     0000000180020030     LIBCMT:throw_bad_alloc.obj
 0002:0000a050       _CTA2?AVbad_alloc@std@@    0000000180020050     LIBCMT:throw_bad_alloc.obj
 0002:0000a068       _CT??_R0?AVbad_alloc@std@@@8??0bad_alloc@std@@QEAA@AEBV01@@Z24 0000000180020068     LIBCMT:throw_bad_alloc.obj
 0002:0000a090       _CT??_R0?AVexception@std@@@8??0exception@std@@QEAA@AEBV01@@Z24 0000000180020090     LIBCMT:throw_bad_alloc.obj
 0002:0000a0b8       _TI3?AVbad_array_new_length@std@@ 00000001800200b8     LIBCMT:throw_bad_alloc.obj
 0002:0000a0d8       _CTA3?AVbad_array_new_length@std@@ 00000001800200d8     LIBCMT:throw_bad_alloc.obj
 0002:0000a0f8       _CT??_R0?AVbad_array_new_length@std@@@8??0bad_array_new_length@std@@QEAA@AEBV01@@Z24 00000001800200f8     LIBCMT:throw_bad_alloc.obj
 0002:0000a11c       __DELAY_IMPORT_DESCRIPTOR_node_exe 000000018002011c     node:node.exe
 0002:0000a13c       __NULL_DELAY_IMPORT_DESCRIPTOR 000000018002013c     node:node.exe
 0002:0000a250       \177node_NULL_THUNK_DATA_DLN 0000000180020250     node:node.exe
 0002:0000ab08       \177node_NULL_THUNK_DATA_DLB 0000000180020b08     node:node.exe
 0002:0000ac54       __IMPORT_DESCRIPTOR_KERNEL32 0000000180020c54     kernel32:KERNEL32.dll
 0002:0000ac68       __NULL_IMPORT_DESCRIPTOR   0000000180020c68     kernel32:KERNEL32.dll
 0003:00000000       __scrt_native_dllmain_reason 0000000180022000     LIBCMT:utility.obj
 0003:00000008       __security_cookie_complement 0000000180022008     LIBCMT:gs_cookie.obj
 0003:00000010       __security_cookie          0000000180022010     LIBCMT:gs_cookie.obj
 0003:00000018       __isa_available            0000000180022018     LIBCMT:cpu_disp.obj
 0003:0000001c       __isa_enabled              000000018002201c     LIBCMT:cpu_disp.obj
 0003:00000020       __memcpy_nt_iters          0000000180022020     LIBCMT:cpu_disp.obj
 0003:00000040       __abort_behavior           0000000180022040     libucrt:abort.obj
 0003:00000060       _iob                       0000000180022060     libucrt:_file.obj
 0003:00000170       __acrt_initial_locale_data 0000000180022170     libucrt:nlsdata.obj
 0003:000002c8       __acrt_initial_locale_pointers 00000001800222c8     libucrt:nlsdata.obj
 0003:000002d8       __acrt_wide_c_locale_string 00000001800222d8     libucrt:nlsdata.obj
 0003:000005f0       __acrt_initial_multibyte_data 00000001800225f0     libucrt:mbctype.obj
 0003:00000820       __badioinfo                0000000180022820     libucrt:ioinit.obj
 0003:00000868       _pwctype                   0000000180022868     libucrt:ctype.obj
 0003:00000870       __globallocalestatus       0000000180022870     libucrt:glstatus.obj
 0003:00000880       __acrt_lconv_c             0000000180022880     libucrt:localeconv.obj
 0003:00000918       __acrt_lconv_static_decimal 0000000180022918     libucrt:localeconv.obj
 0003:0000091c       __acrt_lconv_static_W_decimal 000000018002291c     libucrt:localeconv.obj
 0003:00000920       _lookuptrailbytes          0000000180022920     libucrt:read.obj
 0003:00000a40       _fltused                   0000000180022a40     LIBCMT:fltused.obj
 0003:00000a90       ??_R0?AVbad_alloc@std@@@8  0000000180022a90     LIBCMT:throw_bad_alloc.obj
 0003:00000ab8       ??_R0?AVexception@std@@@8  0000000180022ab8     LIBCMT:throw_bad_alloc.obj
 0003:00000ae0       ??_R0?AVbad_array_new_length@std@@@8 0000000180022ae0     LIBCMT:throw_bad_alloc.obj
 0003:00000b10       ??_R0?AVtype_info@@@8      0000000180022b10     LIBCMT:std_type_info_static.obj
 0003:00000b30       __imp_node_module_register 0000000180022b30     node:node.exe
 0003:00000b38       __imp_?New@Signature@v8@@SA?AV?$Local@VSignature@v8@@@2@PEAVIsolate@2@V?$Local@VFunctionTemplate@v8@@@2@@Z 0000000180022b38     node:node.exe
 0003:00000b40       __imp_?GetCurrentContext@Isolate@v8@@QEAA?AV?$Local@VContext@v8@@@2@XZ 0000000180022b40     node:node.exe
 0003:00000b48       __imp_?GetCurrent@Isolate@v8@@SAPEAV12@XZ 0000000180022b48     node:node.exe
 0003:00000b50       __imp_?CreateHandle@HandleScope@v8@@KAPEAPEAVObject@internal@2@PEAVIsolate@42@PEAV342@@Z 0000000180022b50     node:node.exe
 0003:00000b58       __imp_??1HandleScope@v8@@QEAA@XZ 0000000180022b58     node:node.exe
 0003:00000b60       __imp_??0HandleScope@v8@@QEAA@PEAVIsolate@1@@Z 0000000180022b60     node:node.exe
 0003:00000b68       __imp_?Set@Template@v8@@QEAAXV?$Local@VName@v8@@@2@V?$Local@VData@v8@@@2@W4PropertyAttribute@2@@Z 0000000180022b68     node:node.exe
 0003:00000b70       __imp_?SetClassName@FunctionTemplate@v8@@QEAAXV?$Local@VString@v8@@@2@@Z 0000000180022b70     node:node.exe
 0003:00000b78       __imp_?PrototypeTemplate@FunctionTemplate@v8@@QEAA?AV?$Local@VObjectTemplate@v8@@@2@XZ 0000000180022b78     node:node.exe
 0003:00000b80       __imp_?InstanceTemplate@FunctionTemplate@v8@@QEAA?AV?$Local@VObjectTemplate@v8@@@2@XZ 0000000180022b80     node:node.exe
 0003:00000b88       __imp_?GetFunction@FunctionTemplate@v8@@QEAA?AV?$MaybeLocal@VFunction@v8@@@2@V?$Local@VContext@v8@@@2@@Z 0000000180022b88     node:node.exe
 0003:00000b90       __imp_?New@FunctionTemplate@v8@@SA?AV?$Local@VFunctionTemplate@v8@@@2@PEAVIsolate@2@P6AXAEBV?$FunctionCallbackInfo@VValue@v8@@@2@@ZV?$Local@VValue@v8@@@2@V?$Local@VSignature@v8@@@2@HW4ConstructorBehavior@2@W4SideEffectType@2@@Z 0000000180022b90     node:node.exe
 0003:00000b98       __imp_?ToLocalEmpty@V8@v8@@CAXXZ 0000000180022b98     node:node.exe
 0003:00000ba0       __imp_?ClearWeak@V8@v8@@CAPEAXPEAPEAVObject@internal@2@@Z 0000000180022ba0     node:node.exe
 0003:00000ba8       __imp_?MakeWeak@V8@v8@@CAXPEAPEAVObject@internal@2@PEAXP6AXAEBV?$WeakCallbackInfo@X@2@@ZW4WeakCallbackType@2@@Z 0000000180022ba8     node:node.exe
 0003:00000bb0       __imp_?DisposeGlobal@V8@v8@@CAXPEAPEAVObject@internal@2@@Z 0000000180022bb0     node:node.exe
 0003:00000bb8       __imp_?GlobalizeReference@V8@v8@@CAPEAPEAVObject@internal@2@PEAVIsolate@42@PEAPEAV342@@Z 0000000180022bb8     node:node.exe
 0003:00000bc0       __imp_?ToString@Value@v8@@QEBA?AV?$MaybeLocal@VString@v8@@@2@V?$Local@VContext@v8@@@2@@Z 0000000180022bc0     node:node.exe
 0003:00000bc8       __imp_??1Utf8Value@String@v8@@QEAA@XZ 0000000180022bc8     node:node.exe
 0003:00000bd0       __imp_??0Utf8Value@String@v8@@QEAA@PEAVIsolate@2@V?$Local@VValue@v8@@@2@@Z 0000000180022bd0     node:node.exe
 0003:00000bd8       __imp_?NewFromUtf8@String@v8@@SA?AV?$Local@VString@v8@@@2@PEAVIsolate@2@PEBDW4NewStringType@12@H@Z 0000000180022bd8     node:node.exe
 0003:00000be0       __imp_?NewFromUtf8@String@v8@@SA?AV?$MaybeLocal@VString@v8@@@2@PEAVIsolate@2@PEBDW4NewStringType@2@H@Z 0000000180022be0     node:node.exe
 0003:00000be8       __imp_?SlowGetAlignedPointerFromInternalField@Object@v8@@AEAAPEAXH@Z 0000000180022be8     node:node.exe
 0003:00000bf0       __imp_?GetIsolate@Object@v8@@QEAAPEAVIsolate@2@XZ 0000000180022bf0     node:node.exe
 0003:00000bf8       __imp_?SetAlignedPointerInInternalField@Object@v8@@QEAAXHPEAX@Z 0000000180022bf8     node:node.exe
 0003:00000c00       __imp_?InternalFieldCount@Object@v8@@QEAAHXZ 0000000180022c00     node:node.exe
 0003:00000c08       __imp_?Set@Object@v8@@QEAA_NV?$Local@VValue@v8@@@2@0@Z 0000000180022c08     node:node.exe
 0003:00000c10       __imp_?NewInstance@Function@v8@@QEBA?AV?$MaybeLocal@VObject@v8@@@2@V?$Local@VContext@v8@@@2@HQEAV?$Local@VValue@v8@@@2@@Z 0000000180022c10     node:node.exe
 0003:00000c18       __imp_?SetInternalFieldCount@ObjectTemplate@v8@@QEAAXH@Z 0000000180022c18     node:node.exe
 0003:00000c20       \177node_NULL_THUNK_DATA_DLA 0000000180022c20     node:node.exe
 0003:00000c30       __hmod__node_exe           0000000180022c30     node:node.exe
 0003:00000c38       __scrt_current_native_startup_state 0000000180022c38     LIBCMT:utility.obj
 0003:00000c40       __scrt_native_startup_lock 0000000180022c40     LIBCMT:utility.obj
 0003:00001200       __favor                    0000000180023200     LIBCMT:cpu_disp.obj
 0003:00001204       __scrt_debugger_hook_flag  0000000180023204     LIBCMT:utility_desktop.obj
 0003:00001210       ?__type_info_root_node@@3U__type_info_node@@A 0000000180023210     LIBCMT:tncleanup.obj
 0003:00001220       ?_OptionsStorage@?1??__local_stdio_printf_options@@9@4_KA 0000000180023220     LIBCMT:default_local_stdio_options.obj
 0003:00001228       ?_OptionsStorage@?1??__local_stdio_scanf_options@@9@4_KA 0000000180023228     LIBCMT:default_local_stdio_options.obj
 0003:00001330       __pPurecall                0000000180023330     libvcruntime:purevirt_data.obj
 0003:00001338       ?__WinRTOutOfMemoryExceptionCallback@@3P6APEAXXZEA 0000000180023338     libvcruntime:ehhelpers.obj
 0003:00001340       ?pArgList@UnDecorator@@0PEAVReplicator@@EA 0000000180023340     libvcruntime:undname.obj
 0003:00001348       ?pZNameList@UnDecorator@@0PEAVReplicator@@EA 0000000180023348     libvcruntime:undname.obj
 0003:00001350       ?pTemplateArgList@UnDecorator@@0PEAVReplicator@@EA 0000000180023350     libvcruntime:undname.obj
 0003:00001358       ?gName@UnDecorator@@0PEBDEB 0000000180023358     libvcruntime:undname.obj
 0003:00001360       ?name@UnDecorator@@0PEBDEB 0000000180023360     libvcruntime:undname.obj
 0003:00001368       ?disableFlags@UnDecorator@@0KA 0000000180023368     libvcruntime:undname.obj
 0003:0000136c       ?fExplicitTemplateParams@UnDecorator@@0_NA 000000018002336c     libvcruntime:undname.obj
 0003:0000136d       ?fGetTemplateArgumentList@UnDecorator@@0_NA 000000018002336d     libvcruntime:undname.obj
 0003:00001370       ?m_pGetParameter@UnDecorator@@0P6APEADJ@ZEA 0000000180023370     libvcruntime:undname.obj
 0003:00001378       ?m_CHPENameOffset@UnDecorator@@0KA 0000000180023378     libvcruntime:undname.obj
 0003:0000137c       ?m_recursionLevel@UnDecorator@@0KA 000000018002337c     libvcruntime:undname.obj
 0003:000013c0       ?c_exit_complete@?1???R<lambda_6e4b09c48022b2350581041d5f6b0c4c>@@QEBA@XZ@4_NA 00000001800233c0     libucrt:exit.obj
 0003:000014d8       _environ_table             00000001800234d8     libucrt:environment_initialization.obj
 0003:000014e0       _wenviron_table            00000001800234e0     libucrt:environment_initialization.obj
 0003:000014e8       __dcrt_initial_wide_environment 00000001800234e8     libucrt:environment_initialization.obj
 0003:000014f0       __dcrt_initial_narrow_environment 00000001800234f0     libucrt:environment_initialization.obj
 0003:000014f8       __acrt_atexit_table        00000001800234f8     libucrt:onexit.obj
 0003:00001510       __acrt_at_quick_exit_table 0000000180023510     libucrt:onexit.obj
 0003:00001538       _nstream                   0000000180023538     libucrt:_file.obj
 0003:00001540       __piob                     0000000180023540     libucrt:_file.obj
 0003:00001548       _cflush                    0000000180023548     libucrt:_file.obj
 0003:00001570       __acrt_locale_changed_data 0000000180023570     libucrt:wsetlocale.obj
 0003:00001578       __acrt_current_locale_data 0000000180023578     libucrt:nlsdata.obj
 0003:000017c0       _mbctype                   00000001800237c0     libucrt:mbctype.obj
 0003:000017c8       _mbcasemap                 00000001800237c8     libucrt:mbctype.obj
 0003:000017d0       __acrt_current_multibyte_data 00000001800237d0     libucrt:mbctype.obj
 0003:000017e0       _pgmptr                    00000001800237e0     libucrt:argv_data.obj
 0003:000017e8       __argc                     00000001800237e8     libucrt:argv_data.obj
 0003:000017f0       __argv                     00000001800237f0     libucrt:argv_data.obj
 0003:000017f8       __wargv                    00000001800237f8     libucrt:argv_data.obj
 0003:00001800       _acmdln                    0000000180023800     libucrt:argv_data.obj
 0003:00001808       _wcmdln                    0000000180023808     libucrt:argv_data.obj
 0003:000019c0       __acrt_heap                00000001800239c0     libucrt:heap_handle.obj
 0003:000019d0       __pioinfo                  00000001800239d0     libucrt:ioinit.obj
 0003:00001dd0       _nhandle                   0000000180023dd0     libucrt:ioinit.obj
 0003:00001de0       __acrt_stdout_buffer       0000000180023de0     libucrt:_sftbuf.obj
 0003:00001de8       __acrt_stderr_buffer       0000000180023de8     libucrt:_sftbuf.obj
 0003:00001e00       __acrt_lconv_static_null   0000000180023e00     libucrt:localeconv.obj
 0003:00001e04       __acrt_lconv_static_W_null 0000000180023e04     libucrt:localeconv.obj
 0003:00001e18       __fma3_is_available        0000000180023e18     libucrt:fma3_available.obj
 0003:00001e1c       __use_fma3_lib             0000000180023e1c     libucrt:fma3_available.obj
 0003:00001e20       ?DloadKernel32@@3PEAUHINSTANCE__@@EA 0000000180023e20     DelayImp:delayhlp.obj
 0003:00001e28       ?DloadAcquireSRWLockExclusive@@3P6AXPEA_K@ZEA 0000000180023e28     DelayImp:delayhlp.obj
 0003:00001e30       ?DloadReleaseSRWLockExclusive@@3P6AXPEA_K@ZEA 0000000180023e30     DelayImp:delayhlp.obj
 0003:00001e38       ?DloadSrwLock@@3_KA        0000000180023e38     DelayImp:delayhlp.obj
 0003:00001e40       ?DloadSectionLockCount@@3KA 0000000180023e40     DelayImp:delayhlp.obj
 0003:00001e44       ?DloadSectionOldProtection@@3KA 0000000180023e44     DelayImp:delayhlp.obj
 0003:00001e48       ?DloadSectionCommitPermanent@@3KA 0000000180023e48     DelayImp:delayhlp.obj
 0003:00001f50       ?constructor@HashSetWrap@1@0V?$Persistent@VFunction@v8@@V?$NonCopyablePersistentTraits@VFunction@v8@@@2@@v8@@A 0000000180023f50     hash_set_wrap.obj
 0003:00002060       __dyn_tls_init_callback    0000000180024060     <common>
 0003:00002068       __scrt_ucrt_dll_is_in_use  0000000180024068     <common>

 entry point at        0001:000018b4

 Static symbols

 0000:fffd7000       .debug$S                   0000000180000000     kernel32:KERNEL32.dll
 0000:fffd7000       .debug$S                   0000000180000000     node:node.exe
 0000:fffd7000       .debug$S                   0000000180000000     kernel32:KERNEL32.dll
 0000:fffd7000       .debug$S                   0000000180000000     kernel32:KERNEL32.dll
 0000:fffd7000       .debug$S                   0000000180000000     node:node.exe
 0000:fffd7000       .debug$S                   0000000180000000     node:node.exe
 0000:fffd7000       .debug$S                   0000000180000000     node:node.exe
 0000:fffd7000       .debug$S                   0000000180000000     node:node.exe
 0000:fffd7000       .debug$S                   0000000180000000     node:node.exe
 0000:fffd7000       .debug$S                   0000000180000000     node:node.exe
 0000:fffd7000       .debug$S                   0000000180000000     node:node.exe
 0000:fffd7000       .debug$S                   0000000180000000     node:node.exe
 0000:fffd7000       .debug$S                   0000000180000000     node:node.exe
 0000:fffd7000       .debug$S                   0000000180000000     node:node.exe
 0000:fffd7000       .debug$S                   0000000180000000     kernel32:KERNEL32.dll
 0000:fffd7000       .debug$S                   0000000180000000     node:node.exe
 0000:fffd7000       .debug$S                   0000000180000000     kernel32:KERNEL32.dll
 0000:fffd7000       .debug$S                   0000000180000000     node:node.exe
 0000:fffd7000       .debug$S                   0000000180000000     kernel32:KERNEL32.dll
 0000:fffd7000       .debug$S                   0000000180000000     node:node.exe
 0000:fffd7000       .debug$S                   0000000180000000     kernel32:KERNEL32.dll
 0000:fffd7000       .debug$S                   0000000180000000     node:node.exe
 0000:fffd7000       .debug$S                   0000000180000000     node:node.exe
 0000:fffd7000       .debug$S                   0000000180000000     node:node.exe
 0000:fffd7000       .debug$S                   0000000180000000     node:node.exe
 0000:fffd7000       .debug$S                   0000000180000000     node:node.exe
 0000:fffd7000       .debug$S                   0000000180000000     node:node.exe
 0000:fffd7000       .debug$S                   0000000180000000     node:node.exe
 0000:fffd7000       .debug$S                   0000000180000000     node:node.exe
 0000:fffd7000       .debug$S                   0000000180000000     node:node.exe
 0000:fffd7000       .debug$S                   0000000180000000     node:node.exe
 0000:fffd7000       .debug$S                   0000000180000000     node:node.exe
 0000:fffd7000       .debug$S                   0000000180000000     node:node.exe
 0000:fffd7000       .debug$S                   0000000180000000     node:node.exe
 0000:fffd7000       .debug$S                   0000000180000000     node:node.exe
 0000:fffd7000       .debug$S                   0000000180000000     node:node.exe
 0000:fffd7000       .debug$S                   0000000180000000     node:node.exe
 0000:fffd7000       .debug$S                   0000000180000000     node:node.exe
 0000:fffd7000       .debug$S                   0000000180000000     node:node.exe
 0000:fffd7000       .debug$S                   0000000180000000     node:node.exe
 0000:fffd7000       .debug$S                   0000000180000000     node:node.exe
 0000:fffd7000       .debug$S                   0000000180000000     node:node.exe
 0000:fffd7000       .debug$S                   0000000180000000     kernel32:KERNEL32.dll
 0000:fffd7000       .debug$S                   0000000180000000     kernel32:KERNEL32.dll
 0000:fffd7000       .debug$S                   0000000180000000     kernel32:KERNEL32.dll
 0000:fffd7000       .debug$S                   0000000180000000     kernel32:KERNEL32.dll
 0000:fffd7000       .debug$S                   0000000180000000     kernel32:KERNEL32.dll
 0000:fffd7000       .debug$S                   0000000180000000     kernel32:KERNEL32.dll
 0000:fffd7000       .debug$S                   0000000180000000     kernel32:KERNEL32.dll
 0000:fffd7000       .debug$S                   0000000180000000     kernel32:KERNEL32.dll
 0000:fffd7000       .debug$S                   0000000180000000     kernel32:KERNEL32.dll
 0000:fffd7000       .debug$S                   0000000180000000     kernel32:KERNEL32.dll
 0000:fffd7000       .debug$S                   0000000180000000     kernel32:KERNEL32.dll
 0000:fffd7000       .debug$S                   0000000180000000     kernel32:KERNEL32.dll
 0000:fffd7000       .debug$S                   0000000180000000     kernel32:KERNEL32.dll
 0000:fffd7000       .debug$S                   0000000180000000     kernel32:KERNEL32.dll
 0000:fffd7000       .debug$S                   0000000180000000     kernel32:KERNEL32.dll
 0000:fffd7000       .debug$S                   0000000180000000     kernel32:KERNEL32.dll
 0000:fffd7000       .debug$S                   0000000180000000     kernel32:KERNEL32.dll
 0000:fffd7000       .debug$S                   0000000180000000     kernel32:KERNEL32.dll
 0000:fffd7000       .debug$S                   0000000180000000     kernel32:KERNEL32.dll
 0000:fffd7000       .debug$S                   0000000180000000     kernel32:KERNEL32.dll
 0000:fffd7000       .debug$S                   0000000180000000     kernel32:KERNEL32.dll
 0000:fffd7000       .debug$S                   0000000180000000     kernel32:KERNEL32.dll
 0000:fffd7000       .debug$S                   0000000180000000     kernel32:KERNEL32.dll
 0000:fffd7000       .debug$S                   0000000180000000     kernel32:KERNEL32.dll
 0000:fffd7000       .debug$S                   0000000180000000     kernel32:KERNEL32.dll
 0000:fffd7000       .debug$S                   0000000180000000     kernel32:KERNEL32.dll
 0000:fffd7000       .debug$S                   0000000180000000     kernel32:KERNEL32.dll
 0000:fffd7000       .debug$S                   0000000180000000     kernel32:KERNEL32.dll
 0000:fffd7000       .debug$S                   0000000180000000     kernel32:KERNEL32.dll
 0000:fffd7000       .debug$S                   0000000180000000     hashset-cpp.exp
 0000:fffd7000       .debug$S                   0000000180000000     kernel32:KERNEL32.dll
 0000:fffd7000       .debug$S                   0000000180000000     kernel32:KERNEL32.dll
 0000:fffd7000       .debug$S                   0000000180000000     kernel32:KERNEL32.dll
 0000:fffd7000       .debug$S                   0000000180000000     kernel32:KERNEL32.dll
 0000:fffd7000       .debug$S                   0000000180000000     kernel32:KERNEL32.dll
 0000:fffd7000       .debug$S                   0000000180000000     kernel32:KERNEL32.dll
 0000:fffd7000       .debug$S                   0000000180000000     kernel32:KERNEL32.dll
 0000:fffd7000       .debug$S                   0000000180000000     kernel32:KERNEL32.dll
 0000:fffd7000       .debug$S                   0000000180000000     kernel32:KERNEL32.dll
 0000:fffd7000       .debug$S                   0000000180000000     kernel32:KERNEL32.dll
 0000:fffd7000       .debug$S                   0000000180000000     kernel32:KERNEL32.dll
 0000:fffd7000       .debug$S                   0000000180000000     kernel32:KERNEL32.dll
 0000:fffd7000       .debug$S                   0000000180000000     kernel32:KERNEL32.dll
 0000:fffd7000       .debug$S                   0000000180000000     kernel32:KERNEL32.dll
 0000:fffd7000       .debug$S                   0000000180000000     kernel32:KERNEL32.dll
 0000:fffd7000       .debug$S                   0000000180000000     kernel32:KERNEL32.dll
 0000:fffd7000       .debug$S                   0000000180000000     kernel32:KERNEL32.dll
 0000:fffd7000       .debug$S                   0000000180000000     kernel32:KERNEL32.dll
 0000:fffd7000       .debug$S                   0000000180000000     kernel32:KERNEL32.dll
 0000:fffd7000       .debug$S                   0000000180000000     kernel32:KERNEL32.dll
 0000:fffd7000       .debug$S                   0000000180000000     kernel32:KERNEL32.dll
 0000:fffd7000       .debug$S                   0000000180000000     kernel32:KERNEL32.dll
 0000:fffd7000       .debug$S                   0000000180000000     kernel32:KERNEL32.dll
 0000:fffd7000       .debug$S                   0000000180000000     kernel32:KERNEL32.dll
 0000:fffd7000       .debug$S                   0000000180000000     kernel32:KERNEL32.dll
 0000:fffd7000       .debug$S                   0000000180000000     kernel32:KERNEL32.dll
 0000:fffd7000       .debug$S                   0000000180000000     kernel32:KERNEL32.dll
 0000:fffd7000       .debug$S                   0000000180000000     kernel32:KERNEL32.dll
 0000:fffd7000       .debug$S                   0000000180000000     kernel32:KERNEL32.dll
 0000:fffd7000       .debug$S                   0000000180000000     kernel32:KERNEL32.dll
 0000:fffd7000       .debug$S                   0000000180000000     kernel32:KERNEL32.dll
 0000:fffd7000       .debug$S                   0000000180000000     kernel32:KERNEL32.dll
 0000:fffd7000       .debug$S                   0000000180000000     kernel32:KERNEL32.dll
 0000:fffd7000       .debug$S                   0000000180000000     kernel32:KERNEL32.dll
 0000:fffd7000       .debug$S                   0000000180000000     kernel32:KERNEL32.dll
 0000:fffd7000       .debug$S                   0000000180000000     kernel32:KERNEL32.dll
 0000:fffd7000       .debug$S                   0000000180000000     kernel32:KERNEL32.dll
 0000:fffd7000       .debug$S                   0000000180000000     kernel32:KERNEL32.dll
 0000:fffd7000       .debug$S                   0000000180000000     kernel32:KERNEL32.dll
 0000:fffd7000       .debug$S                   0000000180000000     kernel32:KERNEL32.dll
 0000:fffd7000       .debug$S                   0000000180000000     kernel32:KERNEL32.dll
 0000:fffd7000       .debug$S                   0000000180000000     kernel32:KERNEL32.dll
 0000:fffd7000       .debug$S                   0000000180000000     kernel32:KERNEL32.dll
 0000:fffd7000       .debug$S                   0000000180000000     kernel32:KERNEL32.dll
 0000:fffd7000       .debug$S                   0000000180000000     kernel32:KERNEL32.dll
 0000:fffd7000       .debug$S                   0000000180000000     kernel32:KERNEL32.dll
 0000:fffd7000       .debug$S                   0000000180000000     kernel32:KERNEL32.dll
 0000:fffd7000       .debug$S                   0000000180000000     kernel32:KERNEL32.dll
 0000:fffd7000       .debug$S                   0000000180000000     kernel32:KERNEL32.dll
 0000:fffd7000       .debug$S                   0000000180000000     kernel32:KERNEL32.dll
 0000:fffd7000       .debug$S                   0000000180000000     kernel32:KERNEL32.dll
 0000:fffd7000       .debug$S                   0000000180000000     kernel32:KERNEL32.dll
 0000:fffd7000       .debug$S                   0000000180000000     kernel32:KERNEL32.dll
 0001:00000000       ??__Eh@@YAXXZ              0000000180001000 f   addon.obj
 0001:00000010       ??__Eh@@YAXXZ              0000000180001010 f   hash_set_wrap.obj
 0001:00000020       ??__E?constructor@HashSetWrap@1@0V?$Persistent@VFunction@v8@@V?$NonCopyablePersistentTraits@VFunction@v8@@@2@@v8@@A@@YAXXZ 0000000180001020 f   hash_set_wrap.obj
 0001:000003b0       _register_addon            00000001800013b0 f   addon.obj
 0001:00000ef0       ?load_exe_hook@@YAP6A_JXZIPEAUDelayLoadInfo@@@Z 0000000180001ef0 f   win_delay_load_hook.obj
 0001:00001120       $$000000                   0000000180002120     LIBCMT:amdsecgs.obj
 0001:00001584       ?dllmain_crt_dispatch@@YAHQEAUHINSTANCE__@@KQEAX@Z 0000000180002584 f   LIBCMT:dll_dllmain.obj
 0001:000015d4       ?dllmain_crt_process_attach@@YAHQEAUHINSTANCE__@@QEAX@Z 00000001800025d4 f   LIBCMT:dll_dllmain.obj
 0001:000016f0       ?dllmain_crt_process_detach@@YAH_N@Z 00000001800026f0 f   LIBCMT:dll_dllmain.obj
 0001:00001780       ?dllmain_dispatch@@YAHQEAUHINSTANCE__@@KQEAX@Z 0000000180002780 f   LIBCMT:dll_dllmain.obj
 0001:00001aac       capture_current_context    0000000180002aac f   LIBCMT:gs_report.obj
 0001:00001b1c       capture_previous_context   0000000180002b1c f   LIBCMT:gs_report.obj
 0001:000025e0       $$000000                   00000001800035e0     libvcruntime:memset.obj
 0001:000026dc       MsetTab                    00000001800036dc     libvcruntime:memset.obj
 0001:00002a00       ?try_get_function@@YAPEAXW4function_id@?A0x14c33c87@@QEBDQEBW4module_id@2@2@Z 0000000180003a00 f   libvcruntime:winapi_downlevel.obj
 0001:00002df0       $$000000                   0000000180003df0     libvcruntime:notify.obj
 0001:00002ef0       $$000000                   0000000180003ef0     libvcruntime:memcpy.obj
 0001:00002fa7       MoveSmall                  0000000180003fa7     libvcruntime:memcpy.obj
 0001:00003350       $$000000                   0000000180004350     libvcruntime:handlers.obj
 0001:000033f8       ??$common_assert_to_message_box@_W@@YAXQEB_W0IQEAX@Z 00000001800043f8 f   libucrt:assert.obj
 0001:000034bc       ??$common_assert_to_message_box_build_string@_W@@YAXQEA_W_KQEB_W2IQEAX@Z 00000001800044bc f   libucrt:assert.obj
 0001:000039c0       ??$common_assert_to_stderr@_W@@YAXQEB_W0I@Z 00000001800049c0 f   libucrt:assert.obj
 0001:00003b30       ?get_assert_format@@YAPEB_W_W@Z 0000000180004b30 f   libucrt:assert.obj
 0001:00004028       ??$?RV<lambda_d80eeec6fff315bfe5c115232f3240e3>@@AEAV<lambda_6e4b09c48022b2350581041d5f6b0c4c>@@V<lambda_2358e3775559c9db80273638284d5e45>@@@?$__crt_seh_guarded_call@X@@QEAAX$$QEAV<lambda_d80eeec6fff315bfe5c115232f3240e3>@@AEAV<lambda_6e4b09c48022b2350581041d5f6b0c4c>@@$$QEAV<lambda_2358e3775559c9db80273638284d5e45>@@@Z 0000000180005028 f   libucrt:exit.obj
 0001:00004060       ??R<lambda_6e4b09c48022b2350581041d5f6b0c4c>@@QEBA@XZ 0000000180005060 f   libucrt:exit.obj
 0001:00004124       ?atexit_exception_filter@@YAHK@Z 0000000180005124 f   libucrt:exit.obj
 0001:00004130       ?common_exit@@YAXHW4_crt_exit_cleanup_mode@@W4_crt_exit_return_mode@@@Z 0000000180005130 f   libucrt:exit.obj
 0001:000041ec       ?exit_or_terminate_process@@YAXI@Z 00000001800051ec f   libucrt:exit.obj
 0001:00004238       ?try_cor_exit_process@@YAXI@Z 0000000180005238 f   libucrt:exit.obj
 0001:000042c0       ??$parse_command_line@D@@YAXPEADPEAPEAD0PEA_K2@Z 00000001800052c0 f   libucrt:argv_parsing.obj
 0001:0000466c       ??$common_initialize_environment_nolock@D@@YAHXZ 000000018000566c f   libucrt:environment_initialization.obj
 0001:000046d8       ??$create_environment@D@@YAQEAPEADQEAD@Z 00000001800056d8 f   libucrt:environment_initialization.obj
 0001:000047e0       ??$free_environment@_W@@YAXQEAPEA_W@Z 00000001800057e0 f   libucrt:environment_initialization.obj
 0001:000047e0       ??$free_environment@D@@YAXQEAPEAD@Z 00000001800057e0 f   libucrt:environment_initialization.obj
 0001:00004824       ??$uninitialize_environment_internal@D@@YAXAEAPEAPEAD@Z 0000000180005824 f   libucrt:environment_initialization.obj
 0001:00004840       ??$uninitialize_environment_internal@_W@@YAXAEAPEAPEA_W@Z 0000000180005840 f   libucrt:environment_initialization.obj
 0001:0000489c       ??$?RV<lambda_638799b9deba96c50f710eeac98168cd>@@AEAV<lambda_22ebabd17bc4fa466a2aca6d8deb888d>@@V<lambda_a6f7d7db0129f75315ebf26d50c089f1>@@@?$__crt_seh_guarded_call@H@@QEAAH$$QEAV<lambda_638799b9deba96c50f710eeac98168cd>@@AEAV<lambda_22ebabd17bc4fa466a2aca6d8deb888d>@@$$QEAV<lambda_a6f7d7db0129f75315ebf26d50c089f1>@@@Z 000000018000589c f   libucrt:onexit.obj
 0001:000048d8       ??$?RV<lambda_7777bce6b2f8c936911f934f8298dc43>@@AEAV<lambda_f03950bc5685219e0bcd2087efbe011e>@@V<lambda_3883c3dff614d5e0c5f61bb1ac94921c>@@@?$__crt_seh_guarded_call@H@@QEAAH$$QEAV<lambda_7777bce6b2f8c936911f934f8298dc43>@@AEAV<lambda_f03950bc5685219e0bcd2087efbe011e>@@$$QEAV<lambda_3883c3dff614d5e0c5f61bb1ac94921c>@@@Z 00000001800058d8 f   libucrt:onexit.obj
 0001:00004914       ??R<lambda_22ebabd17bc4fa466a2aca6d8deb888d>@@QEBAHXZ 0000000180005914 f   libucrt:onexit.obj
 0001:00004ac4       ??R<lambda_f03950bc5685219e0bcd2087efbe011e>@@QEBAHXZ 0000000180005ac4 f   libucrt:onexit.obj
 0001:00004c98       initialize_global_variables 0000000180005c98 f   libucrt:initialization.obj
 0001:00004cac       initialize_c               0000000180005cac f   libucrt:initialization.obj
 0001:00004cd0       uninitialize_c             0000000180005cd0 f   libucrt:initialization.obj
 0001:00004cd0       uninitialize_global_state_isolation 0000000180005cd0 f   libucrt:initialization.obj
 0001:00004cd0       report_memory_leaks        0000000180005cd0 f   libucrt:initialization.obj
 0001:00004cd0       initialize_global_state_isolation 0000000180005cd0 f   libucrt:initialization.obj
 0001:00004cd0       initialize_environment     0000000180005cd0 f   libucrt:initialization.obj
 0001:00004cd4       uninitialize_environment   0000000180005cd4 f   libucrt:initialization.obj
 0001:00004ce4       initialize_pointers        0000000180005ce4 f   libucrt:initialization.obj
 0001:00004d24       uninitialize_vcruntime     0000000180005d24 f   libucrt:initialization.obj
 0001:00004d2c       uninitialize_allocated_memory 0000000180005d2c f   libucrt:initialization.obj
 0001:00004d6c       uninitialize_allocated_io_buffers 0000000180005d6c f   libucrt:initialization.obj
 0001:0000500c       ??$?RV<lambda_0d412022a4b28cc8a401ea49574e8ae6>@@AEAV<lambda_a775ed57af18ba8e4d5dc780aa9068fe>@@V<lambda_975a71a6baa488a08f4e15f6b0339b9e>@@@?$__crt_seh_guarded_call@H@@QEAAH$$QEAV<lambda_0d412022a4b28cc8a401ea49574e8ae6>@@AEAV<lambda_a775ed57af18ba8e4d5dc780aa9068fe>@@$$QEAV<lambda_975a71a6baa488a08f4e15f6b0339b9e>@@@Z 000000018000600c f   libucrt:output.obj
 0001:0000504c       ??$common_vsprintf@Vstandard_base@__crt_stdio_output@@_W@@YAH_KQEA_W0QEB_WQEAU__crt_locale_pointers@@QEAD@Z 000000018000604c f   libucrt:output.obj
 0001:0000560c       ??R<lambda_a775ed57af18ba8e4d5dc780aa9068fe>@@QEBAHXZ 000000018000660c f   libucrt:output.obj
 0001:000077e0       $$000000                   00000001800087e0     libucrt:strncmp.obj
 0001:00007bcc       ??$common_xtox@K_W@@YAHKQEA_W_KI_N@Z 0000000180008bcc f   libucrt:xtoa.obj
 0001:00007ca0       ??$common_xtox_s@K_W@@YAHKQEA_W_KI_N@Z 0000000180008ca0 f   libucrt:xtoa.obj
 0001:000083d4       ??$?RV<lambda_842d9ff0dc9ef11c61343bbaebe7f885>@@AEAV<lambda_c5860995281e5c4ce005b3de8f5874ee>@@V<lambda_d90129c13df834fdcbf8d2b88dafcf2d>@@@?$__crt_seh_guarded_call@X@@QEAAX$$QEAV<lambda_842d9ff0dc9ef11c61343bbaebe7f885>@@AEAV<lambda_c5860995281e5c4ce005b3de8f5874ee>@@$$QEAV<lambda_d90129c13df834fdcbf8d2b88dafcf2d>@@@Z 00000001800093d4 f   libucrt:fflush.obj
 0001:00008470       ??$?RV<lambda_886d6c58226a84441f68b9f2b8217b83>@@AEAV<lambda_ab61a845afdef5b7c387490eaf3616ee>@@V<lambda_f7f22ab5edc0698d5f6905b0d3f44752>@@@?$__crt_seh_guarded_call@X@@QEAAX$$QEAV<lambda_886d6c58226a84441f68b9f2b8217b83>@@AEAV<lambda_ab61a845afdef5b7c387490eaf3616ee>@@$$QEAV<lambda_f7f22ab5edc0698d5f6905b0d3f44752>@@@Z 0000000180009470 f   libucrt:fflush.obj
 0001:00008550       ??$?RV<lambda_c376a267cfb53b6959b3b692ec76b120>@@AEAV<lambda_9a32fed5bf61b6b509b2d3f6003082a1>@@V<lambda_572fbb9fa0ab338edf41edfd4b5fcc8d>@@@?$__crt_seh_guarded_call@H@@QEAAH$$QEAV<lambda_c376a267cfb53b6959b3b692ec76b120>@@AEAV<lambda_9a32fed5bf61b6b509b2d3f6003082a1>@@$$QEAV<lambda_572fbb9fa0ab338edf41edfd4b5fcc8d>@@@Z 0000000180009550 f   libucrt:fflush.obj
 0001:00008590       ?common_flush_all@@YAH_N@Z 0000000180009590 f   libucrt:fflush.obj
 0001:00008728       ??$?RV<lambda_84ec643ea9557e2f7dc01bb0e9624395>@@AEAV<lambda_ca71763b3c0644891230e4f79ea54fa6>@@V<lambda_439a761618c59b0600e24586724d733b>@@@?$__crt_seh_guarded_call@H@@QEAAH$$QEAV<lambda_84ec643ea9557e2f7dc01bb0e9624395>@@AEAV<lambda_ca71763b3c0644891230e4f79ea54fa6>@@$$QEAV<lambda_439a761618c59b0600e24586724d733b>@@@Z 0000000180009728 f   libucrt:setvbuf.obj
 0001:00008768       ??R<lambda_ca71763b3c0644891230e4f79ea54fa6>@@QEBAHXZ 0000000180009768 f   libucrt:setvbuf.obj
 0001:000088e4       ??$?RV<lambda_450d765d439847d4c735a33c368b5fc0>@@AEAV<lambda_44731a7d0e6d81c3e6aa82d741081786>@@V<lambda_601a2a7da3b7a96e9554ac7215c4b07c>@@@?$__crt_seh_guarded_call@P6AXH@Z@@QEAAP6AXH@Z$$QEAV<lambda_450d765d439847d4c735a33c368b5fc0>@@AEAV<lambda_44731a7d0e6d81c3e6aa82d741081786>@@$$QEAV<lambda_601a2a7da3b7a96e9554ac7215c4b07c>@@@Z 00000001800098e4 f   libucrt:signal.obj
 0001:00008be8       ?internal_isupper_l@@YA_NHQEAU__crt_locale_pointers@@@Z 0000000180009be8 f   libucrt:tolower_toupper.obj
 0001:00008db4       ??$?RV<lambda_0ae27a3a962d80f24befdcbee591983d>@@AEAV<lambda_8d0ee55de4b1038c4002e0adecdf1839>@@V<lambda_dc504788e8f1664fe9b84e20bfb512f2>@@@?$__crt_seh_guarded_call@X@@QEAAX$$QEAV<lambda_0ae27a3a962d80f24befdcbee591983d>@@AEAV<lambda_8d0ee55de4b1038c4002e0adecdf1839>@@$$QEAV<lambda_dc504788e8f1664fe9b84e20bfb512f2>@@@Z 0000000180009db4 f   libucrt:per_thread_data.obj
 0001:00008df4       ??$?RV<lambda_2d41944a1d46af3157314b8a01080d33>@@AEAV<lambda_8f455de75cd7d7f24b4096f044d8b9e6>@@V<lambda_aa500f224e6afead328df44964fe2772>@@@?$__crt_seh_guarded_call@X@@QEAAX$$QEAV<lambda_2d41944a1d46af3157314b8a01080d33>@@AEAV<lambda_8f455de75cd7d7f24b4096f044d8b9e6>@@$$QEAV<lambda_aa500f224e6afead328df44964fe2772>@@@Z 0000000180009df4 f   libucrt:per_thread_data.obj
 0001:00008e34       ??$?RV<lambda_aa87e3671a710a21b5dc78c0bdf72e11>@@AEAV<lambda_92619d2358a28f41a33ba319515a20b9>@@V<lambda_6992ecaafeb10aed2b74cb1fae11a551>@@@?$__crt_seh_guarded_call@X@@QEAAX$$QEAV<lambda_aa87e3671a710a21b5dc78c0bdf72e11>@@AEAV<lambda_92619d2358a28f41a33ba319515a20b9>@@$$QEAV<lambda_6992ecaafeb10aed2b74cb1fae11a551>@@@Z 0000000180009e34 f   libucrt:per_thread_data.obj
 0001:00008e7c       ??$?RV<lambda_f2e299630e499de9f9a165e60fcd3db5>@@AEAV<lambda_2ae9d31cdba2644fcbeaf08da7c24588>@@V<lambda_40d01ff24d0e7b3814fdbdcee8eab3c7>@@@?$__crt_seh_guarded_call@X@@QEAAX$$QEAV<lambda_f2e299630e499de9f9a165e60fcd3db5>@@AEAV<lambda_2ae9d31cdba2644fcbeaf08da7c24588>@@$$QEAV<lambda_40d01ff24d0e7b3814fdbdcee8eab3c7>@@@Z 0000000180009e7c f   libucrt:per_thread_data.obj
 0001:00008edc       ?construct_ptd_array@@YAXQEAU__acrt_ptd@@@Z 0000000180009edc f   libucrt:per_thread_data.obj
 0001:00008fac       ?destroy_fls@@YAXPEAX@Z    0000000180009fac f   libucrt:per_thread_data.obj
 0001:00008fcc       ?destroy_ptd_array@@YAXQEAU__acrt_ptd@@@Z 0000000180009fcc f   libucrt:per_thread_data.obj
 0001:000090c4       ?replace_current_thread_locale_nolock@@YAXQEAU__acrt_ptd@@QEAU__crt_locale_data@@@Z 000000018000a0c4 f   libucrt:per_thread_data.obj
 0001:00009480       ??$?RV<lambda_410d79af7f07d98d83a3f525b3859a53>@@AEAV<lambda_3e16ef9562a7dcce91392c22ab16ea36>@@V<lambda_38119f0e861e05405d8a144b9b982f0a>@@@?$__crt_seh_guarded_call@X@@QEAAX$$QEAV<lambda_410d79af7f07d98d83a3f525b3859a53>@@AEAV<lambda_3e16ef9562a7dcce91392c22ab16ea36>@@$$QEAV<lambda_38119f0e861e05405d8a144b9b982f0a>@@@Z 000000018000a480 f   libucrt:wsetlocale.obj
 0001:000097f8       ?<lambda_invoker_cdecl>@<lambda_c2303d2482d7c3675ea2e24c4cfb6115>@@CAHPEBX0@Z 000000018000a7f8 f   libucrt:argv_wildcards.obj
 0001:00009b10       ??$common_expand_argv_wildcards@D@@YAHQEAPEADQEAPEAPEAD@Z 000000018000ab10 f   libucrt:argv_wildcards.obj
 0001:00009d1c       ??$copy_and_add_argument_to_buffer@D@@YAHQEBD0_KAEAV?$argument_list@D@?A0x5f5c8891@@@Z 000000018000ad1c f   libucrt:argv_wildcards.obj
 0001:00009ea4       ??$expand_argument_wildcards@D@@YAHQEAD0AEAV?$argument_list@D@?A0x5f5c8891@@@Z 000000018000aea4 f   libucrt:argv_wildcards.obj
 0001:0000a1bc       ??$?RV<lambda_efdfa57d1f175319df784efa44bb7b81>@@AEAV<lambda_5f0a4c1567f8adc6734073e5d1e1b35c>@@V<lambda_2e8a7d3640ea6ccb4c2413664c2db6fd>@@@?$__crt_seh_guarded_call@X@@QEAAX$$QEAV<lambda_efdfa57d1f175319df784efa44bb7b81>@@AEAV<lambda_5f0a4c1567f8adc6734073e5d1e1b35c>@@$$QEAV<lambda_2e8a7d3640ea6ccb4c2413664c2db6fd>@@@Z 000000018000b1bc f   libucrt:mbctype.obj
 0001:0000a378       ?getSystemCP@@YAHH@Z       000000018000b378 f   libucrt:mbctype.obj
 0001:0000a3f8       ?setSBCS@@YAXPEAU__crt_multibyte_data@@@Z 000000018000b3f8 f   libucrt:mbctype.obj
 0001:0000a488       ?setSBUpLow@@YAXPEAU__crt_multibyte_data@@@Z 000000018000b488 f   libucrt:mbctype.obj
 0001:0000a66c       ?setmbcp_internal@@YAHH_NQEAU__acrt_ptd@@QEAPEAU__crt_multibyte_data@@@Z 000000018000b66c f   libucrt:mbctype.obj
 0001:0000a830       ?update_thread_multibyte_data_internal@@YAPEAU__crt_multibyte_data@@QEAU__acrt_ptd@@QEAPEAU1@@Z 000000018000b830 f   libucrt:mbctype.obj
 0001:0000ac20       ?x_ismbbtype_l@@YAHPEAU__crt_locale_pointers@@IHH@Z 000000018000bc20 f   libucrt:ismbbyte.obj
 0001:0000af64       ?try_get_function@@YAPEAXW4function_id@?A0x391cf84c@@QEBDQEBW4module_id@2@2@Z 000000018000bf64 f   libucrt:winapi_thunks.obj
 0001:0000b7e8       ?initialize_inherited_file_handles_nolock@@YAXXZ 000000018000c7e8 f   libucrt:ioinit.obj
 0001:0000b8d8       ?initialize_stdio_handles_nolock@@YAXXZ 000000018000c8d8 f   libucrt:ioinit.obj
 0001:0000c250       ?fp_format_a@@YAHQEBNPEAD_KQEAD2H_NIQEAU__crt_locale_pointers@@@Z 000000018000d250 f   libucrt:cvt.obj
 0001:0000c5c0       ?fp_format_e@@YAHQEBNQEAD_K12H_NIQEAU__crt_locale_pointers@@@Z 000000018000d5c0 f   libucrt:cvt.obj
 0001:0000c69c       ?fp_format_e_internal@@YAHQEAD_KH_NIQEAU_strflt@@2QEAU__crt_locale_pointers@@@Z 000000018000d69c f   libucrt:cvt.obj
 0001:0000c870       ?fp_format_f_internal@@YAHQEAD_KHQEAU_strflt@@_NQEAU__crt_locale_pointers@@@Z 000000018000d870 f   libucrt:cvt.obj
 0001:0000c9b4       ?fp_format_g@@YAHQEBNQEAD_K12H_NIQEAU__crt_locale_pointers@@@Z 000000018000d9b4 f   libucrt:cvt.obj
 0001:0000cae8       ?fp_format_nan_or_infinity@@YAHW4__acrt_fp_class@@_NPEAD_K1@Z 000000018000dae8 f   libucrt:cvt.obj
 0001:0000d324       ??$?RV<lambda_a37b2b86f63e897a80ea819b0eb08c01>@@AEAV<lambda_38ce7e780aa69e748d6df282ebc68efe>@@V<lambda_99fb1378e971ab6e7edea83e3a7a83a2>@@@?$__crt_seh_guarded_call@H@@QEAAH$$QEAV<lambda_a37b2b86f63e897a80ea819b0eb08c01>@@AEAV<lambda_38ce7e780aa69e748d6df282ebc68efe>@@$$QEAV<lambda_99fb1378e971ab6e7edea83e3a7a83a2>@@@Z 000000018000e324 f   libucrt:commit.obj
 0001:0000d444       ?write_double_translated_ansi_nolock@@YA?AUwrite_result@?A0x17268360@@HQEBDI@Z 000000018000e444 f   libucrt:write.obj
 0001:0000d920       ?write_text_ansi_nolock@@YA?AUwrite_result@?A0x17268360@@HQEBDI@Z 000000018000e920 f   libucrt:write.obj
 0001:0000da24       ?write_text_utf16le_nolock@@YA?AUwrite_result@?A0x17268360@@HQEBDI@Z 000000018000ea24 f   libucrt:write.obj
 0001:0000db40       ?write_text_utf8_nolock@@YA?AUwrite_result@?A0x17268360@@HQEBDI@Z 000000018000eb40 f   libucrt:write.obj
 0001:0000e0c4       ?__acrt_LCMapStringA_stat@@YAHPEAU__crt_locale_pointers@@PEB_WKPEBDHPEADHHH@Z 000000018000f0c4 f   libucrt:lcmapstringa.obj
 0001:0000e9f8       ?free_crt_array_internal@@YAXQEAPEBX_K@Z 000000018000f9f8 f   libucrt:inittime.obj
 0001:0000f184       fallbackMethod             0000000180010184 f   libucrt:strpbrk.obj
 0001:0000f554       $LN78                      0000000180010554     libucrt:strpbrk.obj
 0001:0000f590       $LN77                      0000000180010590     libucrt:strpbrk.obj
 0001:0000f5d0       $LN76                      00000001800105d0     libucrt:strpbrk.obj
 0001:0000f6ac       ?initialize_multibyte@@YAHXZ 00000001800106ac f   libucrt:multibyte_initializer.obj
 0001:0000f77c       ?GetTableIndexFromLocaleName@@YAHPEB_W@Z 000000018001077c f   libucrt:lcidtoname_downlevel.obj
 0001:000115d0       memcpy_s                   00000001800125d0 f   libucrt:cfout.obj
 0001:00011658       ??$write_buffer_nolock@D@@YA_NDV__crt_stdio_stream@@@Z 0000000180012658 f   libucrt:_flsbuf.obj
 0001:0001173c       ??$write_buffer_nolock@_W@@YA_N_WV__crt_stdio_stream@@@Z 000000018001273c f   libucrt:_flsbuf.obj
 0001:00011824       ?stream_is_at_end_of_file_nolock@@YA_NV__crt_stdio_stream@@@Z 0000000180012824 f   libucrt:_flsbuf.obj
 0001:00011b64       ??$common_lseek@_J@@YA_JH_JH@Z 0000000180012b64 f   libucrt:lseek.obj
 0001:00011c54       ??$common_lseek_nolock@_J@@YA_JH_JH@Z 0000000180012c54 f   libucrt:lseek.obj
 0001:000120c0       $$000000                   00000001800130c0     libucrt:log10.obj
 0001:000126d4       ??$?RV<lambda_751a882b2c74d4b022dec766aa51a29a>@@AEAV<lambda_628dfdc04ba53c8bfc02c9951375f3f5>@@V<lambda_f6c7be5f7998530c34de24c7437d6b54>@@@?$__crt_seh_guarded_call@H@@QEAAH$$QEAV<lambda_751a882b2c74d4b022dec766aa51a29a>@@AEAV<lambda_628dfdc04ba53c8bfc02c9951375f3f5>@@$$QEAV<lambda_f6c7be5f7998530c34de24c7437d6b54>@@@Z 00000001800136d4 f   libucrt:close.obj
 0001:00012d7c       _call_matherr              0000000180013d7c f   libucrt:libm_error.obj
 0001:00012de4       _exception_enabled         0000000180013de4 f   libucrt:libm_error.obj
 0001:00013080       _log_special_common        0000000180014080 f   libucrt:log_special.obj
 0001:00013120       $$000000                   0000000180014120     libucrt:fpsr.obj
 0001:00013d70       $$000000                   0000000180014d70     LIBCMT:chkstk.obj
 0001:00013de0       $$000000                   0000000180014de0     libvcruntime:memcmp.obj
 0001:00014010       $$000000                   0000000180015010     LIBCMT:guard_dispatch.obj
 0001:00014030       __scrt_is_nonwritable_in_current_image$filt$0 0000000180015030 f   LIBCMT:utility.obj
 0001:00014048       ?fin$0@?0??dllmain_crt_process_attach@@YAHQEAUHINSTANCE__@@QEAX@Z@4HA 0000000180015048 f   LIBCMT:dll_dllmain.obj
 0001:0001405f       ?fin$0@?0??dllmain_crt_process_detach@@YAH_N@Z@4HA 000000018001505f f   LIBCMT:dll_dllmain.obj
 0001:0001407b       ?filt$0@?0??dllmain_dispatch@@YAHQEAUHINSTANCE__@@KQEAX@Z@4HA 000000018001507b f   LIBCMT:dll_dllmain.obj
 0001:000140b1       __DestructExceptionObject$filt$0 00000001800150b1 f   libvcruntime:ehhelpers.obj
 0001:000140c9       _query_new_handler$fin$0   00000001800150c9 f   libucrt:new_handler.obj
 0001:000140df       ?fin$0@?0???$?RV<lambda_7777bce6b2f8c936911f934f8298dc43>@@AEAV<lambda_f03950bc5685219e0bcd2087efbe011e>@@V<lambda_3883c3dff614d5e0c5f61bb1ac94921c>@@@?$__crt_seh_guarded_call@H@@QEAAH$$QEAV<lambda_7777bce6b2f8c936911f934f8298dc43>@@AEAV<lambda_f03950bc5685219e0bcd2087efbe011e>@@$$QEAV<lambda_3883c3dff614d5e0c5f61bb1ac94921c>@@@Z@4HA 00000001800150df f   libucrt:onexit.obj
 0001:000140df       ?fin$0@?0???$?RV<lambda_aa87e3671a710a21b5dc78c0bdf72e11>@@AEAV<lambda_92619d2358a28f41a33ba319515a20b9>@@V<lambda_6992ecaafeb10aed2b74cb1fae11a551>@@@?$__crt_seh_guarded_call@X@@QEAAX$$QEAV<lambda_aa87e3671a710a21b5dc78c0bdf72e11>@@AEAV<lambda_92619d2358a28f41a33ba319515a20b9>@@$$QEAV<lambda_6992ecaafeb10aed2b74cb1fae11a551>@@@Z@4HA 00000001800150df f   libucrt:per_thread_data.obj
 0001:000140df       ?fin$0@?0???$?RV<lambda_efdfa57d1f175319df784efa44bb7b81>@@AEAV<lambda_5f0a4c1567f8adc6734073e5d1e1b35c>@@V<lambda_2e8a7d3640ea6ccb4c2413664c2db6fd>@@@?$__crt_seh_guarded_call@X@@QEAAX$$QEAV<lambda_efdfa57d1f175319df784efa44bb7b81>@@AEAV<lambda_5f0a4c1567f8adc6734073e5d1e1b35c>@@$$QEAV<lambda_2e8a7d3640ea6ccb4c2413664c2db6fd>@@@Z@4HA 00000001800150df f   libucrt:mbctype.obj
 0001:000140df       ?fin$0@?0???$?RV<lambda_638799b9deba96c50f710eeac98168cd>@@AEAV<lambda_22ebabd17bc4fa466a2aca6d8deb888d>@@V<lambda_a6f7d7db0129f75315ebf26d50c089f1>@@@?$__crt_seh_guarded_call@H@@QEAAH$$QEAV<lambda_638799b9deba96c50f710eeac98168cd>@@AEAV<lambda_22ebabd17bc4fa466a2aca6d8deb888d>@@$$QEAV<lambda_a6f7d7db0129f75315ebf26d50c089f1>@@@Z@4HA 00000001800150df f   libucrt:onexit.obj
 0001:000140df       ?fin$0@?0???$?RV<lambda_2d41944a1d46af3157314b8a01080d33>@@AEAV<lambda_8f455de75cd7d7f24b4096f044d8b9e6>@@V<lambda_aa500f224e6afead328df44964fe2772>@@@?$__crt_seh_guarded_call@X@@QEAAX$$QEAV<lambda_2d41944a1d46af3157314b8a01080d33>@@AEAV<lambda_8f455de75cd7d7f24b4096f044d8b9e6>@@$$QEAV<lambda_aa500f224e6afead328df44964fe2772>@@@Z@4HA 00000001800150df f   libucrt:per_thread_data.obj
 0001:000140df       ?fin$0@?0???$?RV<lambda_d80eeec6fff315bfe5c115232f3240e3>@@AEAV<lambda_6e4b09c48022b2350581041d5f6b0c4c>@@V<lambda_2358e3775559c9db80273638284d5e45>@@@?$__crt_seh_guarded_call@X@@QEAAX$$QEAV<lambda_d80eeec6fff315bfe5c115232f3240e3>@@AEAV<lambda_6e4b09c48022b2350581041d5f6b0c4c>@@$$QEAV<lambda_2358e3775559c9db80273638284d5e45>@@@Z@4HA 00000001800150df f   libucrt:exit.obj
 0001:000140df       ?fin$0@?0???$?RV<lambda_0ae27a3a962d80f24befdcbee591983d>@@AEAV<lambda_8d0ee55de4b1038c4002e0adecdf1839>@@V<lambda_dc504788e8f1664fe9b84e20bfb512f2>@@@?$__crt_seh_guarded_call@X@@QEAAX$$QEAV<lambda_0ae27a3a962d80f24befdcbee591983d>@@AEAV<lambda_8d0ee55de4b1038c4002e0adecdf1839>@@$$QEAV<lambda_dc504788e8f1664fe9b84e20bfb512f2>@@@Z@4HA 00000001800150df f   libucrt:per_thread_data.obj
 0001:000140df       ?fin$0@?0???$?RV<lambda_f2e299630e499de9f9a165e60fcd3db5>@@AEAV<lambda_2ae9d31cdba2644fcbeaf08da7c24588>@@V<lambda_40d01ff24d0e7b3814fdbdcee8eab3c7>@@@?$__crt_seh_guarded_call@X@@QEAAX$$QEAV<lambda_f2e299630e499de9f9a165e60fcd3db5>@@AEAV<lambda_2ae9d31cdba2644fcbeaf08da7c24588>@@$$QEAV<lambda_40d01ff24d0e7b3814fdbdcee8eab3c7>@@@Z@4HA 00000001800150df f   libucrt:per_thread_data.obj
 0001:000140df       ?fin$0@?0???$?RV<lambda_450d765d439847d4c735a33c368b5fc0>@@AEAV<lambda_44731a7d0e6d81c3e6aa82d741081786>@@V<lambda_601a2a7da3b7a96e9554ac7215c4b07c>@@@?$__crt_seh_guarded_call@P6AXH@Z@@QEAAP6AXH@Z$$QEAV<lambda_450d765d439847d4c735a33c368b5fc0>@@AEAV<lambda_44731a7d0e6d81c3e6aa82d741081786>@@$$QEAV<lambda_601a2a7da3b7a96e9554ac7215c4b07c>@@@Z@4HA 00000001800150df f   libucrt:signal.obj
 0001:000140f9       ?filt$0@?0???R<lambda_6e4b09c48022b2350581041d5f6b0c4c>@@QEBA@XZ@4HA 00000001800150f9 f   libucrt:exit.obj
 0001:00014114       ?fin$0@?0???$?RV<lambda_0d412022a4b28cc8a401ea49574e8ae6>@@AEAV<lambda_a775ed57af18ba8e4d5dc780aa9068fe>@@V<lambda_975a71a6baa488a08f4e15f6b0339b9e>@@@?$__crt_seh_guarded_call@H@@QEAAH$$QEAV<lambda_0d412022a4b28cc8a401ea49574e8ae6>@@AEAV<lambda_a775ed57af18ba8e4d5dc780aa9068fe>@@$$QEAV<lambda_975a71a6baa488a08f4e15f6b0339b9e>@@@Z@4HA 0000000180015114 f   libucrt:output.obj
 0001:00014114       ?fin$0@?0???$?RV<lambda_c376a267cfb53b6959b3b692ec76b120>@@AEAV<lambda_9a32fed5bf61b6b509b2d3f6003082a1>@@V<lambda_572fbb9fa0ab338edf41edfd4b5fcc8d>@@@?$__crt_seh_guarded_call@H@@QEAAH$$QEAV<lambda_c376a267cfb53b6959b3b692ec76b120>@@AEAV<lambda_9a32fed5bf61b6b509b2d3f6003082a1>@@$$QEAV<lambda_572fbb9fa0ab338edf41edfd4b5fcc8d>@@@Z@4HA 0000000180015114 f   libucrt:fflush.obj
 0001:00014114       ?fin$0@?0???$?RV<lambda_842d9ff0dc9ef11c61343bbaebe7f885>@@AEAV<lambda_c5860995281e5c4ce005b3de8f5874ee>@@V<lambda_d90129c13df834fdcbf8d2b88dafcf2d>@@@?$__crt_seh_guarded_call@X@@QEAAX$$QEAV<lambda_842d9ff0dc9ef11c61343bbaebe7f885>@@AEAV<lambda_c5860995281e5c4ce005b3de8f5874ee>@@$$QEAV<lambda_d90129c13df834fdcbf8d2b88dafcf2d>@@@Z@4HA 0000000180015114 f   libucrt:fflush.obj
 0001:00014114       ?fin$0@?0???$?RV<lambda_84ec643ea9557e2f7dc01bb0e9624395>@@AEAV<lambda_ca71763b3c0644891230e4f79ea54fa6>@@V<lambda_439a761618c59b0600e24586724d733b>@@@?$__crt_seh_guarded_call@H@@QEAAH$$QEAV<lambda_84ec643ea9557e2f7dc01bb0e9624395>@@AEAV<lambda_ca71763b3c0644891230e4f79ea54fa6>@@$$QEAV<lambda_439a761618c59b0600e24586724d733b>@@@Z@4HA 0000000180015114 f   libucrt:setvbuf.obj
 0001:0001412f       ?fin$0@?0???$?RV<lambda_886d6c58226a84441f68b9f2b8217b83>@@AEAV<lambda_ab61a845afdef5b7c387490eaf3616ee>@@V<lambda_f7f22ab5edc0698d5f6905b0d3f44752>@@@?$__crt_seh_guarded_call@X@@QEAAX$$QEAV<lambda_886d6c58226a84441f68b9f2b8217b83>@@AEAV<lambda_ab61a845afdef5b7c387490eaf3616ee>@@$$QEAV<lambda_f7f22ab5edc0698d5f6905b0d3f44752>@@@Z@4HA 000000018001512f f   libucrt:fflush.obj
 0001:0001414c       raise$fin$0                000000018001514c f   libucrt:signal.obj
 0001:0001416d       ?fin$0@?0???$?RV<lambda_410d79af7f07d98d83a3f525b3859a53>@@AEAV<lambda_3e16ef9562a7dcce91392c22ab16ea36>@@V<lambda_38119f0e861e05405d8a144b9b982f0a>@@@?$__crt_seh_guarded_call@X@@QEAAX$$QEAV<lambda_410d79af7f07d98d83a3f525b3859a53>@@AEAV<lambda_3e16ef9562a7dcce91392c22ab16ea36>@@$$QEAV<lambda_38119f0e861e05405d8a144b9b982f0a>@@@Z@4HA 000000018001516d f   libucrt:wsetlocale.obj
 0001:00014187       ?fin$0@?0??update_thread_multibyte_data_internal@@YAPEAU__crt_multibyte_data@@QEAU__acrt_ptd@@QEAPEAU1@@Z@4HA 0000000180015187 f   libucrt:mbctype.obj
 0001:000141a0       __acrt_initialize_lowio$fin$0 00000001800151a0 f   libucrt:ioinit.obj
 0001:000141a0       __acrt_lowio_ensure_fh_exists$fin$0 00000001800151a0 f   libucrt:osfinfo.obj
 0001:000141b9       _fcloseall$fin$0           00000001800151b9 f   libucrt:closeall.obj
 0001:000141d2       ?fin$0@?0???$?RV<lambda_a37b2b86f63e897a80ea819b0eb08c01>@@AEAV<lambda_38ce7e780aa69e748d6df282ebc68efe>@@V<lambda_99fb1378e971ab6e7edea83e3a7a83a2>@@@?$__crt_seh_guarded_call@H@@QEAAH$$QEAV<lambda_a37b2b86f63e897a80ea819b0eb08c01>@@AEAV<lambda_38ce7e780aa69e748d6df282ebc68efe>@@$$QEAV<lambda_99fb1378e971ab6e7edea83e3a7a83a2>@@@Z@4HA 00000001800151d2 f   libucrt:commit.obj
 0001:000141d2       ?fin$0@?0???$?RV<lambda_751a882b2c74d4b022dec766aa51a29a>@@AEAV<lambda_628dfdc04ba53c8bfc02c9951375f3f5>@@V<lambda_f6c7be5f7998530c34de24c7437d6b54>@@@?$__crt_seh_guarded_call@H@@QEAAH$$QEAV<lambda_751a882b2c74d4b022dec766aa51a29a>@@AEAV<lambda_628dfdc04ba53c8bfc02c9951375f3f5>@@$$QEAV<lambda_f6c7be5f7998530c34de24c7437d6b54>@@@Z@4HA 00000001800151d2 f   libucrt:close.obj
 0001:000141ec       ?fin$0@?0???$common_lseek@_J@@YA_JH_JH@Z@4HA 00000001800151ec f   libucrt:lseek.obj
 0001:000141ec       _write$fin$0               00000001800151ec f   libucrt:write.obj
 0001:00014203       __acrt_update_thread_locale_data$fin$0 0000000180015203 f   libucrt:locale_refcounting.obj
 0001:0001421c       fclose$fin$0               000000018001521c f   libucrt:fclose.obj
 0001:00014234       _ctrlfp$filt$0             0000000180015234 f   libucrt:fpctrl.obj
 0001:00014260       _IsNonwritableInCurrentImage$filt$0 0000000180015260 f   LIBCMT:pesect.obj
 0001:00014280       ??__F?constructor@HashSetWrap@1@0V?$Persistent@VFunction@v8@@V?$NonCopyablePersistentTraits@VFunction@v8@@@2@@v8@@A@@YAXXZ 0000000180015280 f   hash_set_wrap.obj
 0002:00000270       ?h$initializer$@@3P6AXXZEA 0000000180016270     addon.obj
 0002:00000278       ??constructor$initializer$@HashSetWrap@1@0P6AXXZEA@@3P6AXXZEA 0000000180016278     hash_set_wrap.obj
 0002:00000280       ?h$initializer$@@3P6AXXZEA 0000000180016280     hash_set_wrap.obj
 0002:00000318       GS_ExceptionPointers       0000000180016318     LIBCMT:gs_report.obj
 0002:000003c0       ?ExceptionTemplate@?1??_CxxThrowException@@9@4UEHExceptionRecord@@B 00000001800163c0     libvcruntime:throw.obj
 0002:00000400       ?module_names@?A0x14c33c87@@3QBQEB_WB 0000000180016400     libvcruntime:winapi_downlevel.obj
 0002:000004d0       ?candidate_modules@?1??try_get_FlsAlloc@@YAP6AKP6AXPEAX@Z@ZXZ@4QBW4module_id@?A0x14c33c87@@B 00000001800164d0     libvcruntime:winapi_downlevel.obj
 0002:000004e8       ?candidate_modules@?1??try_get_FlsFree@@YAP6AHK@ZXZ@4QBW4module_id@?A0x14c33c87@@B 00000001800164e8     libvcruntime:winapi_downlevel.obj
 0002:000004f8       ?candidate_modules@?1??try_get_FlsGetValue@@YAP6APEAXK@ZXZ@4QBW4module_id@?A0x14c33c87@@B 00000001800164f8     libvcruntime:winapi_downlevel.obj
 0002:00000510       ?candidate_modules@?1??try_get_FlsSetValue@@YAP6AHKPEAX@ZXZ@4QBW4module_id@?A0x14c33c87@@B 0000000180016510     libvcruntime:winapi_downlevel.obj
 0002:00000528       ?candidate_modules@?1??try_get_InitializeCriticalSectionEx@@YAP6AHPEAU_RTL_CRITICAL_SECTION@@KK@ZXZ@4QBW4module_id@?A0x14c33c87@@B 0000000180016528     libvcruntime:winapi_downlevel.obj
 0002:00000560       ?tokenTable@@3QBQEBDB      0000000180016560     libvcruntime:undname.obj
 0002:000005e0       ?nameTable@@3QBQEBDB       00000001800165e0     libvcruntime:undname.obj
 0002:00000870       ?rttiTable@@3QBQEBDB       0000000180016870     libvcruntime:undname.obj
 0002:00001310       __acrt_initializers        0000000180017310     libucrt:initialization.obj
 0002:00001490       ?errtable@@3QBUerrentry@?A0x31fdb9ec@@B 0000000180017490     libucrt:errno.obj
 0002:00001c80       ?_mb_locale_names@@3QBQEB_WB 0000000180017c80     libucrt:mbctype.obj
 0002:00001ce0       ?module_names@?A0x391cf84c@@3QBQEB_WB 0000000180017ce0     libucrt:winapi_thunks.obj
 0002:00002288       ?candidate_modules@?1??try_get_AreFileApisANSI@@YAP6AHXZXZ@4QBW4module_id@?A0x391cf84c@@B 0000000180018288     libucrt:winapi_thunks.obj
 0002:000022a0       ?candidate_modules@?1??try_get_FlsAlloc@@YAP6AKP6AXPEAX@Z@ZXZ@4QBW4module_id@?A0x391cf84c@@B 00000001800182a0     libucrt:winapi_thunks.obj
 0002:000022b8       ?candidate_modules@?1??try_get_FlsFree@@YAP6AHK@ZXZ@4QBW4module_id@?A0x391cf84c@@B 00000001800182b8     libucrt:winapi_thunks.obj
 0002:000022c8       ?candidate_modules@?1??try_get_FlsGetValue@@YAP6APEAXK@ZXZ@4QBW4module_id@?A0x391cf84c@@B 00000001800182c8     libucrt:winapi_thunks.obj
 0002:000022e0       ?candidate_modules@?1??try_get_FlsSetValue@@YAP6AHKPEAX@ZXZ@4QBW4module_id@?A0x391cf84c@@B 00000001800182e0     libucrt:winapi_thunks.obj
 0002:000022f8       ?candidate_modules@?1??try_get_GetActiveWindow@@YAP6APEAUHWND__@@XZXZ@4QBW4module_id@?A0x391cf84c@@B 00000001800182f8     libucrt:winapi_thunks.obj
 0002:00002310       ?candidate_modules@?1??try_get_GetLastActivePopup@@YAP6APEAUHWND__@@PEAU2@@ZXZ@4QBW4module_id@?A0x391cf84c@@B 0000000180018310     libucrt:winapi_thunks.obj
 0002:00002330       ?candidate_modules@?1??try_get_GetProcessWindowStation@@YAP6APEAUHWINSTA__@@XZXZ@4QBW4module_id@?A0x391cf84c@@B 0000000180018330     libucrt:winapi_thunks.obj
 0002:00002350       ?candidate_modules@?1??try_get_GetUserObjectInformationW@@YAP6AHPEAXH0KPEAK@ZXZ@4QBW4module_id@?A0x391cf84c@@B 0000000180018350     libucrt:winapi_thunks.obj
 0002:00002378       ?candidate_modules@?1??try_get_InitializeCriticalSectionEx@@YAP6AHPEAU_RTL_CRITICAL_SECTION@@KK@ZXZ@4QBW4module_id@?A0x391cf84c@@B 0000000180018378     libucrt:winapi_thunks.obj
 0002:000023a0       ?candidate_modules@?1??try_get_LCMapStringEx@@YAP6AHPEB_WK0HPEA_WHPEAU_nlsversioninfo@@PEAX_J@ZXZ@4QBW4module_id@?A0x391cf84c@@B 00000001800183a0     libucrt:winapi_thunks.obj
 0002:000023b8       ?candidate_modules@?1??try_get_LocaleNameToLCID@@YAP6AKPEB_WK@ZXZ@4QBW4module_id@?A0x391cf84c@@B 00000001800183b8     libucrt:winapi_thunks.obj
 0002:000023d8       ?candidate_modules@?1??try_get_MessageBoxA@@YAP6AHPEAUHWND__@@PEBD1I@ZXZ@4QBW4module_id@?A0x391cf84c@@B 00000001800183d8     libucrt:winapi_thunks.obj
 0002:000023f0       ?candidate_modules@?1??try_get_MessageBoxW@@YAP6AHPEAUHWND__@@PEB_W1I@ZXZ@4QBW4module_id@?A0x391cf84c@@B 00000001800183f0     libucrt:winapi_thunks.obj
 0002:00002404       ?candidate_modules@?1??try_get_AppPolicyGetProcessTerminationMethod@@YAP6AJPEAXPEAW4AppPolicyProcessTerminationMethod@@@ZXZ@4QBW4module_id@?A0x391cf84c@@B 0000000180018404     libucrt:winapi_thunks.obj
 0002:00002430       ?candidate_modules@?1??try_get_AppPolicyGetShowDeveloperDiagnostic@@YAP6AJPEAXPEAW4AppPolicyShowDeveloperDiagnostic@@@ZXZ@4QBW4module_id@?A0x391cf84c@@B 0000000180018430     libucrt:winapi_thunks.obj
 0002:0000245c       ?candidate_modules@?1??try_get_AppPolicyGetWindowingModel@@YAP6AJPEAXPEAW4AppPolicyWindowingModel@@@ZXZ@4QBW4module_id@?A0x391cf84c@@B 000000018001845c     libucrt:winapi_thunks.obj
 0002:00002cf0       ?LcidToLocaleNameTable@?A0x881e4c05@@3QBULcidToLocaleName@1@B 0000000180018cf0     libucrt:lcidtoname_downlevel.obj
 0002:00004750       ?LocaleNameToIndexTable@?A0x881e4c05@@3QBULocaleNameIndex@1@B 000000018001a750     libucrt:lcidtoname_downlevel.obj
 0002:000069f0       __real_ninf                000000018001c9f0     libucrt:log10.obj
 0002:00006a00       __real_inf                 000000018001ca00     libucrt:log10.obj
 0002:00006a10       __real_neg_qnan            000000018001ca10     libucrt:log10.obj
 0002:00006a20       __real_qnanbit             000000018001ca20     libucrt:log10.obj
 0002:00006a30       __int_1023                 000000018001ca30     libucrt:log10.obj
 0002:00006a40       __mask_001                 000000018001ca40     libucrt:log10.obj
 0002:00006a50       __mask_mant                000000018001ca50     libucrt:log10.obj
 0002:00006a60       __mask_mant_top8           000000018001ca60     libucrt:log10.obj
 0002:00006a70       __mask_mant9               000000018001ca70     libucrt:log10.obj
 0002:00006a80       __real_log10_e             000000018001ca80     libucrt:log10.obj
 0002:00006a90       __real_log10_e_lead        000000018001ca90     libucrt:log10.obj
 0002:00006aa0       __real_log10_e_tail        000000018001caa0     libucrt:log10.obj
 0002:00006ab0       __real_log10_2_lead        000000018001cab0     libucrt:log10.obj
 0002:00006ac0       __real_log10_2_tail        000000018001cac0     libucrt:log10.obj
 0002:00006ad0       __real_two                 000000018001cad0     libucrt:log10.obj
 0002:00006ae0       __real_one                 000000018001cae0     libucrt:log10.obj
 0002:00006af0       __real_half                000000018001caf0     libucrt:log10.obj
 0002:00006b00       __mask_100                 000000018001cb00     libucrt:log10.obj
 0002:00006b10       __real_1_over_512          000000018001cb10     libucrt:log10.obj
 0002:00006b20       __real_1_over_2            000000018001cb20     libucrt:log10.obj
 0002:00006b30       __real_1_over_3            000000018001cb30     libucrt:log10.obj
 0002:00006b40       __real_1_over_4            000000018001cb40     libucrt:log10.obj
 0002:00006b50       __real_1_over_5            000000018001cb50     libucrt:log10.obj
 0002:00006b60       __real_1_over_6            000000018001cb60     libucrt:log10.obj
 0002:00006b70       __real_neg_1023            000000018001cb70     libucrt:log10.obj
 0002:00006b80       __mask_2045                000000018001cb80     libucrt:log10.obj
 0002:00006b90       __real_threshold           000000018001cb90     libucrt:log10.obj
 0002:00006ba0       __real_near_one_lt         000000018001cba0     libucrt:log10.obj
 0002:00006bb0       __real_near_one_gt         000000018001cbb0     libucrt:log10.obj
 0002:00006bc0       __real_min_norm            000000018001cbc0     libucrt:log10.obj
 0002:00006bd0       __real_notsign             000000018001cbd0     libucrt:log10.obj
 0002:00006be0       __real_ca1                 000000018001cbe0     libucrt:log10.obj
 0002:00006bf0       __real_ca2                 000000018001cbf0     libucrt:log10.obj
 0002:00006c00       __real_ca3                 000000018001cc00     libucrt:log10.obj
 0002:00006c10       __real_ca4                 000000018001cc10     libucrt:log10.obj
 0002:00006c20       __mask_lower               000000018001cc20     libucrt:log10.obj
 0002:00006c30       __flag_x_zero              000000018001cc30     libucrt:log10.obj
 0002:00006c34       __flag_x_neg               000000018001cc34     libucrt:log10.obj
 0002:00006c38       __flag_x_nan               000000018001cc38     libucrt:log10.obj
 0002:00008490       __real@433fffffffffffff    000000018001e490     libucrt:fpsr.obj
 0002:00008498       __real@c33fffffffffffff    000000018001e498     libucrt:fpsr.obj
 0002:00008690       ?precomputedArraySize@@3HA 000000018001e690     addon.obj
 0002:00008694       ?precomputedArraySize@@3HA 000000018001e694     hash_set_wrap.obj
 0002:00008698       ?precomputedArraySize@@3HA 000000018001e698     hashFn.obj
 0002:00008fa0       $unwind$?InitAll@HashSetWrap@@YAXV?$Local@VObject@v8@@@v8@@@Z 000000018001efa0     addon.obj
 0002:00008fb0       $unwind$?NODE_SET_PROTOTYPE_METHOD@node@@YAXV?$Local@VFunctionTemplate@v8@@@v8@@PEBDP6AXAEBV?$FunctionCallbackInfo@VValue@v8@@@3@@Z@Z 000000018001efb0     hash_set_wrap.obj
 0002:00008fc0       $unwind$__std_type_info_destroy_list 000000018001efc0     libvcruntime:std_type_info.obj
 0002:00008fc0       $unwind$__vcrt_freeptd     000000018001efc0     libvcruntime:per_thread_data.obj
 0002:00008fc0       $unwind$__std_exception_destroy 000000018001efc0     libvcruntime:std_exception.obj
 0002:00008fc0       $unwind$strcpy_s           000000018001efc0     libucrt:strcpy_s.obj
 0002:00008fc0       $unwind$fegetenv           000000018001efc0     libucrt:fegetenv.obj
 0002:00008fc0       $unwind$??_Gtype_info@@UEAAPEAXI@Z 000000018001efc0     LIBCMT:std_type_info_static.obj
 0002:00008fc0       $unwind$??0bad_array_new_length@std@@QEAA@AEBV01@@Z 000000018001efc0     LIBCMT:throw_bad_alloc.obj
 0002:00008fc0       $unwind$__vcrt_initialize_locks 000000018001efc0     libvcruntime:locks.obj
 0002:00008fc0       $unwind$uninitialize_allocated_memory 000000018001efc0     libucrt:initialization.obj
 0002:00008fc0       $unwind$??0exception@std@@QEAA@AEBV01@@Z 000000018001efc0     LIBCMT:throw_bad_alloc.obj
 0002:00008fc0       $unwind$fesetenv           000000018001efc0     libucrt:fesetenv.obj
 0002:00008fc0       $unwind$__raise_securityfailure 000000018001efc0     LIBCMT:gs_report.obj
 0002:00008fc0       $unwind$initialize_pointers 000000018001efc0     libucrt:initialization.obj
 0002:00008fc0       $unwind$__acrt_uninitialize_winapi_thunks 000000018001efc0     libucrt:winapi_thunks.obj
 0002:00008fc0       $unwind$__acrt_FlsAlloc    000000018001efc0     libucrt:winapi_thunks.obj
 0002:00008fc0       $unwind$__acrt_FlsFree     000000018001efc0     libucrt:winapi_thunks.obj
 0002:00008fc0       $unwind$__acrt_FlsGetValue 000000018001efc0     libucrt:winapi_thunks.obj
 0002:00008fc0       $unwind$__acrt_AppPolicyGetProcessTerminationMethodInternal 000000018001efc0     libucrt:winapi_thunks.obj
 0002:00008fc0       $unwind$__vcrt_uninitialize_locks 000000018001efc0     libvcruntime:locks.obj
 0002:00008fc0       $unwind$feholdexcept       000000018001efc0     libucrt:feholdexcept.obj
 0002:00008fc0       $unwind$__vcrt_FlsAlloc    000000018001efc0     libvcruntime:winapi_downlevel.obj
 0002:00008fc0       $unwind$_calloc_base       000000018001efc0     libucrt:calloc_base.obj
 0002:00008fc0       $unwind$__acrt_AppPolicyGetShowDeveloperDiagnosticInternal 000000018001efc0     libucrt:winapi_thunks.obj
 0002:00008fc0       $unwind$__acrt_AppPolicyGetWindowingModelInternal 000000018001efc0     libucrt:winapi_thunks.obj
 0002:00008fc0       $unwind$__acrt_get_parent_window 000000018001efc0     libucrt:winapi_thunks.obj
 0002:00008fc0       $unwind$__acrt_get_windowing_model_policy 000000018001efc0     libucrt:win_policies.obj
 0002:00008fc0       $unwind$__acrt_get_developer_information_policy 000000018001efc0     libucrt:win_policies.obj
 0002:00008fc0       $unwind$__acrt_get_process_end_policy 000000018001efc0     libucrt:win_policies.obj
 0002:00008fc0       $unwind$_malloc_base       000000018001efc0     libucrt:malloc_base.obj
 0002:00008fc0       $unwind$__acrt_uninitialize_locks 000000018001efc0     libucrt:locks.obj
 0002:00008fc0       $unwind$__acrt_initialize_locks 000000018001efc0     libucrt:locks.obj
 0002:00008fc0       $unwind$?DloadAcquireSectionWriteAccess@@YAXXZ 000000018001efc0     DelayImp:delayhlp.obj
 0002:00008fc0       $unwind$__acrt_update_multibyte_info 000000018001efc0     libucrt:locale_update.obj
 0002:00008fc0       $unwind$__acrt_update_locale_info 000000018001efc0     libucrt:locale_update.obj
 0002:00008fc0       $unwind$wcscat_s           000000018001efc0     libucrt:wcscat_s.obj
 0002:00008fc0       $unwind$__acrt_getptd_head 000000018001efc0     libucrt:per_thread_data.obj
 0002:00008fc0       $unwind$__vcrt_FlsFree     000000018001efc0     libvcruntime:winapi_downlevel.obj
 0002:00008fc0       $unwind$__vcrt_FlsGetValue 000000018001efc0     libvcruntime:winapi_downlevel.obj
 0002:00008fc0       $unwind$wcscpy_s           000000018001efc0     libucrt:wcscpy_s.obj
 0002:00008fc0       $unwind$__acrt_uninitialize_stdio 000000018001efc0     libucrt:_file.obj
 0002:00008fc0       $unwind$_set_statfp        000000018001efc0     libucrt:fpctrl.obj
 0002:00008fc0       $unwind$_clrfp             000000018001efc0     libucrt:fpctrl.obj
 0002:00008fc0       $unwind$_fflush_nolock     000000018001efc0     libucrt:fflush.obj
 0002:00008fc0       $unwind$?internal_isupper_l@@YA_NHQEAU__crt_locale_pointers@@@Z 000000018001efc0     libucrt:tolower_toupper.obj
 0002:00008fc0       $unwind$_callnewh          000000018001efc0     libucrt:new_handler.obj
 0002:00008fc0       $unwind$?try_cor_exit_process@@YAXI@Z 000000018001efc0     libucrt:exit.obj
 0002:00008fc0       $unwind$_clearfp           000000018001efc0     libucrt:ieee.obj
 0002:00008fc0       $unwind$??$Unwrap@VHashSetWrap@1@@ObjectWrap@node@@SAPEAVHashSetWrap@2@V?$Local@VObject@v8@@@v8@@@Z 000000018001efc0     hash_set_wrap.obj
 0002:00008fc0       $unwind$__scrt_uninitialize_crt 000000018001efc0     LIBCMT:utility.obj
 0002:00008fc0       $unwind$__scrt_initialize_crt 000000018001efc0     LIBCMT:utility.obj
 0002:00008fc0       $unwind$__scrt_release_startup_lock 000000018001efc0     LIBCMT:utility.obj
 0002:00008fc0       $unwind$_onexit            000000018001efc0     LIBCMT:utility.obj
 0002:00008fc0       $unwind$?exit_or_terminate_process@@YAXI@Z 000000018001efc0     libucrt:exit.obj
 0002:00008fc0       $unwind$__acrt_stdio_free_buffer_nolock 000000018001efc0     libucrt:_freebuf.obj
 0002:00008fc0       $unwind$__acrt_allocate_buffer_for_argv 000000018001efc0     libucrt:argv_parsing.obj
 0002:00008fc0       $unwind$??2@YAPEAX_K@Z     000000018001efc0     LIBCMT:new_scalar.obj
 0002:00008fc0       $unwind$??0bad_alloc@std@@QEAA@AEBV01@@Z 000000018001efc0     LIBCMT:throw_bad_alloc.obj
 0002:00008fc0       $unwind$?WeakCallback@ObjectWrap@node@@CAXAEBV?$WeakCallbackInfo@VObjectWrap@node@@@v8@@@Z 000000018001efc0     hash_set_wrap.obj
 0002:00008fc0       $unwind$?Unref@ObjectWrap@node@@MEAAXXZ 000000018001efc0     hash_set_wrap.obj
 0002:00008fc0       $unwind$?Ref@ObjectWrap@node@@MEAAXXZ 000000018001efc0     hash_set_wrap.obj
 0002:00008fc0       $unwind$?stream_is_at_end_of_file_nolock@@YA_NV__crt_stdio_stream@@@Z 000000018001efc0     libucrt:_flsbuf.obj
 0002:00008fc0       $unwind$?load_exe_hook@@YAP6A_JXZIPEAUDelayLoadInfo@@@Z 000000018001efc0     win_delay_load_hook.obj
 0002:00008fc0       $unwind$__acrt_freeptd     000000018001efc0     libucrt:per_thread_data.obj
 0002:00008fc8       $unwind$??_Gexception@std@@UEAAPEAXI@Z 000000018001efc8     LIBCMT:throw_bad_alloc.obj
 0002:00008fc8       $unwind$_RTC_Terminate     000000018001efc8     LIBCMT:initsect.obj
 0002:00008fc8       $unwind$_RTC_Initialize    000000018001efc8     LIBCMT:initsect.obj
 0002:00008fc8       $unwind$_updatetlocinfoEx_nolock 000000018001efc8     libucrt:locale_refcounting.obj
 0002:00008fc8       $unwind$__acrt_uninitialize_lowio 000000018001efc8     libucrt:ioinit.obj
 0002:00008fc8       $unwind$_close_nolock      000000018001efc8     libucrt:close.obj
 0002:00008fc8       $unwind$??_Gbad_array_new_length@std@@UEAAPEAXI@Z 000000018001efc8     LIBCMT:throw_bad_alloc.obj
 0002:00008fc8       $unwind$__acrt_stdio_allocate_buffer_nolock 000000018001efc8     libucrt:_getbuf.obj
 0002:00008fc8       $unwind$??_Gbad_alloc@std@@UEAAPEAXI@Z 000000018001efc8     LIBCMT:throw_bad_alloc.obj
 0002:00008fc8       $unwind$__acrt_execute_uninitializers 000000018001efc8     libucrt:shared_initialization.obj
 0002:00008fc8       $unwind$__acrt_stdio_begin_temporary_buffering_nolock 000000018001efc8     libucrt:_sftbuf.obj
 0002:00008fc8       $unwind$??_GObjectWrap@node@@UEAAPEAXI@Z 000000018001efc8     hash_set_wrap.obj
 0002:00008fc8       $unwind$?force_decimal_point@__crt_stdio_output@@YAXPEADQEAU__crt_locale_pointers@@@Z 000000018001efc8     libucrt:output.obj
 0002:00008fc8       $unwind$??0ExampleData@@QEAA@AEBV0@@Z 000000018001efc8     hash_set_wrap.obj
 0002:00008fc8       $unwind$__vcrt_FlsSetValue 000000018001efc8     libvcruntime:winapi_downlevel.obj
 0002:00008fc8       $unwind$_realloc_base      000000018001efc8     libucrt:realloc_base.obj
 0002:00008fc8       $unwind$_initterm_e        000000018001efc8     libucrt:initterm.obj
 0002:00008fc8       $unwind$__acrt_can_show_message_box 000000018001efc8     libucrt:winapi_thunks.obj
 0002:00008fc8       $unwind$strncpy_s          000000018001efc8     libucrt:strncpy_s.obj
 0002:00008fc8       $unwind$?replace_current_thread_locale_nolock@@YAXQEAU__acrt_ptd@@QEAU__crt_locale_data@@@Z 000000018001efc8     libucrt:per_thread_data.obj
 0002:00008fc8       $unwind$__acrt_errno_map_os_error 000000018001efc8     libucrt:errno.obj
 0002:00008fc8       $unwind$__acrt_fp_strflt_to_string 000000018001efc8     libucrt:_fptostr.obj
 0002:00008fc8       $unwind$wcsncat_s          000000018001efc8     libucrt:wcsncat_s.obj
 0002:00008fc8       $unwind$__acrt_FlsSetValue 000000018001efc8     libucrt:winapi_thunks.obj
 0002:00008fc8       $unwind$?DloadGetSRWLockFunctionPointers@@YAEXZ 000000018001efc8     DelayImp:delayhlp.obj
 0002:00008fc8       $unwind$__acrt_LocaleNameToLCID 000000018001efc8     libucrt:winapi_thunks.obj
 0002:00008fc8       $unwind$_fclose_nolock     000000018001efc8     libucrt:fclose.obj
 0002:00008fc8       $unwind$??$common_initialize_environment_nolock@D@@YAHXZ 000000018001efc8     libucrt:environment_initialization.obj
 0002:00008fd4       $unwind$??_GHashSetWrap@0@EEAAPEAXI@Z 000000018001efd4     hash_set_wrap.obj
 0002:00008fdc       $chain$1$??_GHashSetWrap@0@EEAAPEAXI@Z 000000018001efdc     hash_set_wrap.obj
 0002:00008ff4       $chain$2$??_GHashSetWrap@0@EEAAPEAXI@Z 000000018001eff4     hash_set_wrap.obj
 0002:00009008       $chain$5$??_GHashSetWrap@0@EEAAPEAXI@Z 000000018001f008     hash_set_wrap.obj
 0002:00009024       $chain$6$??_GHashSetWrap@0@EEAAPEAXI@Z 000000018001f024     hash_set_wrap.obj
 0002:00009034       $chain$7$??_GHashSetWrap@0@EEAAPEAXI@Z 000000018001f034     hash_set_wrap.obj
 0002:00009044       $chain$8$??_GHashSetWrap@0@EEAAPEAXI@Z 000000018001f044     hash_set_wrap.obj
 0002:00009054       $unwind$?New@HashSetWrap@1@CAXAEBV?$FunctionCallbackInfo@VValue@v8@@@v8@@@Z 000000018001f054     hash_set_wrap.obj
 0002:00009060       $chain$1$?New@HashSetWrap@1@CAXAEBV?$FunctionCallbackInfo@VValue@v8@@@v8@@@Z 000000018001f060     hash_set_wrap.obj
 0002:00009078       $chain$2$?New@HashSetWrap@1@CAXAEBV?$FunctionCallbackInfo@VValue@v8@@@v8@@@Z 000000018001f078     hash_set_wrap.obj
 0002:00009088       $unwind$?AddItem@HashSetWrap@1@CAXAEBV?$FunctionCallbackInfo@VValue@v8@@@v8@@@Z 000000018001f088     hash_set_wrap.obj
 0002:000090a0       $unwind$?ItemExists@HashSetWrap@1@CAXAEBV?$FunctionCallbackInfo@VValue@v8@@@v8@@@Z 000000018001f0a0     hash_set_wrap.obj
 0002:000090b8       $unwind$??$type_case_integer_parse_into_buffer@_K@?$output_processor@_WV?$stream_output_adapter@_W@__crt_stdio_output@@V?$standard_base@_WV?$stream_output_adapter@_W@__crt_stdio_output@@@2@@__crt_stdio_output@@AEAAX_KI_N@Z 000000018001f0b8     libucrt:output.obj
 0002:000090b8       $unwind$??$type_case_integer_parse_into_buffer@I@?$output_processor@_WV?$stream_output_adapter@_W@__crt_stdio_output@@V?$standard_base@_WV?$stream_output_adapter@_W@__crt_stdio_output@@@2@@__crt_stdio_output@@AEAAXII_N@Z 000000018001f0b8     libucrt:output.obj
 0002:000090b8       $unwind$??RHashFn@@UEAA_KPEBDHE_K@Z 000000018001f0b8     hashFn.obj
 0002:000090b8       $unwind$??$type_case_integer_parse_into_buffer@_K@?$output_processor@_WV?$string_output_adapter@_W@__crt_stdio_output@@V?$standard_base@_WV?$string_output_adapter@_W@__crt_stdio_output@@@2@@__crt_stdio_output@@AEAAX_KI_N@Z 000000018001f0b8     libucrt:output.obj
 0002:000090b8       $unwind$??$type_case_integer_parse_into_buffer@I@?$output_processor@_WV?$string_output_adapter@_W@__crt_stdio_output@@V?$standard_base@_WV?$string_output_adapter@_W@__crt_stdio_output@@@2@@__crt_stdio_output@@AEAAXII_N@Z 000000018001f0b8     libucrt:output.obj
 0002:000090c0       $unwind$??RHashFn@@UEAA_KPEBDH@Z 000000018001f0c0     hashFn.obj
 0002:000090cc       $chain$1$??RHashFn@@UEAA_KPEBDH@Z 000000018001f0cc     hashFn.obj
 0002:000090e4       $chain$2$??RHashFn@@UEAA_KPEBDH@Z 000000018001f0e4     hashFn.obj
 0002:000090f4       xdata                      000000018001f0f4     node:node.exe
 0002:00009100       $xdatasym                  000000018001f100     LIBCMT:amdsecgs.obj
 0002:00009104       $unwind$__scrt_dllmain_uninitialize_c 000000018001f104     LIBCMT:utility.obj
 0002:00009104       $unwind$__dcrt_uninitialize_environments_nolock 000000018001f104     libucrt:environment_initialization.obj
 0002:00009104       $unwind$__scrt_dllmain_uninitialize_critical 000000018001f104     LIBCMT:utility.obj
 0002:00009104       $unwind$__acrt_initialize_multibyte 000000018001f104     libucrt:mbctype.obj
 0002:00009104       $unwind$__scrt_dllmain_crt_thread_attach 000000018001f104     LIBCMT:utility.obj
 0002:00009104       $unwind$__acrt_update_thread_multibyte_data 000000018001f104     libucrt:mbctype.obj
 0002:00009104       $unwind$__scrt_dllmain_crt_thread_detach 000000018001f104     LIBCMT:utility.obj
 0002:00009104       $unwind$__scrt_dllmain_after_initialize_c 000000018001f104     LIBCMT:utility.obj
 0002:00009104       $unwind$__scrt_dllmain_before_initialize_c 000000018001f104     LIBCMT:utility.obj
 0002:00009104       $unwind$_msize_base        000000018001f104     libucrt:msize.obj
 0002:00009104       $unwind$tolower            000000018001f104     libucrt:tolower_toupper.obj
 0002:00009104       $unwind$??$uninitialize_environment_internal@D@@YAXAEAPEAPEAD@Z 000000018001f104     libucrt:environment_initialization.obj
 0002:00009104       $unwind$__acrt_initialize_ptd 000000018001f104     libucrt:per_thread_data.obj
 0002:00009104       $unwind$_fileno            000000018001f104     libucrt:fileno.obj
 0002:00009104       $unwind$__pctype_func      000000018001f104     libucrt:ctype.obj
 0002:00009104       $unwind$__doserrno         000000018001f104     libucrt:errno.obj
 0002:00009104       $unwind$__acrt_AreFileApisANSI 000000018001f104     libucrt:winapi_thunks.obj
 0002:00009104       $unwind$_errno             000000018001f104     libucrt:errno.obj
 0002:00009104       $unwind$uninitialize_allocated_io_buffers 000000018001f104     libucrt:initialization.obj
 0002:00009104       $unwind$uninitialize_environment 000000018001f104     libucrt:initialization.obj
 0002:00009104       $unwind$initialize_c       000000018001f104     libucrt:initialization.obj
 0002:00009104       $unwind$__acrt_thread_detach 000000018001f104     libucrt:initialization.obj
 0002:00009104       $unwind$_invoke_watson     000000018001f104     libucrt:invalid_parameter.obj
 0002:00009104       $unwind$__report_rangecheckfailure 000000018001f104     LIBCMT:gs_report.obj
 0002:00009104       $unwind$?DloadReleaseSectionWriteAccess@@YAXXZ 000000018001f104     DelayImp:delayhlp.obj
 0002:00009104       $unwind$__acrt_thread_attach 000000018001f104     libucrt:initialization.obj
 0002:00009104       $unwind$__acrt_uninitialize_critical 000000018001f104     libucrt:initialization.obj
 0002:00009104       $unwind$__acrt_uninitialize 000000018001f104     libucrt:initialization.obj
 0002:00009104       $unwind$_stricmp           000000018001f104     libucrt:stricmp.obj
 0002:00009104       $unwind$_isatty            000000018001f104     libucrt:isatty.obj
 0002:00009104       $unwind$__vcrt_uninitialize_ptd 000000018001f104     libvcruntime:per_thread_data.obj
 0002:00009104       $unwind$__scrt_acquire_startup_lock 000000018001f104     LIBCMT:utility.obj
 0002:00009104       $unwind$__acrt_uninitialize_ptd 000000018001f104     libucrt:per_thread_data.obj
 0002:00009104       $unwind$abort              000000018001f104     libucrt:abort.obj
 0002:00009104       $unwind$_set_errno_from_matherr 000000018001f104     libucrt:fpexcept.obj
 0002:00009104       $unwind$_statfp            000000018001f104     libucrt:fpctrl.obj
 0002:00009104       $unwind$?__c32rtomb_utf8@__crt_mbstring@@YA_KPEAD_UPEAU_Mbstatet@@@Z 000000018001f104     libucrt:c32rtomb.obj
 0002:00009104       $unwind$?state_case_size@?$output_processor@_WV?$stream_output_adapter@_W@__crt_stdio_output@@V?$standard_base@_WV?$stream_output_adapter@_W@__crt_stdio_output@@@2@@__crt_stdio_output@@AEAA_NXZ 000000018001f104     libucrt:output.obj
 0002:00009104       $unwind$__vcrt_freefls     000000018001f104     libvcruntime:per_thread_data.obj
 0002:00009104       $unwind$__acrt_initialize_command_line 000000018001f104     libucrt:argv_data.obj
 0002:00009104       $unwind$__acrt_DownlevelLocaleNameToLCID 000000018001f104     libucrt:lcidtoname_downlevel.obj
 0002:00009104       $unwind$__dcrt_terminate_console_output 000000018001f104     libucrt:initcon.obj
 0002:00009104       $unwind$__vcrt_initialize_ptd 000000018001f104     libvcruntime:per_thread_data.obj
 0002:00009104       $unwind$atexit             000000018001f104     LIBCMT:utility.obj
 0002:00009104       $unwind$??$uninitialize_environment_internal@_W@@YAXAEAPEAPEA_W@Z 000000018001f104     libucrt:environment_initialization.obj
 0002:00009104       $unwind$_get_osfhandle     000000018001f104     libucrt:osfinfo.obj
 0002:00009104       $unwind$__acrt_release_locale_ref 000000018001f104     libucrt:locale_refcounting.obj
 0002:00009104       $unwind$__scrt_initialize_default_local_stdio_options 000000018001f104     LIBCMT:default_local_stdio_options.obj
 0002:00009104       $unwind$__acrt_initialize_heap 000000018001f104     libucrt:heap_handle.obj
 0002:00009104       $unwind$?initialize_multibyte@@YAHXZ 000000018001f104     libucrt:multibyte_initializer.obj
 0002:00009104       $unwind$?dllmain_crt_dispatch@@YAHQEAUHINSTANCE__@@KQEAX@Z 000000018001f104     LIBCMT:dll_dllmain.obj
 0002:00009104       $unwind$?state_case_size@?$output_processor@_WV?$string_output_adapter@_W@__crt_stdio_output@@V?$standard_base@_WV?$string_output_adapter@_W@__crt_stdio_output@@@2@@__crt_stdio_output@@AEAA_NXZ 000000018001f104     libucrt:output.obj
 0002:00009104       $unwind$_set_error_mode    000000018001f104     libucrt:set_error_mode.obj
 0002:00009104       $unwind$__GSHandlerCheck   000000018001f104     LIBCMT:gshandler.obj
 0002:00009104       $unwind$__vcrt_initialize  000000018001f104     libvcruntime:initialization.obj
 0002:00009104       $unwind$__vcrt_uninitialize 000000018001f104     libvcruntime:initialization.obj
 0002:00009104       $unwind$__vcrt_thread_detach 000000018001f104     libvcruntime:initialization.obj
 0002:00009104       $unwind$__vcrt_uninitialize_critical 000000018001f104     libvcruntime:initialization.obj
 0002:00009104       $unwind$__vcrt_thread_attach 000000018001f104     libvcruntime:initialization.obj
 0002:0000910c       $unwind$__scrt_is_nonwritable_in_current_image 000000018001f10c     LIBCMT:utility.obj
 0002:0000912c       $unwind$__scrt_is_nonwritable_in_current_image$filt$0 000000018001f12c     LIBCMT:utility.obj
 0002:00009134       $unwind$?getSystemCP@@YAHH@Z 000000018001f134     libucrt:mbctype.obj
 0002:00009134       $unwind$__dcrt_lowio_ensure_console_output_initialized 000000018001f134     libucrt:initcon.obj
 0002:00009134       $unwind$_isleadbyte_l      000000018001f134     libucrt:_wctype.obj
 0002:00009134       $unwind$__scrt_initialize_onexit_tables 000000018001f134     LIBCMT:utility.obj
 0002:0000913c       $unwind$??$ensure_buffer_is_big_enough@D@formatting_buffer@__crt_stdio_output@@QEAA_N_K@Z 000000018001f13c     libucrt:output.obj
 0002:0000913c       $unwind$_seh_filter_exe    000000018001f13c     libucrt:exception_filter.obj
 0002:0000913c       $unwind$_wassert           000000018001f13c     libucrt:assert.obj
 0002:0000913c       $unwind$?setSBCS@@YAXPEAU__crt_multibyte_data@@@Z 000000018001f13c     libucrt:mbctype.obj
 0002:0000913c       $unwind$??$ensure_buffer_is_big_enough@_W@formatting_buffer@__crt_stdio_output@@QEAA_N_K@Z 000000018001f13c     libucrt:output.obj
 0002:0000913c       $unwind$__acrt_show_wide_message_box 000000018001f13c     libucrt:crtmbox.obj
 0002:0000913c       $unwind$__acrt_lowio_create_handle_array 000000018001f13c     libucrt:osfinfo.obj
 0002:0000913c       $unwind$__scrt_dllmain_exception_filter 000000018001f13c     LIBCMT:utility.obj
 0002:0000913c       $unwind$_initterm          000000018001f13c     libucrt:initterm.obj
 0002:0000913c       $unwind$__acrt_free_locale 000000018001f13c     libucrt:locale_refcounting.obj
 0002:0000913c       $unwind$_recalloc_base     000000018001f13c     libucrt:recalloc.obj
 0002:00009150       $unwind$?dllmain_crt_process_attach@@YAHQEAUHINSTANCE__@@QEAX@Z 000000018001f150     LIBCMT:dll_dllmain.obj
 0002:0000918c       $unwind$?fin$0@?0??dllmain_crt_process_detach@@YAH_N@Z@4HA 000000018001f18c     LIBCMT:dll_dllmain.obj
 0002:0000918c       $unwind$?fin$0@?0???$common_lseek@_J@@YA_JH_JH@Z@4HA 000000018001f18c     libucrt:lseek.obj
 0002:0000918c       $unwind$?fin$0@?0???$?RV<lambda_410d79af7f07d98d83a3f525b3859a53>@@AEAV<lambda_3e16ef9562a7dcce91392c22ab16ea36>@@V<lambda_38119f0e861e05405d8a144b9b982f0a>@@@?$__crt_seh_guarded_call@X@@QEAAX$$QEAV<lambda_410d79af7f07d98d83a3f525b3859a53>@@AEAV<lambda_3e16ef9562a7dcce91392c22ab16ea36>@@$$QEAV<lambda_38119f0e861e05405d8a144b9b982f0a>@@@Z@4HA 000000018001f18c     libucrt:wsetlocale.obj
 0002:0000918c       $unwind$?fin$0@?0???$?RV<lambda_450d765d439847d4c735a33c368b5fc0>@@AEAV<lambda_44731a7d0e6d81c3e6aa82d741081786>@@V<lambda_601a2a7da3b7a96e9554ac7215c4b07c>@@@?$__crt_seh_guarded_call@P6AXH@Z@@QEAAP6AXH@Z$$QEAV<lambda_450d765d439847d4c735a33c368b5fc0>@@AEAV<lambda_44731a7d0e6d81c3e6aa82d741081786>@@$$QEAV<lambda_601a2a7da3b7a96e9554ac7215c4b07c>@@@Z@4HA 000000018001f18c     libucrt:signal.obj
 0002:0000918c       $unwind$raise$fin$0        000000018001f18c     libucrt:signal.obj
 0002:0000918c       $unwind$?fin$0@?0???$?RV<lambda_0d412022a4b28cc8a401ea49574e8ae6>@@AEAV<lambda_a775ed57af18ba8e4d5dc780aa9068fe>@@V<lambda_975a71a6baa488a08f4e15f6b0339b9e>@@@?$__crt_seh_guarded_call@H@@QEAAH$$QEAV<lambda_0d412022a4b28cc8a401ea49574e8ae6>@@AEAV<lambda_a775ed57af18ba8e4d5dc780aa9068fe>@@$$QEAV<lambda_975a71a6baa488a08f4e15f6b0339b9e>@@@Z@4HA 000000018001f18c     libucrt:output.obj
 0002:0000918c       $unwind$?fin$0@?0???$?RV<lambda_751a882b2c74d4b022dec766aa51a29a>@@AEAV<lambda_628dfdc04ba53c8bfc02c9951375f3f5>@@V<lambda_f6c7be5f7998530c34de24c7437d6b54>@@@?$__crt_seh_guarded_call@H@@QEAAH$$QEAV<lambda_751a882b2c74d4b022dec766aa51a29a>@@AEAV<lambda_628dfdc04ba53c8bfc02c9951375f3f5>@@$$QEAV<lambda_f6c7be5f7998530c34de24c7437d6b54>@@@Z@4HA 000000018001f18c     libucrt:close.obj
 0002:0000918c       $unwind$__DestructExceptionObject$filt$0 000000018001f18c     libvcruntime:ehhelpers.obj
 0002:0000918c       $unwind$?fin$0@?0???$?RV<lambda_7777bce6b2f8c936911f934f8298dc43>@@AEAV<lambda_f03950bc5685219e0bcd2087efbe011e>@@V<lambda_3883c3dff614d5e0c5f61bb1ac94921c>@@@?$__crt_seh_guarded_call@H@@QEAAH$$QEAV<lambda_7777bce6b2f8c936911f934f8298dc43>@@AEAV<lambda_f03950bc5685219e0bcd2087efbe011e>@@$$QEAV<lambda_3883c3dff614d5e0c5f61bb1ac94921c>@@@Z@4HA 000000018001f18c     libucrt:onexit.obj
 0002:0000918c       $unwind$__acrt_initialize_lowio$fin$0 000000018001f18c     libucrt:ioinit.obj
 0002:0000918c       $unwind$?filt$0@?0???R<lambda_6e4b09c48022b2350581041d5f6b0c4c>@@QEBA@XZ@4HA 000000018001f18c     libucrt:exit.obj
 0002:0000918c       $unwind$_ctrlfp$filt$0     000000018001f18c     libucrt:fpctrl.obj
 0002:0000918c       $unwind$?fin$0@?0???$?RV<lambda_2d41944a1d46af3157314b8a01080d33>@@AEAV<lambda_8f455de75cd7d7f24b4096f044d8b9e6>@@V<lambda_aa500f224e6afead328df44964fe2772>@@@?$__crt_seh_guarded_call@X@@QEAAX$$QEAV<lambda_2d41944a1d46af3157314b8a01080d33>@@AEAV<lambda_8f455de75cd7d7f24b4096f044d8b9e6>@@$$QEAV<lambda_aa500f224e6afead328df44964fe2772>@@@Z@4HA 000000018001f18c     libucrt:per_thread_data.obj
 0002:0000918c       $unwind$_fcloseall$fin$0   000000018001f18c     libucrt:closeall.obj
 0002:0000918c       $unwind$?fin$0@?0???$?RV<lambda_84ec643ea9557e2f7dc01bb0e9624395>@@AEAV<lambda_ca71763b3c0644891230e4f79ea54fa6>@@V<lambda_439a761618c59b0600e24586724d733b>@@@?$__crt_seh_guarded_call@H@@QEAAH$$QEAV<lambda_84ec643ea9557e2f7dc01bb0e9624395>@@AEAV<lambda_ca71763b3c0644891230e4f79ea54fa6>@@$$QEAV<lambda_439a761618c59b0600e24586724d733b>@@@Z@4HA 000000018001f18c     libucrt:setvbuf.obj
 0002:0000918c       $unwind$_IsNonwritableInCurrentImage$filt$0 000000018001f18c     LIBCMT:pesect.obj
 0002:0000918c       $unwind$fclose$fin$0       000000018001f18c     libucrt:fclose.obj
 0002:0000918c       $unwind$?fin$0@?0??update_thread_multibyte_data_internal@@YAPEAU__crt_multibyte_data@@QEAU__acrt_ptd@@QEAPEAU1@@Z@4HA 000000018001f18c     libucrt:mbctype.obj
 0002:0000918c       $unwind$?fin$0@?0???$?RV<lambda_0ae27a3a962d80f24befdcbee591983d>@@AEAV<lambda_8d0ee55de4b1038c4002e0adecdf1839>@@V<lambda_dc504788e8f1664fe9b84e20bfb512f2>@@@?$__crt_seh_guarded_call@X@@QEAAX$$QEAV<lambda_0ae27a3a962d80f24befdcbee591983d>@@AEAV<lambda_8d0ee55de4b1038c4002e0adecdf1839>@@$$QEAV<lambda_dc504788e8f1664fe9b84e20bfb512f2>@@@Z@4HA 000000018001f18c     libucrt:per_thread_data.obj
 0002:0000918c       $unwind$?fin$0@?0???$?RV<lambda_a37b2b86f63e897a80ea819b0eb08c01>@@AEAV<lambda_38ce7e780aa69e748d6df282ebc68efe>@@V<lambda_99fb1378e971ab6e7edea83e3a7a83a2>@@@?$__crt_seh_guarded_call@H@@QEAAH$$QEAV<lambda_a37b2b86f63e897a80ea819b0eb08c01>@@AEAV<lambda_38ce7e780aa69e748d6df282ebc68efe>@@$$QEAV<lambda_99fb1378e971ab6e7edea83e3a7a83a2>@@@Z@4HA 000000018001f18c     libucrt:commit.obj
 0002:0000918c       $unwind$?fin$0@?0???$?RV<lambda_d80eeec6fff315bfe5c115232f3240e3>@@AEAV<lambda_6e4b09c48022b2350581041d5f6b0c4c>@@V<lambda_2358e3775559c9db80273638284d5e45>@@@?$__crt_seh_guarded_call@X@@QEAAX$$QEAV<lambda_d80eeec6fff315bfe5c115232f3240e3>@@AEAV<lambda_6e4b09c48022b2350581041d5f6b0c4c>@@$$QEAV<lambda_2358e3775559c9db80273638284d5e45>@@@Z@4HA 000000018001f18c     libucrt:exit.obj
 0002:0000918c       $unwind$?fin$0@?0???$?RV<lambda_efdfa57d1f175319df784efa44bb7b81>@@AEAV<lambda_5f0a4c1567f8adc6734073e5d1e1b35c>@@V<lambda_2e8a7d3640ea6ccb4c2413664c2db6fd>@@@?$__crt_seh_guarded_call@X@@QEAAX$$QEAV<lambda_efdfa57d1f175319df784efa44bb7b81>@@AEAV<lambda_5f0a4c1567f8adc6734073e5d1e1b35c>@@$$QEAV<lambda_2e8a7d3640ea6ccb4c2413664c2db6fd>@@@Z@4HA 000000018001f18c     libucrt:mbctype.obj
 0002:0000918c       $unwind$__acrt_update_thread_locale_data$fin$0 000000018001f18c     libucrt:locale_refcounting.obj
 0002:0000918c       $unwind$_write$fin$0       000000018001f18c     libucrt:write.obj
 0002:0000918c       $unwind$__acrt_lowio_ensure_fh_exists$fin$0 000000018001f18c     libucrt:osfinfo.obj
 0002:0000918c       $unwind$?fin$0@?0???$?RV<lambda_f2e299630e499de9f9a165e60fcd3db5>@@AEAV<lambda_2ae9d31cdba2644fcbeaf08da7c24588>@@V<lambda_40d01ff24d0e7b3814fdbdcee8eab3c7>@@@?$__crt_seh_guarded_call@X@@QEAAX$$QEAV<lambda_f2e299630e499de9f9a165e60fcd3db5>@@AEAV<lambda_2ae9d31cdba2644fcbeaf08da7c24588>@@$$QEAV<lambda_40d01ff24d0e7b3814fdbdcee8eab3c7>@@@Z@4HA 000000018001f18c     libucrt:per_thread_data.obj
 0002:0000918c       $unwind$?fin$0@?0???$?RV<lambda_842d9ff0dc9ef11c61343bbaebe7f885>@@AEAV<lambda_c5860995281e5c4ce005b3de8f5874ee>@@V<lambda_d90129c13df834fdcbf8d2b88dafcf2d>@@@?$__crt_seh_guarded_call@X@@QEAAX$$QEAV<lambda_842d9ff0dc9ef11c61343bbaebe7f885>@@AEAV<lambda_c5860995281e5c4ce005b3de8f5874ee>@@$$QEAV<lambda_d90129c13df834fdcbf8d2b88dafcf2d>@@@Z@4HA 000000018001f18c     libucrt:fflush.obj
 0002:0000918c       $unwind$?fin$0@?0???$?RV<lambda_c376a267cfb53b6959b3b692ec76b120>@@AEAV<lambda_9a32fed5bf61b6b509b2d3f6003082a1>@@V<lambda_572fbb9fa0ab338edf41edfd4b5fcc8d>@@@?$__crt_seh_guarded_call@H@@QEAAH$$QEAV<lambda_c376a267cfb53b6959b3b692ec76b120>@@AEAV<lambda_9a32fed5bf61b6b509b2d3f6003082a1>@@$$QEAV<lambda_572fbb9fa0ab338edf41edfd4b5fcc8d>@@@Z@4HA 000000018001f18c     libucrt:fflush.obj
 0002:0000918c       $unwind$?fin$0@?0???$?RV<lambda_886d6c58226a84441f68b9f2b8217b83>@@AEAV<lambda_ab61a845afdef5b7c387490eaf3616ee>@@V<lambda_f7f22ab5edc0698d5f6905b0d3f44752>@@@?$__crt_seh_guarded_call@X@@QEAAX$$QEAV<lambda_886d6c58226a84441f68b9f2b8217b83>@@AEAV<lambda_ab61a845afdef5b7c387490eaf3616ee>@@$$QEAV<lambda_f7f22ab5edc0698d5f6905b0d3f44752>@@@Z@4HA 000000018001f18c     libucrt:fflush.obj
 0002:0000918c       $unwind$?fin$0@?0???$?RV<lambda_638799b9deba96c50f710eeac98168cd>@@AEAV<lambda_22ebabd17bc4fa466a2aca6d8deb888d>@@V<lambda_a6f7d7db0129f75315ebf26d50c089f1>@@@?$__crt_seh_guarded_call@H@@QEAAH$$QEAV<lambda_638799b9deba96c50f710eeac98168cd>@@AEAV<lambda_22ebabd17bc4fa466a2aca6d8deb888d>@@$$QEAV<lambda_a6f7d7db0129f75315ebf26d50c089f1>@@@Z@4HA 000000018001f18c     libucrt:onexit.obj
 0002:0000918c       $unwind$?fin$0@?0??dllmain_crt_process_attach@@YAHQEAUHINSTANCE__@@QEAX@Z@4HA 000000018001f18c     LIBCMT:dll_dllmain.obj
 0002:0000918c       $unwind$_query_new_handler$fin$0 000000018001f18c     libucrt:new_handler.obj
 0002:0000918c       $unwind$?fin$0@?0???$?RV<lambda_aa87e3671a710a21b5dc78c0bdf72e11>@@AEAV<lambda_92619d2358a28f41a33ba319515a20b9>@@V<lambda_6992ecaafeb10aed2b74cb1fae11a551>@@@?$__crt_seh_guarded_call@X@@QEAAX$$QEAV<lambda_aa87e3671a710a21b5dc78c0bdf72e11>@@AEAV<lambda_92619d2358a28f41a33ba319515a20b9>@@$$QEAV<lambda_6992ecaafeb10aed2b74cb1fae11a551>@@@Z@4HA 000000018001f18c     libucrt:per_thread_data.obj
 0002:00009194       $unwind$?dllmain_crt_process_detach@@YAH_N@Z 000000018001f194     LIBCMT:dll_dllmain.obj
 0002:000091cc       $unwind$?dllmain_dispatch@@YAHQEAUHINSTANCE__@@KQEAX@Z 000000018001f1cc     LIBCMT:dll_dllmain.obj
 0002:000091f4       $unwind$?filt$0@?0??dllmain_dispatch@@YAHQEAUHINSTANCE__@@KQEAX@Z@4HA 000000018001f1f4     LIBCMT:dll_dllmain.obj
 0002:000091fc       $unwind$??0_LocaleUpdate@@QEAA@QEAU__crt_locale_pointers@@@Z 000000018001f1fc     libucrt:stricmp.obj
 0002:000091fc       $unwind$memcpy_s           000000018001f1fc     libucrt:cfout.obj
 0002:000091fc       $unwind$?type_case_s@?$output_processor@_WV?$stream_output_adapter@_W@__crt_stdio_output@@V?$standard_base@_WV?$stream_output_adapter@_W@__crt_stdio_output@@@2@@__crt_stdio_output@@AEAA_NXZ 000000018001f1fc     libucrt:output.obj
 0002:000091fc       $unwind$?type_case_n@?$output_processor@_WV?$stream_output_adapter@_W@__crt_stdio_output@@V?$standard_base@_WV?$stream_output_adapter@_W@__crt_stdio_output@@@2@@__crt_stdio_output@@AEAA_NXZ 000000018001f1fc     libucrt:output.obj
 0002:000091fc       $unwind$__acrt_stdio_flush_nolock 000000018001f1fc     libucrt:fflush.obj
 0002:000091fc       $unwind$??R<lambda_ca71763b3c0644891230e4f79ea54fa6>@@QEBAHXZ 000000018001f1fc     libucrt:setvbuf.obj
 0002:000091fc       $unwind$?type_case_Z@?$output_processor@_WV?$stream_output_adapter@_W@__crt_stdio_output@@V?$standard_base@_WV?$stream_output_adapter@_W@__crt_stdio_output@@@2@@__crt_stdio_output@@AEAA_NXZ 000000018001f1fc     libucrt:output.obj
 0002:000091fc       $unwind$?free_crt_array_internal@@YAXQEAPEBX_K@Z 000000018001f1fc     libucrt:inittime.obj
 0002:000091fc       $unwind$__acrt_stdio_flush_and_write_narrow_nolock 000000018001f1fc     libucrt:_flsbuf.obj
 0002:000091fc       $unwind$__acrt_getptd_noexit 000000018001f1fc     libucrt:per_thread_data.obj
 0002:000091fc       $unwind$__vcrt_getptd_noexit 000000018001f1fc     libvcruntime:per_thread_data.obj
 0002:000091fc       $unwind$?type_case_n@?$output_processor@_WV?$string_output_adapter@_W@__crt_stdio_output@@V?$standard_base@_WV?$string_output_adapter@_W@__crt_stdio_output@@@2@@__crt_stdio_output@@AEAA_NXZ 000000018001f1fc     libucrt:output.obj
 0002:000091fc       $unwind$__acrt_getptd      000000018001f1fc     libucrt:per_thread_data.obj
 0002:000091fc       $unwind$??$common_lseek_nolock@_J@@YA_JH_JH@Z 000000018001f1fc     libucrt:lseek.obj
 0002:000091fc       $unwind$__acrt_stdio_flush_and_write_wide_nolock 000000018001f1fc     libucrt:_flsbuf.obj
 0002:000091fc       $unwind$__vcrt_InitializeCriticalSectionEx 000000018001f1fc     libvcruntime:winapi_downlevel.obj
 0002:000091fc       $unwind$_exception_enabled 000000018001f1fc     libucrt:libm_error.obj
 0002:000091fc       $unwind$?type_case_s@?$output_processor@_WV?$string_output_adapter@_W@__crt_stdio_output@@V?$standard_base@_WV?$string_output_adapter@_W@__crt_stdio_output@@@2@@__crt_stdio_output@@AEAA_NXZ 000000018001f1fc     libucrt:output.obj
 0002:000091fc       $unwind$_DllMainCRTStartup 000000018001f1fc     LIBCMT:dll_dllmain.obj
 0002:000091fc       $unwind$__acrt_execute_initializers 000000018001f1fc     libucrt:shared_initialization.obj
 0002:000091fc       $unwind$?type_case_Z@?$output_processor@_WV?$string_output_adapter@_W@__crt_stdio_output@@V?$standard_base@_WV?$string_output_adapter@_W@__crt_stdio_output@@@2@@__crt_stdio_output@@AEAA_NXZ 000000018001f1fc     libucrt:output.obj
 0002:000091fc       $unwind$__acrt_InitializeCriticalSectionEx 000000018001f1fc     libucrt:winapi_thunks.obj
 0002:0000920c       $unwind$__report_securityfailure 000000018001f20c     LIBCMT:gs_report.obj
 0002:00009214       $unwind$__report_gsfailure 000000018001f214     LIBCMT:gs_report.obj
 0002:0000921c       $unwind$capture_current_context 000000018001f21c     LIBCMT:gs_report.obj
 0002:00009228       $unwind$capture_previous_context 000000018001f228     LIBCMT:gs_report.obj
 0002:00009234       $unwind$?__scrt_throw_std_bad_array_new_length@@YAXXZ 000000018001f234     LIBCMT:throw_bad_alloc.obj
 0002:00009234       $unwind$_raise_exc         000000018001f234     libucrt:fpexcept.obj
 0002:00009234       $unwind$?__scrt_throw_std_bad_alloc@@YAXXZ 000000018001f234     LIBCMT:throw_bad_alloc.obj
 0002:0000923c       $unwind$__isa_available_init 000000018001f23c     LIBCMT:cpu_disp.obj
 0002:0000924c       $unwind$__scrt_fastfail    000000018001f24c     LIBCMT:utility_desktop.obj
 0002:0000925c       $unwind$__security_init_cookie 000000018001f25c     LIBCMT:gs_support.obj
 0002:00009268       $xdatasym                  000000018001f268     LIBCMT:guard_dispatch.obj
 0002:0000926c       $unwind$__C_specific_handler 000000018001f26c     libvcruntime:riscchandler.obj
 0002:00009288       $unwind$__std_exception_copy 000000018001f288     libvcruntime:std_exception.obj
 0002:00009288       $unwind$_free_osfhnd       000000018001f288     libucrt:osfinfo.obj
 0002:0000929c       $unwind$_CxxThrowException 000000018001f29c     libvcruntime:throw.obj
 0002:000092b0       $xdatasym                  000000018001f2b0     libvcruntime:memset.obj
 0002:000092c0       $unwind$__acrt_initialize_winapi_thunks 000000018001f2c0     libucrt:winapi_thunks.obj
 0002:000092c0       $unwind$__vcrt_initialize_winapi_thunks 000000018001f2c0     libvcruntime:winapi_downlevel.obj
 0002:000092c8       $unwind$__acrt_stdio_end_temporary_buffering_nolock 000000018001f2c8     libucrt:_sftbuf.obj
 0002:000092c8       $unwind$__vcrt_uninitialize_winapi_thunks 000000018001f2c8     libvcruntime:winapi_downlevel.obj
 0002:000092d0       $unwind$?try_get_function@@YAPEAXW4function_id@?A0x14c33c87@@QEBDQEBW4module_id@2@2@Z 000000018001f2d0     libvcruntime:winapi_downlevel.obj
 0002:000092d0       $unwind$?try_get_function@@YAPEAXW4function_id@?A0x391cf84c@@QEBDQEBW4module_id@2@2@Z 000000018001f2d0     libucrt:winapi_thunks.obj
 0002:000092f0       $xdatasym                  000000018001f2f0     libvcruntime:notify.obj
 0002:000092fc       $unwind$__DestructExceptionObject 000000018001f2fc     libvcruntime:ehhelpers.obj
 0002:00009320       $xdatasym                  000000018001f320     libvcruntime:memcpy.obj
 0002:00009330       $xdatasym                  000000018001f330     libvcruntime:handlers.obj
 0002:00009340       $unwind$fwprintf           000000018001f340     libucrt:assert.obj
 0002:0000934c       $unwind$swprintf           000000018001f34c     libucrt:assert.obj
 0002:0000935c       $unwind$??$common_assert_to_stderr@_W@@YAXQEB_W0I@Z 000000018001f35c     libucrt:assert.obj
 0002:00009378       $unwind$??$common_assert_to_message_box@_W@@YAXQEB_W0IQEAX@Z 000000018001f378     libucrt:assert.obj
 0002:00009394       $unwind$??$common_assert_to_message_box_build_string@_W@@YAXQEA_W_KQEB_W2IQEAX@Z 000000018001f394     libucrt:assert.obj
 0002:000093b4       $unwind$_stricmp_l         000000018001f3b4     libucrt:stricmp.obj
 0002:000093b4       $unwind$?x_ismbbtype_l@@YAHPEAU__crt_locale_pointers@@IHH@Z 000000018001f3b4     libucrt:ismbbyte.obj
 0002:000093c4       $unwind$_query_new_handler 000000018001f3c4     libucrt:new_handler.obj
 0002:000093e4       $unwind$?common_exit@@YAXHW4_crt_exit_cleanup_mode@@W4_crt_exit_return_mode@@@Z 000000018001f3e4     libucrt:exit.obj
 0002:000093f0       $unwind$??R<lambda_6e4b09c48022b2350581041d5f6b0c4c>@@QEBA@XZ 000000018001f3f0     libucrt:exit.obj
 0002:00009410       $unwind$??$?RV<lambda_d80eeec6fff315bfe5c115232f3240e3>@@AEAV<lambda_6e4b09c48022b2350581041d5f6b0c4c>@@V<lambda_2358e3775559c9db80273638284d5e45>@@@?$__crt_seh_guarded_call@X@@QEAAX$$QEAV<lambda_d80eeec6fff315bfe5c115232f3240e3>@@AEAV<lambda_6e4b09c48022b2350581041d5f6b0c4c>@@$$QEAV<lambda_2358e3775559c9db80273638284d5e45>@@@Z 000000018001f410     libucrt:exit.obj
 0002:00009434       $unwind$_configure_narrow_argv 000000018001f434     libucrt:argv_parsing.obj
 0002:00009448       $unwind$??$parse_command_line@D@@YAXPEADPEAPEAD0PEA_K2@Z 000000018001f448     libucrt:argv_parsing.obj
 0002:00009448       $unwind$?write_string_impl@?$output_adapter_common@_WV?$stream_output_adapter@_W@__crt_stdio_output@@@__crt_stdio_output@@IEBAXQEB_WHQEAHAEAV__crt_deferred_errno_cache@@@Z 000000018001f448     libucrt:output.obj
 0002:00009464       $unwind$??$free_environment@D@@YAXQEAPEAD@Z 000000018001f464     libucrt:environment_initialization.obj
 0002:00009464       $unwind$??$free_environment@_W@@YAXQEAPEA_W@Z 000000018001f464     libucrt:environment_initialization.obj
 0002:00009470       $unwind$??$create_environment@D@@YAQEAPEADQEAD@Z 000000018001f470     libucrt:environment_initialization.obj
 0002:00009488       $unwind$_register_onexit_function 000000018001f488     libucrt:onexit.obj
 0002:00009490       $unwind$_execute_onexit_table 000000018001f490     libucrt:onexit.obj
 0002:00009498       $unwind$??R<lambda_22ebabd17bc4fa466a2aca6d8deb888d>@@QEBAHXZ 000000018001f498     libucrt:onexit.obj
 0002:000094b0       $unwind$?type_case_integer@?$output_processor@_WV?$string_output_adapter@_W@__crt_stdio_output@@V?$standard_base@_WV?$string_output_adapter@_W@__crt_stdio_output@@@2@@__crt_stdio_output@@AEAA_NI_N@Z 000000018001f4b0     libucrt:output.obj
 0002:000094b0       $unwind$??R<lambda_f03950bc5685219e0bcd2087efbe011e>@@QEBAHXZ 000000018001f4b0     libucrt:onexit.obj
 0002:000094b0       $unwind$?type_case_integer@?$output_processor@_WV?$stream_output_adapter@_W@__crt_stdio_output@@V?$standard_base@_WV?$stream_output_adapter@_W@__crt_stdio_output@@@2@@__crt_stdio_output@@AEAA_NI_N@Z 000000018001f4b0     libucrt:output.obj
 0002:000094b0       $unwind$??$common_xtox@K_W@@YAHKQEA_W_KI_N@Z 000000018001f4b0     libucrt:xtoa.obj
 0002:000094c8       $unwind$??$?RV<lambda_638799b9deba96c50f710eeac98168cd>@@AEAV<lambda_22ebabd17bc4fa466a2aca6d8deb888d>@@V<lambda_a6f7d7db0129f75315ebf26d50c089f1>@@@?$__crt_seh_guarded_call@H@@QEAAH$$QEAV<lambda_638799b9deba96c50f710eeac98168cd>@@AEAV<lambda_22ebabd17bc4fa466a2aca6d8deb888d>@@$$QEAV<lambda_a6f7d7db0129f75315ebf26d50c089f1>@@@Z 000000018001f4c8     libucrt:onexit.obj
 0002:000094ec       $unwind$??$?RV<lambda_7777bce6b2f8c936911f934f8298dc43>@@AEAV<lambda_f03950bc5685219e0bcd2087efbe011e>@@V<lambda_3883c3dff614d5e0c5f61bb1ac94921c>@@@?$__crt_seh_guarded_call@H@@QEAAH$$QEAV<lambda_7777bce6b2f8c936911f934f8298dc43>@@AEAV<lambda_f03950bc5685219e0bcd2087efbe011e>@@$$QEAV<lambda_3883c3dff614d5e0c5f61bb1ac94921c>@@@Z 000000018001f4ec     libucrt:onexit.obj
 0002:00009510       $unwind$terminate          000000018001f510     libucrt:terminate.obj
 0002:00009530       $unwind$__stdio_common_vfwprintf 000000018001f530     libucrt:output.obj
 0002:00009538       $unwind$??$common_vsprintf@Vstandard_base@__crt_stdio_output@@_W@@YAH_KQEA_W0QEB_WQEAU__crt_locale_pointers@@QEAD@Z 000000018001f538     libucrt:output.obj
 0002:00009558       $unwind$?process@?$output_processor@_WV?$string_output_adapter@_W@__crt_stdio_output@@V?$standard_base@_WV?$string_output_adapter@_W@__crt_stdio_output@@@2@@__crt_stdio_output@@QEAAHXZ 000000018001f558     libucrt:output.obj
 0002:00009558       $unwind$?process@?$output_processor@_WV?$stream_output_adapter@_W@__crt_stdio_output@@V?$standard_base@_WV?$stream_output_adapter@_W@__crt_stdio_output@@@2@@__crt_stdio_output@@QEAAHXZ 000000018001f558     libucrt:output.obj
 0002:0000956c       $unwind$?parse_int_from_format_string@?$output_processor@_WV?$stream_output_adapter@_W@__crt_stdio_output@@V?$standard_base@_WV?$stream_output_adapter@_W@__crt_stdio_output@@@2@@__crt_stdio_output@@AEAA_NQEAH@Z 000000018001f56c     libucrt:output.obj
 0002:0000956c       $unwind$?parse_int_from_format_string@?$output_processor@_WV?$string_output_adapter@_W@__crt_stdio_output@@V?$standard_base@_WV?$string_output_adapter@_W@__crt_stdio_output@@@2@@__crt_stdio_output@@AEAA_NQEAH@Z 000000018001f56c     libucrt:output.obj
 0002:00009580       $unwind$?state_case_type@?$output_processor@_WV?$stream_output_adapter@_W@__crt_stdio_output@@V?$standard_base@_WV?$stream_output_adapter@_W@__crt_stdio_output@@@2@@__crt_stdio_output@@AEAA_NXZ 000000018001f580     libucrt:output.obj
 0002:000095a0       $unwind$?type_case_c_tchar@?$output_processor@_WV?$string_output_adapter@_W@__crt_stdio_output@@V?$standard_base@_WV?$string_output_adapter@_W@__crt_stdio_output@@@2@@__crt_stdio_output@@AEAA_N_W@Z 000000018001f5a0     libucrt:output.obj
 0002:000095a0       $unwind$?type_case_c_tchar@?$output_processor@_WV?$stream_output_adapter@_W@__crt_stdio_output@@V?$standard_base@_WV?$stream_output_adapter@_W@__crt_stdio_output@@@2@@__crt_stdio_output@@AEAA_N_W@Z 000000018001f5a0     libucrt:output.obj
 0002:000095b0       $unwind$?type_case_a@?$output_processor@_WV?$string_output_adapter@_W@__crt_stdio_output@@V?$standard_base@_WV?$string_output_adapter@_W@__crt_stdio_output@@@2@@__crt_stdio_output@@AEAA_NXZ 000000018001f5b0     libucrt:output.obj
 0002:000095b0       $unwind$?type_case_a@?$output_processor@_WV?$stream_output_adapter@_W@__crt_stdio_output@@V?$standard_base@_WV?$stream_output_adapter@_W@__crt_stdio_output@@@2@@__crt_stdio_output@@AEAA_NXZ 000000018001f5b0     libucrt:output.obj
 0002:000095c0       $unwind$?write_stored_string_tchar@?$output_processor@_WV?$stream_output_adapter@_W@__crt_stdio_output@@V?$standard_base@_WV?$stream_output_adapter@_W@__crt_stdio_output@@@2@@__crt_stdio_output@@AEAA_N_W@Z 000000018001f5c0     libucrt:output.obj
 0002:000095d4       $unwind$??R<lambda_a775ed57af18ba8e4d5dc780aa9068fe>@@QEBAHXZ 000000018001f5d4     libucrt:output.obj
 0002:000095f4       $unwind$?write_string@?$string_output_adapter@_W@__crt_stdio_output@@QEBAXQEB_WHQEAHAEAV__crt_deferred_errno_cache@@@Z 000000018001f5f4     libucrt:output.obj
 0002:0000960c       $unwind$?state_case_type@?$output_processor@_WV?$string_output_adapter@_W@__crt_stdio_output@@V?$standard_base@_WV?$string_output_adapter@_W@__crt_stdio_output@@@2@@__crt_stdio_output@@AEAA_NXZ 000000018001f60c     libucrt:output.obj
 0002:00009630       $unwind$?write_stored_string_tchar@?$output_processor@_WV?$string_output_adapter@_W@__crt_stdio_output@@V?$standard_base@_WV?$string_output_adapter@_W@__crt_stdio_output@@@2@@__crt_stdio_output@@AEAA_N_W@Z 000000018001f630     libucrt:output.obj
 0002:00009644       $unwind$??$write_multiple_characters@V?$string_output_adapter@_W@__crt_stdio_output@@D@__crt_stdio_output@@YAXAEBV?$string_output_adapter@_W@0@DHQEAH@Z 000000018001f644     libucrt:output.obj
 0002:00009650       $unwind$??$write_multiple_characters@V?$stream_output_adapter@_W@__crt_stdio_output@@D@__crt_stdio_output@@YAXAEBV?$stream_output_adapter@_W@0@DHQEAH@Z 000000018001f650     libucrt:output.obj
 0002:00009668       $unwind$??$?RV<lambda_0d412022a4b28cc8a401ea49574e8ae6>@@AEAV<lambda_a775ed57af18ba8e4d5dc780aa9068fe>@@V<lambda_975a71a6baa488a08f4e15f6b0339b9e>@@@?$__crt_seh_guarded_call@H@@QEAAH$$QEAV<lambda_0d412022a4b28cc8a401ea49574e8ae6>@@AEAV<lambda_a775ed57af18ba8e4d5dc780aa9068fe>@@$$QEAV<lambda_975a71a6baa488a08f4e15f6b0339b9e>@@@Z 000000018001f668     libucrt:output.obj
 0002:0000968c       $unwind$??$parse_integer@KV?$c_string_character_source@_W@__crt_strtox@@@__crt_strtox@@YAKQEAU__crt_locale_pointers@@V?$c_string_character_source@_W@0@H_N@Z 000000018001f68c     libucrt:atox.obj
 0002:000096a8       $xdatasym                  000000018001f6a8     libucrt:strncmp.obj
 0002:000096ac       $unwind$_log10_special     000000018001f6ac     libucrt:log_special.obj
 0002:000096ac       $unwind$_itow_s            000000018001f6ac     libucrt:xtoa.obj
 0002:000096ac       $unwind$_invalid_parameter_noinfo 000000018001f6ac     libucrt:invalid_parameter.obj
 0002:000096ac       $unwind$wcstol             000000018001f6ac     libucrt:strtox.obj
 0002:000096ac       $unwind$fflush             000000018001f6ac     libucrt:fflush.obj
 0002:000096ac       $unwind$wctomb_s           000000018001f6ac     libucrt:wctomb.obj
 0002:000096b4       $unwind$__acrt_call_reportfault 000000018001f6b4     libucrt:invalid_parameter.obj
 0002:000096d4       $unwind$__acrt_MessageBoxW 000000018001f6d4     libucrt:winapi_thunks.obj
 0002:000096d4       $unwind$_invalid_parameter 000000018001f6d4     libucrt:invalid_parameter.obj
 0002:000096e8       $unwind$??$common_xtox_s@K_W@@YAHKQEA_W_KI_N@Z 000000018001f6e8     libucrt:xtoa.obj
 0002:000096e8       $unwind$?__mbrtowc_utf8@__crt_mbstring@@YA_KPEA_WPEBD_KPEAU_Mbstatet@@@Z 000000018001f6e8     libucrt:mbrtowc.obj
 0002:000096f0       $unwind$__acrt_GetModuleFileNameA 000000018001f6f0     libucrt:getmodulefilenamea.obj
 0002:0000970c       $unwind$__dcrt_write_console 000000018001f70c     libucrt:initcon.obj
 0002:0000970c       $unwind$??$__acrt_wcs_to_mbs_cp@U__crt_win32_buffer_no_resizing@@@@YAHQEB_WAEAV?$__crt_win32_buffer@DU__crt_win32_buffer_no_resizing@@@@I@Z 000000018001f70c     libucrt:getmodulefilenamea.obj
 0002:00009720       $unwind$__acrt_initialize_stdio 000000018001f720     libucrt:_file.obj
 0002:00009720       $unwind$?initialize_stdio_handles_nolock@@YAXXZ 000000018001f720     libucrt:ioinit.obj
 0002:00009738       $unwind$?common_flush_all@@YAH_N@Z 000000018001f738     libucrt:fflush.obj
 0002:00009740       $unwind$??$?RV<lambda_842d9ff0dc9ef11c61343bbaebe7f885>@@AEAV<lambda_c5860995281e5c4ce005b3de8f5874ee>@@V<lambda_d90129c13df834fdcbf8d2b88dafcf2d>@@@?$__crt_seh_guarded_call@X@@QEAAX$$QEAV<lambda_842d9ff0dc9ef11c61343bbaebe7f885>@@AEAV<lambda_c5860995281e5c4ce005b3de8f5874ee>@@$$QEAV<lambda_d90129c13df834fdcbf8d2b88dafcf2d>@@@Z 000000018001f740     libucrt:fflush.obj
 0002:00009764       $unwind$??$?RV<lambda_886d6c58226a84441f68b9f2b8217b83>@@AEAV<lambda_ab61a845afdef5b7c387490eaf3616ee>@@V<lambda_f7f22ab5edc0698d5f6905b0d3f44752>@@@?$__crt_seh_guarded_call@X@@QEAAX$$QEAV<lambda_886d6c58226a84441f68b9f2b8217b83>@@AEAV<lambda_ab61a845afdef5b7c387490eaf3616ee>@@$$QEAV<lambda_f7f22ab5edc0698d5f6905b0d3f44752>@@@Z 000000018001f764     libucrt:fflush.obj
 0002:0000978c       $unwind$??$?RV<lambda_c376a267cfb53b6959b3b692ec76b120>@@AEAV<lambda_9a32fed5bf61b6b509b2d3f6003082a1>@@V<lambda_572fbb9fa0ab338edf41edfd4b5fcc8d>@@@?$__crt_seh_guarded_call@H@@QEAAH$$QEAV<lambda_c376a267cfb53b6959b3b692ec76b120>@@AEAV<lambda_9a32fed5bf61b6b509b2d3f6003082a1>@@$$QEAV<lambda_572fbb9fa0ab338edf41edfd4b5fcc8d>@@@Z 000000018001f78c     libucrt:fflush.obj
 0002:000097b0       $unwind$setvbuf            000000018001f7b0     libucrt:setvbuf.obj
 0002:000097b8       $unwind$??$?RV<lambda_84ec643ea9557e2f7dc01bb0e9624395>@@AEAV<lambda_ca71763b3c0644891230e4f79ea54fa6>@@V<lambda_439a761618c59b0600e24586724d733b>@@@?$__crt_seh_guarded_call@H@@QEAAH$$QEAV<lambda_84ec643ea9557e2f7dc01bb0e9624395>@@AEAV<lambda_ca71763b3c0644891230e4f79ea54fa6>@@$$QEAV<lambda_439a761618c59b0600e24586724d733b>@@@Z 000000018001f7b8     libucrt:setvbuf.obj
 0002:000097dc       $unwind$__acrt_uninitialize_locale 000000018001f7dc     libucrt:wsetlocale.obj
 0002:000097dc       $unwind$__acrt_get_sigabrt_handler 000000018001f7dc     libucrt:signal.obj
 0002:000097e4       $unwind$raise              000000018001f7e4     libucrt:signal.obj
 0002:00009820       $unwind$??$?RV<lambda_450d765d439847d4c735a33c368b5fc0>@@AEAV<lambda_44731a7d0e6d81c3e6aa82d741081786>@@V<lambda_601a2a7da3b7a96e9554ac7215c4b07c>@@@?$__crt_seh_guarded_call@P6AXH@Z@@QEAAP6AXH@Z$$QEAV<lambda_450d765d439847d4c735a33c368b5fc0>@@AEAV<lambda_44731a7d0e6d81c3e6aa82d741081786>@@$$QEAV<lambda_601a2a7da3b7a96e9554ac7215c4b07c>@@@Z 000000018001f820     libucrt:signal.obj
 0002:00009844       $unwind$_tolower_l         000000018001f844     libucrt:tolower_toupper.obj
 0002:00009854       $unwind$?destroy_fls@@YAXPEAX@Z 000000018001f854     libucrt:per_thread_data.obj
 0002:00009854       $unwind$__acrt_locale_free_lc_time_if_unreferenced 000000018001f854     libucrt:locale_refcounting.obj
 0002:00009854       $unwind$__acrt_locale_free_numeric 000000018001f854     libucrt:initnum.obj
 0002:00009854       $unwind$_free_base         000000018001f854     libucrt:free_base.obj
 0002:0000985c       $unwind$?construct_ptd_array@@YAXQEAU__acrt_ptd@@@Z 000000018001f85c     libucrt:per_thread_data.obj
 0002:00009864       $unwind$?destroy_ptd_array@@YAXQEAU__acrt_ptd@@@Z 000000018001f864     libucrt:per_thread_data.obj
 0002:0000986c       $unwind$??$?RV<lambda_0ae27a3a962d80f24befdcbee591983d>@@AEAV<lambda_8d0ee55de4b1038c4002e0adecdf1839>@@V<lambda_dc504788e8f1664fe9b84e20bfb512f2>@@@?$__crt_seh_guarded_call@X@@QEAAX$$QEAV<lambda_0ae27a3a962d80f24befdcbee591983d>@@AEAV<lambda_8d0ee55de4b1038c4002e0adecdf1839>@@$$QEAV<lambda_dc504788e8f1664fe9b84e20bfb512f2>@@@Z 000000018001f86c     libucrt:per_thread_data.obj
 0002:00009890       $unwind$??$?RV<lambda_aa87e3671a710a21b5dc78c0bdf72e11>@@AEAV<lambda_92619d2358a28f41a33ba319515a20b9>@@V<lambda_6992ecaafeb10aed2b74cb1fae11a551>@@@?$__crt_seh_guarded_call@X@@QEAAX$$QEAV<lambda_aa87e3671a710a21b5dc78c0bdf72e11>@@AEAV<lambda_92619d2358a28f41a33ba319515a20b9>@@$$QEAV<lambda_6992ecaafeb10aed2b74cb1fae11a551>@@@Z 000000018001f890     libucrt:per_thread_data.obj
 0002:000098b4       $unwind$??$?RV<lambda_f2e299630e499de9f9a165e60fcd3db5>@@AEAV<lambda_2ae9d31cdba2644fcbeaf08da7c24588>@@V<lambda_40d01ff24d0e7b3814fdbdcee8eab3c7>@@@?$__crt_seh_guarded_call@X@@QEAAX$$QEAV<lambda_f2e299630e499de9f9a165e60fcd3db5>@@AEAV<lambda_2ae9d31cdba2644fcbeaf08da7c24588>@@$$QEAV<lambda_40d01ff24d0e7b3814fdbdcee8eab3c7>@@@Z 000000018001f8b4     libucrt:per_thread_data.obj
 0002:000098d8       $unwind$??$?RV<lambda_2d41944a1d46af3157314b8a01080d33>@@AEAV<lambda_8f455de75cd7d7f24b4096f044d8b9e6>@@V<lambda_aa500f224e6afead328df44964fe2772>@@@?$__crt_seh_guarded_call@X@@QEAAX$$QEAV<lambda_2d41944a1d46af3157314b8a01080d33>@@AEAV<lambda_8f455de75cd7d7f24b4096f044d8b9e6>@@$$QEAV<lambda_aa500f224e6afead328df44964fe2772>@@@Z 000000018001f8d8     libucrt:per_thread_data.obj
 0002:000098fc       $unwind$??$?RV<lambda_410d79af7f07d98d83a3f525b3859a53>@@AEAV<lambda_3e16ef9562a7dcce91392c22ab16ea36>@@V<lambda_38119f0e861e05405d8a144b9b982f0a>@@@?$__crt_seh_guarded_call@X@@QEAAX$$QEAV<lambda_410d79af7f07d98d83a3f525b3859a53>@@AEAV<lambda_3e16ef9562a7dcce91392c22ab16ea36>@@$$QEAV<lambda_38119f0e861e05405d8a144b9b982f0a>@@@Z 000000018001f8fc     libucrt:wsetlocale.obj
 0002:00009924       $unwind$??$__acrt_mbs_to_wcs_cp@U__crt_win32_buffer_internal_dynamic_resizing@@@@YAHQEBDAEAV?$__crt_win32_buffer@_WU__crt_win32_buffer_internal_dynamic_resizing@@@@I@Z 000000018001f924     libucrt:argv_wildcards.obj
 0002:0000993c       $unwind$?fp_format_f_internal@@YAHQEAD_KHQEAU_strflt@@_NQEAU__crt_locale_pointers@@@Z 000000018001f93c     libucrt:cvt.obj
 0002:0000993c       $unwind$??$__acrt_wcs_to_mbs_cp@U__crt_win32_buffer_internal_dynamic_resizing@@@@YAHQEB_WAEAV?$__crt_win32_buffer@DU__crt_win32_buffer_internal_dynamic_resizing@@@@I@Z 000000018001f93c     libucrt:argv_wildcards.obj
 0002:0000993c       $unwind$__dcrt_get_narrow_environment_from_os 000000018001f93c     libucrt:get_environment_from_os.obj
 0002:00009954       $unwind$??$common_expand_argv_wildcards@D@@YAHQEAPEADQEAPEAPEAD@Z 000000018001f954     libucrt:argv_wildcards.obj
 0002:0000996c       $unwind$??$copy_and_add_argument_to_buffer@D@@YAHQEBD0_KAEAV?$argument_list@D@?A0x5f5c8891@@@Z 000000018001f96c     libucrt:argv_wildcards.obj
 0002:00009988       $unwind$??$expand_argument_wildcards@D@@YAHQEAD0AEAV?$argument_list@D@?A0x5f5c8891@@@Z 000000018001f988     libucrt:argv_wildcards.obj
 0002:000099ac       $unwind$_setmbcp_nolock    000000018001f9ac     libucrt:mbctype.obj
 0002:000099cc       $unwind$?update_thread_multibyte_data_internal@@YAPEAU__crt_multibyte_data@@QEAU__acrt_ptd@@QEAPEAU1@@Z 000000018001f9cc     libucrt:mbctype.obj
 0002:000099f4       $unwind$?setmbcp_internal@@YAHH_NQEAU__acrt_ptd@@QEAPEAU__crt_multibyte_data@@@Z 000000018001f9f4     libucrt:mbctype.obj
 0002:00009a04       $unwind$?setSBUpLow@@YAXPEAU__crt_multibyte_data@@@Z 000000018001fa04     libucrt:mbctype.obj
 0002:00009a20       $unwind$??$?RV<lambda_efdfa57d1f175319df784efa44bb7b81>@@AEAV<lambda_5f0a4c1567f8adc6734073e5d1e1b35c>@@V<lambda_2e8a7d3640ea6ccb4c2413664c2db6fd>@@@?$__crt_seh_guarded_call@X@@QEAAX$$QEAV<lambda_efdfa57d1f175319df784efa44bb7b81>@@AEAV<lambda_5f0a4c1567f8adc6734073e5d1e1b35c>@@$$QEAV<lambda_2e8a7d3640ea6ccb4c2413664c2db6fd>@@@Z 000000018001fa20     libucrt:mbctype.obj
 0002:00009a44       $unwind$__acrt_WideCharToMultiByte 000000018001fa44     libucrt:widechartomultibyte.obj
 0002:00009a44       $unwind$__GSHandlerCheckCommon 000000018001fa44     LIBCMT:gshandler.obj
 0002:00009a4c       $unwind$?fp_format_e@@YAHQEBNQEAD_K12H_NIQEAU__crt_locale_pointers@@@Z 000000018001fa4c     libucrt:cvt.obj
 0002:00009a4c       $unwind$__acrt_LCMapStringEx 000000018001fa4c     libucrt:winapi_thunks.obj
 0002:00009a4c       $unwind$_mbtowc_l          000000018001fa4c     libucrt:mbtowc.obj
 0002:00009a60       $unwind$__acrt_is_interactive 000000018001fa60     libucrt:winapi_thunks.obj
 0002:00009a74       $unwind$__acrt_initialize_lowio 000000018001fa74     libucrt:ioinit.obj
 0002:00009a94       $unwind$?initialize_inherited_file_handles_nolock@@YAXXZ 000000018001fa94     libucrt:ioinit.obj
 0002:00009ab0       $unwind$_mbsdec_l          000000018001fab0     libucrt:mbsdec.obj
 0002:00009ab0       $unwind$isdigit            000000018001fab0     libucrt:_ctype.obj
 0002:00009abc       $unwind$_wctomb_s_l        000000018001fabc     libucrt:wctomb.obj
 0002:00009acc       $unwind$__acrt_fp_format   000000018001facc     libucrt:cvt.obj
 0002:00009ae0       $unwind$?fp_format_nan_or_infinity@@YAHW4__acrt_fp_class@@_NPEAD_K1@Z 000000018001fae0     libucrt:cvt.obj
 0002:00009af4       $unwind$?fp_format_e_internal@@YAHQEAD_KH_NIQEAU_strflt@@2QEAU__crt_locale_pointers@@@Z 000000018001faf4     libucrt:cvt.obj
 0002:00009b0c       $unwind$?fp_format_a@@YAHQEBNPEAD_KQEAD2H_NIQEAU__crt_locale_pointers@@@Z 000000018001fb0c     libucrt:cvt.obj
 0002:00009b28       $unwind$?fp_format_g@@YAHQEBNQEAD_K12H_NIQEAU__crt_locale_pointers@@@Z 000000018001fb28     libucrt:cvt.obj
 0002:00009b3c       $unwind$_fputwc_nolock     000000018001fb3c     libucrt:fputwc.obj
 0002:00009b58       $unwind$iswctype           000000018001fb58     libucrt:iswctype.obj
 0002:00009b64       $unwind$_isctype_l         000000018001fb64     libucrt:isctype.obj
 0002:00009b80       $unwind$_fcloseall         000000018001fb80     libucrt:closeall.obj
 0002:00009ba4       $unwind$_close             000000018001fba4     libucrt:close.obj
 0002:00009ba4       $unwind$_commit            000000018001fba4     libucrt:commit.obj
 0002:00009bac       $unwind$??$?RV<lambda_a37b2b86f63e897a80ea819b0eb08c01>@@AEAV<lambda_38ce7e780aa69e748d6df282ebc68efe>@@V<lambda_99fb1378e971ab6e7edea83e3a7a83a2>@@@?$__crt_seh_guarded_call@H@@QEAAH$$QEAV<lambda_a37b2b86f63e897a80ea819b0eb08c01>@@AEAV<lambda_38ce7e780aa69e748d6df282ebc68efe>@@$$QEAV<lambda_99fb1378e971ab6e7edea83e3a7a83a2>@@@Z 000000018001fbac     libucrt:commit.obj
 0002:00009bd0       $unwind$_write             000000018001fbd0     libucrt:write.obj
 0002:00009c00       $unwind$_write_nolock      000000018001fc00     libucrt:write.obj
 0002:00009c18       $unwind$?write_double_translated_ansi_nolock@@YA?AUwrite_result@?A0x17268360@@HQEBDI@Z 000000018001fc18     libucrt:write.obj
 0002:00009c3c       $unwind$?write_text_utf16le_nolock@@YA?AUwrite_result@?A0x17268360@@HQEBDI@Z 000000018001fc3c     libucrt:write.obj
 0002:00009c3c       $unwind$?write_text_ansi_nolock@@YA?AUwrite_result@?A0x17268360@@HQEBDI@Z 000000018001fc3c     libucrt:write.obj
 0002:00009c5c       $unwind$?write_text_utf8_nolock@@YA?AUwrite_result@?A0x17268360@@HQEBDI@Z 000000018001fc5c     libucrt:write.obj
 0002:00009c80       $unwind$__acrt_LCMapStringA 000000018001fc80     libucrt:lcmapstringa.obj
 0002:00009c90       $unwind$?__acrt_LCMapStringA_stat@@YAHPEAU__crt_locale_pointers@@PEB_WKPEBDHPEADHHH@Z 000000018001fc90     libucrt:lcmapstringa.obj
 0002:00009cb8       $unwind$__acrt_update_thread_locale_data 000000018001fcb8     libucrt:locale_refcounting.obj
 0002:00009cdc       $unwind$__acrt_locale_free_monetary 000000018001fcdc     libucrt:initmon.obj
 0002:00009ce4       $unwind$__acrt_locale_free_time 000000018001fce4     libucrt:inittime.obj
 0002:00009cf4       $unwind$__acrt_GetStringTypeA 000000018001fcf4     libucrt:getstringtypea.obj
 0002:00009d1c       $unwind$qsort              000000018001fd1c     libucrt:qsort.obj
 0002:00009d34       $chain$4$qsort             000000018001fd34     libucrt:qsort.obj
 0002:00009d58       $chain$5$qsort             000000018001fd58     libucrt:qsort.obj
 0002:00009d68       $unwind$strpbrk            000000018001fd68     libucrt:strpbrk.obj
 0002:00009d78       $unwind$fallbackMethod     000000018001fd78     libucrt:strpbrk.obj
 0002:00009d88       $unwind$?GetTableIndexFromLocaleName@@YAHPEB_W@Z 000000018001fd88     libucrt:lcidtoname_downlevel.obj
 0002:00009da0       $unwind$__acrt_lowio_destroy_handle_array 000000018001fda0     libucrt:osfinfo.obj
 0002:00009db0       $unwind$__acrt_lowio_ensure_fh_exists 000000018001fdb0     libucrt:osfinfo.obj
 0002:00009ddc       $unwind$?__mbsrtowcs_utf8@__crt_mbstring@@YA_KPEA_WPEAPEBD_KPEAU_Mbstatet@@@Z 000000018001fddc     libucrt:mbrtowc.obj
 0002:00009df4       $unwind$__acrt_fltout      000000018001fdf4     libucrt:cfout.obj
 0002:00009e14       $unwind$?divide@__crt_strtox@@YA_KAEAUbig_integer@1@AEBU21@@Z 000000018001fe14     libucrt:cfout.obj
 0002:00009e2c       $chain$0$?divide@__crt_strtox@@YA_KAEAUbig_integer@1@AEBU21@@Z 000000018001fe2c     libucrt:cfout.obj
 0002:00009e40       $chain$1$?divide@__crt_strtox@@YA_KAEAUbig_integer@1@AEBU21@@Z 000000018001fe40     libucrt:cfout.obj
 0002:00009e50       $unwind$??$write_buffer_nolock@D@@YA_NDV__crt_stdio_stream@@@Z 000000018001fe50     libucrt:_flsbuf.obj
 0002:00009e60       $unwind$??$write_buffer_nolock@_W@@YA_N_WV__crt_stdio_stream@@@Z 000000018001fe60     libucrt:_flsbuf.obj
 0002:00009e70       $unwind$fclose             000000018001fe70     libucrt:fclose.obj
 0002:00009e94       $unwind$??$common_lseek@_J@@YA_JH_JH@Z 000000018001fe94     libucrt:lseek.obj
 0002:00009ec4       $unwind$_putwch_nolock     000000018001fec4     libucrt:putwch.obj
 0002:00009ecc       $unwind$?__mbrtoc32_utf8@__crt_mbstring@@YA_KPEA_UPEBD_KPEAU_Mbstatet@@@Z 000000018001fecc     libucrt:mbrtoc32.obj
 0002:00009ee8       $xdatasym                  000000018001fee8     libucrt:log10.obj
 0002:00009ef4       $unwind$??$?RV<lambda_751a882b2c74d4b022dec766aa51a29a>@@AEAV<lambda_628dfdc04ba53c8bfc02c9951375f3f5>@@V<lambda_f6c7be5f7998530c34de24c7437d6b54>@@@?$__crt_seh_guarded_call@H@@QEAAH$$QEAV<lambda_751a882b2c74d4b022dec766aa51a29a>@@AEAV<lambda_628dfdc04ba53c8bfc02c9951375f3f5>@@$$QEAV<lambda_f6c7be5f7998530c34de24c7437d6b54>@@@Z 000000018001fef4     libucrt:close.obj
 0002:00009f18       $unwind$__acrt_fenv_set_control 000000018001ff18     libucrt:_fenvutils.obj
 0002:00009f28       $unwind$_call_matherr      000000018001ff28     libucrt:libm_error.obj
 0002:00009f30       $unwind$_handle_error      000000018001ff30     libucrt:libm_error.obj
 0002:00009f50       $unwind$__acrt_initialize_fma3 000000018001ff50     libucrt:fma3_available.obj
 0002:00009f58       $unwind$_log_special_common 000000018001ff58     libucrt:log_special.obj
 0002:00009f68       $xdatasym                  000000018001ff68     libucrt:fpsr.obj
 0002:00009f70       $unwind$_raise_exc_ex      000000018001ff70     libucrt:fpexcept.obj
 0002:00009f84       $unwind$_ctrlfp            000000018001ff84     libucrt:fpctrl.obj
 0002:00009fac       $unwind$?DloadObtainSection@@YAPEAXPEAK0@Z 000000018001ffac     DelayImp:delayhlp.obj
 0002:00009fbc       $unwind$?DloadMakePermanentImageCommit@@YAXPEAX_K@Z 000000018001ffbc     DelayImp:delayhlp.obj
 0002:00009fc8       $unwind$?DloadProtectSection@@YAXKPEAK@Z 000000018001ffc8     DelayImp:delayhlp.obj
 0002:00009fd8       $unwind$__delayLoadHelper2 000000018001ffd8     DelayImp:delayhlp.obj
 0002:00009ff0       $unwind$_IsNonwritableInCurrentImage 000000018001fff0     LIBCMT:pesect.obj
 0002:0000a018       $xdatasym                  0000000180020018     LIBCMT:chkstk.obj
 0002:0000a020       $xdatasym                  0000000180020020     libvcruntime:memcmp.obj
 0002:0000a024       $unwind$strrchr            0000000180020024     libvcruntime:strrchr.obj
 0002:0000ac00       .edata                     0000000180020c00     hashset-cpp.exp
 0002:0000ac28       rgpv                       0000000180020c28     hashset-cpp.exp
 0002:0000ac2c       rgszName                   0000000180020c2c     hashset-cpp.exp
 0002:0000ac30       rgwOrd                     0000000180020c30     hashset-cpp.exp
 0002:0000ac32       szName                     0000000180020c32     hashset-cpp.exp
 0002:0000ac43       $N00001                    0000000180020c43     hashset-cpp.exp
 0002:0000aeec       .idata$6                   0000000180020eec     kernel32:KERNEL32.dll
 0003:00000030       ?__vcrt_flsindex@@3KA      0000000180022030     libvcruntime:per_thread_data.obj
 0003:00000050       ?errno_no_memory@@3HA      0000000180022050     libucrt:errno.obj
 0003:00000054       ?doserrno_no_memory@@3KA   0000000180022054     libucrt:errno.obj
 0003:00000168       ?__acrt_flsindex@@3KA      0000000180022168     libucrt:per_thread_data.obj
 0003:000002e0       _mbctypes                  00000001800222e0     libucrt:mbctype.obj
 0003:000003f0       _mbcasemaps                00000001800223f0     libucrt:mbctype.obj
 0003:000004f0       ?__rgctypeflag@@3PADA      00000001800224f0     libucrt:mbctype.obj
 0003:00000500       ?__rgcode_page_info@@3PAUcode_page_info@@A 0000000180022500     libucrt:mbctype.obj
 0003:00000a20       ?__dcrt_lowio_console_output_handle@@3PEAXEA 0000000180022a20     libucrt:initcon.obj
 0003:00000a30       ?dazSupported@?1??_ctrlfp@@9@9 0000000180022a30     libucrt:fpctrl.obj
 0003:00000a50       _module                    0000000180022a50     addon.obj
 0003:00000c48       ?is_initialized_as_dll@@3_NA 0000000180022c48     LIBCMT:utility.obj
 0003:00000c49       ?module_local_atexit_table_initialized@@3_NA 0000000180022c49     LIBCMT:utility.obj
 0003:00000c50       ?module_local_atexit_table@@3U_onexit_table_t@@A 0000000180022c50     LIBCMT:utility.obj
 0003:00000c68       ?module_local_at_quick_exit_table@@3U_onexit_table_t@@A 0000000180022c68     LIBCMT:utility.obj
 0003:00000c80       ?__proc_attached@@3HA      0000000180022c80     LIBCMT:dll_dllmain.obj
 0003:00000c90       GS_ExceptionRecord         0000000180022c90     LIBCMT:gs_report.obj
 0003:00000d30       GS_ContextRecord           0000000180022d30     LIBCMT:gs_report.obj
 0003:00001230       ?__vcrt_startup_thread_ptd@@3U__vcrt_ptd@@A 0000000180023230     libvcruntime:per_thread_data.obj
 0003:000012c0       __vcrt_lock_table          00000001800232c0     libvcruntime:locks.obj
 0003:000012e8       __vcrt_locks_initialized   00000001800232e8     libvcruntime:locks.obj
 0003:000012f0       ?module_handles@@3PAPEAUHINSTANCE__@@A 00000001800232f0     libvcruntime:winapi_downlevel.obj
 0003:00001308       ?encoded_function_pointers@@3PAPEAXA 0000000180023308     libvcruntime:winapi_downlevel.obj
 0003:00001380       ?heap@@3V_HeapManager@@A   0000000180023380     libvcruntime:undname.obj
 0003:000013a8       ?__acrt_new_handler@@3V?$dual_state_global@P6AH_K@Z@__crt_state_management@@A 00000001800233a8     libucrt:new_handler.obj
 0003:000013b0       ?c_termination_complete@@3JA 00000001800233b0     libucrt:exit.obj
 0003:000013b8       ?thread_local_exit_callback_func@@3P6AXPEAXK0@ZEA 00000001800233b8     libucrt:exit.obj
 0003:000013d0       ?program_name@?1???$common_configure_argv@D@@YAHW4_crt_argv_mode@@@Z@4PADA 00000001800233d0     libucrt:argv_parsing.obj
 0003:00001528       ?__acrt_invalid_parameter_handler@@3V?$dual_state_global@P6AXPEB_W00I_K@Z@__crt_state_management@@A 0000000180023528     libucrt:invalid_parameter.obj
 0003:00001530       ?__acrt_app_type@@3W4_crt_app_type@@A 0000000180023530     libucrt:report_runtime_error.obj
 0003:00001534       __acrt_error_mode          0000000180023534     libucrt:set_error_mode.obj
 0003:00001550       ?ctrlc_action@@3V?$dual_state_global@P6AXH@Z@__crt_state_management@@A 0000000180023550     libucrt:signal.obj
 0003:00001558       ?ctrlbreak_action@@3V?$dual_state_global@P6AXH@Z@__crt_state_management@@A 0000000180023558     libucrt:signal.obj
 0003:00001560       ?abort_action@@3V?$dual_state_global@P6AXH@Z@__crt_state_management@@A 0000000180023560     libucrt:signal.obj
 0003:00001568       ?term_action@@3V?$dual_state_global@P6AXH@Z@__crt_state_management@@A 0000000180023568     libucrt:signal.obj
 0003:00001580       ?__acrt_lock_table@@3PAU_RTL_CRITICAL_SECTION@@A 0000000180023580     libucrt:locks.obj
 0003:000017b0       ?__acrt_locks_initialized@@3IA 00000001800237b0     libucrt:locks.obj
 0003:000017b4       ?state_cache@?1???$get_cached_win_policy@Udeveloper_information_policy_properties@?1??__acrt_get_developer_information_policy@@YA?AW4developer_information_policy@@XZ@@@YA?AW4developer_information_policy@@W4AppPolicyShowDeveloperDiagnostic@@@Z@4JA 00000001800237b4     libucrt:win_policies.obj
 0003:000017b8       ?state_cache@?1???$get_cached_win_policy@Uwindowing_model_policy_properties@?1??__acrt_get_windowing_model_policy@@YA?AW4windowing_model_policy@@XZ@@@YA?AW4windowing_model_policy@@W4AppPolicyWindowingModel@@@Z@4JA 00000001800237b8     libucrt:win_policies.obj
 0003:000017d8       ?fSystemSet@@3HA           00000001800237d8     libucrt:mbctype.obj
 0003:000017dc       ?initialized@?1??__acrt_initialize_multibyte@@9@4_NA 00000001800237dc     libucrt:mbctype.obj
 0003:00001810       ?module_handles@@3PAPEAUHINSTANCE__@@A 0000000180023810     libucrt:winapi_thunks.obj
 0003:000018b0       ?encoded_function_pointers@@3PAPEAXA 00000001800238b0     libucrt:winapi_thunks.obj
 0003:00001dd8       ?user_matherr@@3V?$dual_state_global@P6AHPEAU_exception@@@Z@__crt_state_management@@A 0000000180023dd8     libucrt:matherr.obj
 0003:00001df0       ?internal_state@?1??_mbtowc_l@@9@4U_Mbstatet@@A 0000000180023df0     libucrt:mbtowc.obj
 0003:00001df8       ?enable_percent_n@@3_KA    0000000180023df8     libucrt:printf_count_output.obj
 0003:00001e08       ?__acrt_global_new_mode@@3V?$dual_state_global@J@__crt_state_management@@A 0000000180023e08     libucrt:new_mode.obj
 0003:00001e10       ?internal_pst@?1??__mbrtoc32_utf8@__crt_mbstring@@YA_KPEA_UPEBD_KPEAU_Mbstatet@@@Z@4U3@A 0000000180023e10     libucrt:mbrtoc32.obj
 0003:00001e50       ?h@@3VHashFn@@A            0000000180023e50     addon.obj
 0003:00001f60       ?h@@3VHashFn@@A            0000000180023f60     hash_set_wrap.obj
 0004:00000000       $pdata$?InitAll@HashSetWrap@@YAXV?$Local@VObject@v8@@@v8@@@Z 0000000180025000     addon.obj
 0004:0000000c       $pdata$?NODE_SET_PROTOTYPE_METHOD@node@@YAXV?$Local@VFunctionTemplate@v8@@@v8@@PEBDP6AXAEBV?$FunctionCallbackInfo@VValue@v8@@@3@@Z@Z 000000018002500c     hash_set_wrap.obj
 0004:00000018       $pdata$?Ref@ObjectWrap@node@@MEAAXXZ 0000000180025018     hash_set_wrap.obj
 0004:00000024       $pdata$?Unref@ObjectWrap@node@@MEAAXXZ 0000000180025024     hash_set_wrap.obj
 0004:00000030       $pdata$?WeakCallback@ObjectWrap@node@@CAXAEBV?$WeakCallbackInfo@VObjectWrap@node@@@v8@@@Z 0000000180025030     hash_set_wrap.obj
 0004:0000003c       $pdata$??_GObjectWrap@node@@UEAAPEAXI@Z 000000018002503c     hash_set_wrap.obj
 0004:00000048       $pdata$??0ExampleData@@QEAA@AEBV0@@Z 0000000180025048     hash_set_wrap.obj
 0004:00000054       $pdata$??_GHashSetWrap@0@EEAAPEAXI@Z 0000000180025054     hash_set_wrap.obj
 0004:00000060       $pdata$1$??_GHashSetWrap@0@EEAAPEAXI@Z 0000000180025060     hash_set_wrap.obj
 0004:0000006c       $pdata$2$??_GHashSetWrap@0@EEAAPEAXI@Z 000000018002506c     hash_set_wrap.obj
 0004:00000078       $pdata$5$??_GHashSetWrap@0@EEAAPEAXI@Z 0000000180025078     hash_set_wrap.obj
 0004:00000084       $pdata$6$??_GHashSetWrap@0@EEAAPEAXI@Z 0000000180025084     hash_set_wrap.obj
 0004:00000090       $pdata$7$??_GHashSetWrap@0@EEAAPEAXI@Z 0000000180025090     hash_set_wrap.obj
 0004:0000009c       $pdata$8$??_GHashSetWrap@0@EEAAPEAXI@Z 000000018002509c     hash_set_wrap.obj
 0004:000000a8       $pdata$?New@HashSetWrap@1@CAXAEBV?$FunctionCallbackInfo@VValue@v8@@@v8@@@Z 00000001800250a8     hash_set_wrap.obj
 0004:000000b4       $pdata$1$?New@HashSetWrap@1@CAXAEBV?$FunctionCallbackInfo@VValue@v8@@@v8@@@Z 00000001800250b4     hash_set_wrap.obj
 0004:000000c0       $pdata$2$?New@HashSetWrap@1@CAXAEBV?$FunctionCallbackInfo@VValue@v8@@@v8@@@Z 00000001800250c0     hash_set_wrap.obj
 0004:000000cc       $pdata$?AddItem@HashSetWrap@1@CAXAEBV?$FunctionCallbackInfo@VValue@v8@@@v8@@@Z 00000001800250cc     hash_set_wrap.obj
 0004:000000d8       $pdata$?ItemExists@HashSetWrap@1@CAXAEBV?$FunctionCallbackInfo@VValue@v8@@@v8@@@Z 00000001800250d8     hash_set_wrap.obj
 0004:000000e4       $pdata$??$Unwrap@VHashSetWrap@1@@ObjectWrap@node@@SAPEAVHashSetWrap@2@V?$Local@VObject@v8@@@v8@@@Z 00000001800250e4     hash_set_wrap.obj
 0004:000000f0       $pdata$??RHashFn@@UEAA_KPEBDHE_K@Z 00000001800250f0     hashFn.obj
 0004:000000fc       $pdata$??RHashFn@@UEAA_KPEBDH@Z 00000001800250fc     hashFn.obj
 0004:00000108       $pdata$1$??RHashFn@@UEAA_KPEBDH@Z 0000000180025108     hashFn.obj
 0004:00000114       $pdata$2$??RHashFn@@UEAA_KPEBDH@Z 0000000180025114     hashFn.obj
 0004:00000120       $pdata$?load_exe_hook@@YAP6A_JXZIPEAUDelayLoadInfo@@@Z 0000000180025120     win_delay_load_hook.obj
 0004:00000144       $pdata$??2@YAPEAX_K@Z      0000000180025144     LIBCMT:new_scalar.obj
 0004:00000150       $pdata$__scrt_acquire_startup_lock 0000000180025150     LIBCMT:utility.obj
 0004:0000015c       $pdata$__scrt_dllmain_after_initialize_c 000000018002515c     LIBCMT:utility.obj
 0004:00000168       $pdata$__scrt_dllmain_before_initialize_c 0000000180025168     LIBCMT:utility.obj
 0004:00000174       $pdata$__scrt_dllmain_crt_thread_attach 0000000180025174     LIBCMT:utility.obj
 0004:00000180       $pdata$__scrt_dllmain_crt_thread_detach 0000000180025180     LIBCMT:utility.obj
 0004:0000018c       $pdata$__scrt_dllmain_exception_filter 000000018002518c     LIBCMT:utility.obj
 0004:00000198       $pdata$__scrt_dllmain_uninitialize_c 0000000180025198     LIBCMT:utility.obj
 0004:000001a4       $pdata$__scrt_dllmain_uninitialize_critical 00000001800251a4     LIBCMT:utility.obj
 0004:000001b0       $pdata$__scrt_initialize_crt 00000001800251b0     LIBCMT:utility.obj
 0004:000001bc       $pdata$__scrt_initialize_onexit_tables 00000001800251bc     LIBCMT:utility.obj
 0004:000001c8       $pdata$__scrt_is_nonwritable_in_current_image 00000001800251c8     LIBCMT:utility.obj
 0004:000001d4       $pdata$__scrt_release_startup_lock 00000001800251d4     LIBCMT:utility.obj
 0004:000001e0       $pdata$__scrt_uninitialize_crt 00000001800251e0     LIBCMT:utility.obj
 0004:000001ec       $pdata$_onexit             00000001800251ec     LIBCMT:utility.obj
 0004:000001f8       $pdata$atexit              00000001800251f8     LIBCMT:utility.obj
 0004:00000204       $pdata$?dllmain_crt_dispatch@@YAHQEAUHINSTANCE__@@KQEAX@Z 0000000180025204     LIBCMT:dll_dllmain.obj
 0004:00000210       $pdata$?dllmain_crt_process_attach@@YAHQEAUHINSTANCE__@@QEAX@Z 0000000180025210     LIBCMT:dll_dllmain.obj
 0004:0000021c       $pdata$?dllmain_crt_process_detach@@YAH_N@Z 000000018002521c     LIBCMT:dll_dllmain.obj
 0004:00000228       $pdata$?dllmain_dispatch@@YAHQEAUHINSTANCE__@@KQEAX@Z 0000000180025228     LIBCMT:dll_dllmain.obj
 0004:00000234       $pdata$_DllMainCRTStartup  0000000180025234     LIBCMT:dll_dllmain.obj
 0004:00000240       $pdata$__raise_securityfailure 0000000180025240     LIBCMT:gs_report.obj
 0004:0000024c       $pdata$__report_gsfailure  000000018002524c     LIBCMT:gs_report.obj
 0004:00000258       $pdata$__report_rangecheckfailure 0000000180025258     LIBCMT:gs_report.obj
 0004:00000264       $pdata$__report_securityfailure 0000000180025264     LIBCMT:gs_report.obj
 0004:00000270       $pdata$capture_current_context 0000000180025270     LIBCMT:gs_report.obj
 0004:0000027c       $pdata$capture_previous_context 000000018002527c     LIBCMT:gs_report.obj
 0004:00000288       $pdata$??0bad_alloc@std@@QEAA@AEBV01@@Z 0000000180025288     LIBCMT:throw_bad_alloc.obj
 0004:00000294       $pdata$??0bad_array_new_length@std@@QEAA@AEBV01@@Z 0000000180025294     LIBCMT:throw_bad_alloc.obj
 0004:000002a0       $pdata$??0exception@std@@QEAA@AEBV01@@Z 00000001800252a0     LIBCMT:throw_bad_alloc.obj
 0004:000002ac       $pdata$??_Gbad_alloc@std@@UEAAPEAXI@Z 00000001800252ac     LIBCMT:throw_bad_alloc.obj
 0004:000002ac       $pdata$??_Gexception@std@@UEAAPEAXI@Z 00000001800252ac     LIBCMT:throw_bad_alloc.obj
 0004:000002ac       $pdata$??_Gbad_array_new_length@std@@UEAAPEAXI@Z 00000001800252ac     LIBCMT:throw_bad_alloc.obj
 0004:000002b8       $pdata$?__scrt_throw_std_bad_alloc@@YAXXZ 00000001800252b8     LIBCMT:throw_bad_alloc.obj
 0004:000002c4       $pdata$?__scrt_throw_std_bad_array_new_length@@YAXXZ 00000001800252c4     LIBCMT:throw_bad_alloc.obj
 0004:000002d0       $pdata$__isa_available_init 00000001800252d0     LIBCMT:cpu_disp.obj
 0004:000002dc       $pdata$__scrt_fastfail     00000001800252dc     LIBCMT:utility_desktop.obj
 0004:000002e8       $pdata$__security_init_cookie 00000001800252e8     LIBCMT:gs_support.obj
 0004:000002f4       $pdata$__scrt_initialize_default_local_stdio_options 00000001800252f4     LIBCMT:default_local_stdio_options.obj
 0004:00000300       $pdata$_RTC_Initialize     0000000180025300     LIBCMT:initsect.obj
 0004:0000030c       $pdata$_RTC_Terminate      000000018002530c     LIBCMT:initsect.obj
 0004:00000318       $pdata$??_Gtype_info@@UEAAPEAXI@Z 0000000180025318     LIBCMT:std_type_info_static.obj
 0004:00000324       $pdata$__vcrt_initialize   0000000180025324     libvcruntime:initialization.obj
 0004:00000330       $pdata$__vcrt_thread_attach 0000000180025330     libvcruntime:initialization.obj
 0004:0000033c       $pdata$__vcrt_thread_detach 000000018002533c     libvcruntime:initialization.obj
 0004:00000348       $pdata$__vcrt_uninitialize 0000000180025348     libvcruntime:initialization.obj
 0004:00000354       $pdata$__vcrt_uninitialize_critical 0000000180025354     libvcruntime:initialization.obj
 0004:00000360       $pdata$__C_specific_handler 0000000180025360     libvcruntime:riscchandler.obj
 0004:0000036c       $pdata$__std_exception_copy 000000018002536c     libvcruntime:std_exception.obj
 0004:00000378       $pdata$__std_exception_destroy 0000000180025378     libvcruntime:std_exception.obj
 0004:00000384       $pdata$_CxxThrowException  0000000180025384     libvcruntime:throw.obj
 0004:000003a8       $pdata$__std_type_info_destroy_list 00000001800253a8     libvcruntime:std_type_info.obj
 0004:000003b4       $pdata$__vcrt_freefls      00000001800253b4     libvcruntime:per_thread_data.obj
 0004:000003c0       $pdata$__vcrt_freeptd      00000001800253c0     libvcruntime:per_thread_data.obj
 0004:000003cc       $pdata$__vcrt_getptd_noexit 00000001800253cc     libvcruntime:per_thread_data.obj
 0004:000003d8       $pdata$__vcrt_initialize_ptd 00000001800253d8     libvcruntime:per_thread_data.obj
 0004:000003e4       $pdata$__vcrt_uninitialize_ptd 00000001800253e4     libvcruntime:per_thread_data.obj
 0004:000003f0       $pdata$__vcrt_initialize_locks 00000001800253f0     libvcruntime:locks.obj
 0004:000003fc       $pdata$__vcrt_uninitialize_locks 00000001800253fc     libvcruntime:locks.obj
 0004:00000408       $pdata$?try_get_function@@YAPEAXW4function_id@?A0x14c33c87@@QEBDQEBW4module_id@2@2@Z 0000000180025408     libvcruntime:winapi_downlevel.obj
 0004:00000414       $pdata$__vcrt_FlsAlloc     0000000180025414     libvcruntime:winapi_downlevel.obj
 0004:00000420       $pdata$__vcrt_FlsFree      0000000180025420     libvcruntime:winapi_downlevel.obj
 0004:0000042c       $pdata$__vcrt_FlsGetValue  000000018002542c     libvcruntime:winapi_downlevel.obj
 0004:00000438       $pdata$__vcrt_FlsSetValue  0000000180025438     libvcruntime:winapi_downlevel.obj
 0004:00000444       $pdata$__vcrt_InitializeCriticalSectionEx 0000000180025444     libvcruntime:winapi_downlevel.obj
 0004:00000450       $pdata$__vcrt_initialize_winapi_thunks 0000000180025450     libvcruntime:winapi_downlevel.obj
 0004:0000045c       $pdata$__vcrt_uninitialize_winapi_thunks 000000018002545c     libvcruntime:winapi_downlevel.obj
 0004:0000048c       $pdata$__DestructExceptionObject 000000018002548c     libvcruntime:ehhelpers.obj
 0004:000004c8       $pdata$??$common_assert_to_message_box@_W@@YAXQEB_W0IQEAX@Z 00000001800254c8     libucrt:assert.obj
 0004:000004d4       $pdata$??$common_assert_to_message_box_build_string@_W@@YAXQEA_W_KQEB_W2IQEAX@Z 00000001800254d4     libucrt:assert.obj
 0004:000004e0       $pdata$??$common_assert_to_stderr@_W@@YAXQEB_W0I@Z 00000001800254e0     libucrt:assert.obj
 0004:000004ec       $pdata$_wassert            00000001800254ec     libucrt:assert.obj
 0004:000004f8       $pdata$fwprintf            00000001800254f8     libucrt:assert.obj
 0004:00000504       $pdata$swprintf            0000000180025504     libucrt:assert.obj
 0004:00000510       $pdata$??0_LocaleUpdate@@QEAA@QEAU__crt_locale_pointers@@@Z 0000000180025510     libucrt:stricmp.obj
 0004:0000051c       $pdata$_stricmp            000000018002551c     libucrt:stricmp.obj
 0004:00000528       $pdata$_stricmp_l          0000000180025528     libucrt:stricmp.obj
 0004:00000534       $pdata$_callnewh           0000000180025534     libucrt:new_handler.obj
 0004:00000540       $pdata$_query_new_handler  0000000180025540     libucrt:new_handler.obj
 0004:0000054c       $pdata$_seh_filter_exe     000000018002554c     libucrt:exception_filter.obj
 0004:00000558       $pdata$??$?RV<lambda_d80eeec6fff315bfe5c115232f3240e3>@@AEAV<lambda_6e4b09c48022b2350581041d5f6b0c4c>@@V<lambda_2358e3775559c9db80273638284d5e45>@@@?$__crt_seh_guarded_call@X@@QEAAX$$QEAV<lambda_d80eeec6fff315bfe5c115232f3240e3>@@AEAV<lambda_6e4b09c48022b2350581041d5f6b0c4c>@@$$QEAV<lambda_2358e3775559c9db80273638284d5e45>@@@Z 0000000180025558     libucrt:exit.obj
 0004:00000564       $pdata$??R<lambda_6e4b09c48022b2350581041d5f6b0c4c>@@QEBA@XZ 0000000180025564     libucrt:exit.obj
 0004:00000570       $pdata$?common_exit@@YAXHW4_crt_exit_cleanup_mode@@W4_crt_exit_return_mode@@@Z 0000000180025570     libucrt:exit.obj
 0004:0000057c       $pdata$?exit_or_terminate_process@@YAXI@Z 000000018002557c     libucrt:exit.obj
 0004:00000588       $pdata$?try_cor_exit_process@@YAXI@Z 0000000180025588     libucrt:exit.obj
 0004:00000594       $pdata$??$parse_command_line@D@@YAXPEADPEAPEAD0PEA_K2@Z 0000000180025594     libucrt:argv_parsing.obj
 0004:000005a0       $pdata$__acrt_allocate_buffer_for_argv 00000001800255a0     libucrt:argv_parsing.obj
 0004:000005ac       $pdata$_configure_narrow_argv 00000001800255ac     libucrt:argv_parsing.obj
 0004:000005b8       $pdata$??$common_initialize_environment_nolock@D@@YAHXZ 00000001800255b8     libucrt:environment_initialization.obj
 0004:000005c4       $pdata$??$create_environment@D@@YAQEAPEADQEAD@Z 00000001800255c4     libucrt:environment_initialization.obj
 0004:000005d0       $pdata$??$free_environment@D@@YAXQEAPEAD@Z 00000001800255d0     libucrt:environment_initialization.obj
 0004:000005d0       $pdata$??$free_environment@_W@@YAXQEAPEA_W@Z 00000001800255d0     libucrt:environment_initialization.obj
 0004:000005dc       $pdata$??$uninitialize_environment_internal@D@@YAXAEAPEAPEAD@Z 00000001800255dc     libucrt:environment_initialization.obj
 0004:000005e8       $pdata$??$uninitialize_environment_internal@_W@@YAXAEAPEAPEA_W@Z 00000001800255e8     libucrt:environment_initialization.obj
 0004:000005f4       $pdata$__dcrt_uninitialize_environments_nolock 00000001800255f4     libucrt:environment_initialization.obj
 0004:00000600       $pdata$??$?RV<lambda_638799b9deba96c50f710eeac98168cd>@@AEAV<lambda_22ebabd17bc4fa466a2aca6d8deb888d>@@V<lambda_a6f7d7db0129f75315ebf26d50c089f1>@@@?$__crt_seh_guarded_call@H@@QEAAH$$QEAV<lambda_638799b9deba96c50f710eeac98168cd>@@AEAV<lambda_22ebabd17bc4fa466a2aca6d8deb888d>@@$$QEAV<lambda_a6f7d7db0129f75315ebf26d50c089f1>@@@Z 0000000180025600     libucrt:onexit.obj
 0004:0000060c       $pdata$??$?RV<lambda_7777bce6b2f8c936911f934f8298dc43>@@AEAV<lambda_f03950bc5685219e0bcd2087efbe011e>@@V<lambda_3883c3dff614d5e0c5f61bb1ac94921c>@@@?$__crt_seh_guarded_call@H@@QEAAH$$QEAV<lambda_7777bce6b2f8c936911f934f8298dc43>@@AEAV<lambda_f03950bc5685219e0bcd2087efbe011e>@@$$QEAV<lambda_3883c3dff614d5e0c5f61bb1ac94921c>@@@Z 000000018002560c     libucrt:onexit.obj
 0004:00000618       $pdata$??R<lambda_22ebabd17bc4fa466a2aca6d8deb888d>@@QEBAHXZ 0000000180025618     libucrt:onexit.obj
 0004:00000624       $pdata$??R<lambda_f03950bc5685219e0bcd2087efbe011e>@@QEBAHXZ 0000000180025624     libucrt:onexit.obj
 0004:00000630       $pdata$_execute_onexit_table 0000000180025630     libucrt:onexit.obj
 0004:0000063c       $pdata$_register_onexit_function 000000018002563c     libucrt:onexit.obj
 0004:00000648       $pdata$initialize_c        0000000180025648     libucrt:initialization.obj
 0004:00000654       $pdata$uninitialize_environment 0000000180025654     libucrt:initialization.obj
 0004:00000660       $pdata$initialize_pointers 0000000180025660     libucrt:initialization.obj
 0004:0000066c       $pdata$uninitialize_allocated_memory 000000018002566c     libucrt:initialization.obj
 0004:00000678       $pdata$uninitialize_allocated_io_buffers 0000000180025678     libucrt:initialization.obj
 0004:00000684       $pdata$__acrt_thread_attach 0000000180025684     libucrt:initialization.obj
 0004:00000690       $pdata$__acrt_thread_detach 0000000180025690     libucrt:initialization.obj
 0004:0000069c       $pdata$__acrt_uninitialize 000000018002569c     libucrt:initialization.obj
 0004:000006a8       $pdata$__acrt_uninitialize_critical 00000001800256a8     libucrt:initialization.obj
 0004:000006b4       $pdata$_initterm           00000001800256b4     libucrt:initterm.obj
 0004:000006c0       $pdata$_initterm_e         00000001800256c0     libucrt:initterm.obj
 0004:000006cc       $pdata$terminate           00000001800256cc     libucrt:terminate.obj
 0004:000006d8       $pdata$strcpy_s            00000001800256d8     libucrt:strcpy_s.obj
 0004:000006e4       $pdata$abort               00000001800256e4     libucrt:abort.obj
 0004:000006f0       $pdata$??$?RV<lambda_0d412022a4b28cc8a401ea49574e8ae6>@@AEAV<lambda_a775ed57af18ba8e4d5dc780aa9068fe>@@V<lambda_975a71a6baa488a08f4e15f6b0339b9e>@@@?$__crt_seh_guarded_call@H@@QEAAH$$QEAV<lambda_0d412022a4b28cc8a401ea49574e8ae6>@@AEAV<lambda_a775ed57af18ba8e4d5dc780aa9068fe>@@$$QEAV<lambda_975a71a6baa488a08f4e15f6b0339b9e>@@@Z 00000001800256f0     libucrt:output.obj
 0004:000006fc       $pdata$??$common_vsprintf@Vstandard_base@__crt_stdio_output@@_W@@YAH_KQEA_W0QEB_WQEAU__crt_locale_pointers@@QEAD@Z 00000001800256fc     libucrt:output.obj
 0004:00000708       $pdata$??$ensure_buffer_is_big_enough@D@formatting_buffer@__crt_stdio_output@@QEAA_N_K@Z 0000000180025708     libucrt:output.obj
 0004:00000714       $pdata$??$ensure_buffer_is_big_enough@_W@formatting_buffer@__crt_stdio_output@@QEAA_N_K@Z 0000000180025714     libucrt:output.obj
 0004:00000720       $pdata$??$type_case_integer_parse_into_buffer@I@?$output_processor@_WV?$stream_output_adapter@_W@__crt_stdio_output@@V?$standard_base@_WV?$stream_output_adapter@_W@__crt_stdio_output@@@2@@__crt_stdio_output@@AEAAXII_N@Z 0000000180025720     libucrt:output.obj
 0004:00000720       $pdata$??$type_case_integer_parse_into_buffer@I@?$output_processor@_WV?$string_output_adapter@_W@__crt_stdio_output@@V?$standard_base@_WV?$string_output_adapter@_W@__crt_stdio_output@@@2@@__crt_stdio_output@@AEAAXII_N@Z 0000000180025720     libucrt:output.obj
 0004:0000072c       $pdata$??$type_case_integer_parse_into_buffer@_K@?$output_processor@_WV?$string_output_adapter@_W@__crt_stdio_output@@V?$standard_base@_WV?$string_output_adapter@_W@__crt_stdio_output@@@2@@__crt_stdio_output@@AEAAX_KI_N@Z 000000018002572c     libucrt:output.obj
 0004:0000072c       $pdata$??$type_case_integer_parse_into_buffer@_K@?$output_processor@_WV?$stream_output_adapter@_W@__crt_stdio_output@@V?$standard_base@_WV?$stream_output_adapter@_W@__crt_stdio_output@@@2@@__crt_stdio_output@@AEAAX_KI_N@Z 000000018002572c     libucrt:output.obj
 0004:00000738       $pdata$??$write_multiple_characters@V?$stream_output_adapter@_W@__crt_stdio_output@@D@__crt_stdio_output@@YAXAEBV?$stream_output_adapter@_W@0@DHQEAH@Z 0000000180025738     libucrt:output.obj
 0004:00000744       $pdata$??$write_multiple_characters@V?$string_output_adapter@_W@__crt_stdio_output@@D@__crt_stdio_output@@YAXAEBV?$string_output_adapter@_W@0@DHQEAH@Z 0000000180025744     libucrt:output.obj
 0004:00000750       $pdata$??R<lambda_a775ed57af18ba8e4d5dc780aa9068fe>@@QEBAHXZ 0000000180025750     libucrt:output.obj
 0004:0000075c       $pdata$?force_decimal_point@__crt_stdio_output@@YAXPEADQEAU__crt_locale_pointers@@@Z 000000018002575c     libucrt:output.obj
 0004:00000768       $pdata$?parse_int_from_format_string@?$output_processor@_WV?$stream_output_adapter@_W@__crt_stdio_output@@V?$standard_base@_WV?$stream_output_adapter@_W@__crt_stdio_output@@@2@@__crt_stdio_output@@AEAA_NQEAH@Z 0000000180025768     libucrt:output.obj
 0004:00000768       $pdata$?parse_int_from_format_string@?$output_processor@_WV?$string_output_adapter@_W@__crt_stdio_output@@V?$standard_base@_WV?$string_output_adapter@_W@__crt_stdio_output@@@2@@__crt_stdio_output@@AEAA_NQEAH@Z 0000000180025768     libucrt:output.obj
 0004:00000774       $pdata$?process@?$output_processor@_WV?$stream_output_adapter@_W@__crt_stdio_output@@V?$standard_base@_WV?$stream_output_adapter@_W@__crt_stdio_output@@@2@@__crt_stdio_output@@QEAAHXZ 0000000180025774     libucrt:output.obj
 0004:00000780       $pdata$?process@?$output_processor@_WV?$string_output_adapter@_W@__crt_stdio_output@@V?$standard_base@_WV?$string_output_adapter@_W@__crt_stdio_output@@@2@@__crt_stdio_output@@QEAAHXZ 0000000180025780     libucrt:output.obj
 0004:0000078c       $pdata$?state_case_size@?$output_processor@_WV?$stream_output_adapter@_W@__crt_stdio_output@@V?$standard_base@_WV?$stream_output_adapter@_W@__crt_stdio_output@@@2@@__crt_stdio_output@@AEAA_NXZ 000000018002578c     libucrt:output.obj
 0004:00000798       $pdata$?state_case_size@?$output_processor@_WV?$string_output_adapter@_W@__crt_stdio_output@@V?$standard_base@_WV?$string_output_adapter@_W@__crt_stdio_output@@@2@@__crt_stdio_output@@AEAA_NXZ 0000000180025798     libucrt:output.obj
 0004:000007a4       $pdata$?state_case_type@?$output_processor@_WV?$stream_output_adapter@_W@__crt_stdio_output@@V?$standard_base@_WV?$stream_output_adapter@_W@__crt_stdio_output@@@2@@__crt_stdio_output@@AEAA_NXZ 00000001800257a4     libucrt:output.obj
 0004:000007b0       $pdata$?state_case_type@?$output_processor@_WV?$string_output_adapter@_W@__crt_stdio_output@@V?$standard_base@_WV?$string_output_adapter@_W@__crt_stdio_output@@@2@@__crt_stdio_output@@AEAA_NXZ 00000001800257b0     libucrt:output.obj
 0004:000007bc       $pdata$?type_case_Z@?$output_processor@_WV?$stream_output_adapter@_W@__crt_stdio_output@@V?$standard_base@_WV?$stream_output_adapter@_W@__crt_stdio_output@@@2@@__crt_stdio_output@@AEAA_NXZ 00000001800257bc     libucrt:output.obj
 0004:000007bc       $pdata$?type_case_Z@?$output_processor@_WV?$string_output_adapter@_W@__crt_stdio_output@@V?$standard_base@_WV?$string_output_adapter@_W@__crt_stdio_output@@@2@@__crt_stdio_output@@AEAA_NXZ 00000001800257bc     libucrt:output.obj
 0004:000007c8       $pdata$?type_case_a@?$output_processor@_WV?$stream_output_adapter@_W@__crt_stdio_output@@V?$standard_base@_WV?$stream_output_adapter@_W@__crt_stdio_output@@@2@@__crt_stdio_output@@AEAA_NXZ 00000001800257c8     libucrt:output.obj
 0004:000007c8       $pdata$?type_case_a@?$output_processor@_WV?$string_output_adapter@_W@__crt_stdio_output@@V?$standard_base@_WV?$string_output_adapter@_W@__crt_stdio_output@@@2@@__crt_stdio_output@@AEAA_NXZ 00000001800257c8     libucrt:output.obj
 0004:000007d4       $pdata$?type_case_c_tchar@?$output_processor@_WV?$stream_output_adapter@_W@__crt_stdio_output@@V?$standard_base@_WV?$stream_output_adapter@_W@__crt_stdio_output@@@2@@__crt_stdio_output@@AEAA_N_W@Z 00000001800257d4     libucrt:output.obj
 0004:000007d4       $pdata$?type_case_c_tchar@?$output_processor@_WV?$string_output_adapter@_W@__crt_stdio_output@@V?$standard_base@_WV?$string_output_adapter@_W@__crt_stdio_output@@@2@@__crt_stdio_output@@AEAA_N_W@Z 00000001800257d4     libucrt:output.obj
 0004:000007e0       $pdata$?type_case_integer@?$output_processor@_WV?$stream_output_adapter@_W@__crt_stdio_output@@V?$standard_base@_WV?$stream_output_adapter@_W@__crt_stdio_output@@@2@@__crt_stdio_output@@AEAA_NI_N@Z 00000001800257e0     libucrt:output.obj
 0004:000007e0       $pdata$?type_case_integer@?$output_processor@_WV?$string_output_adapter@_W@__crt_stdio_output@@V?$standard_base@_WV?$string_output_adapter@_W@__crt_stdio_output@@@2@@__crt_stdio_output@@AEAA_NI_N@Z 00000001800257e0     libucrt:output.obj
 0004:000007ec       $pdata$?type_case_n@?$output_processor@_WV?$stream_output_adapter@_W@__crt_stdio_output@@V?$standard_base@_WV?$stream_output_adapter@_W@__crt_stdio_output@@@2@@__crt_stdio_output@@AEAA_NXZ 00000001800257ec     libucrt:output.obj
 0004:000007ec       $pdata$?type_case_n@?$output_processor@_WV?$string_output_adapter@_W@__crt_stdio_output@@V?$standard_base@_WV?$string_output_adapter@_W@__crt_stdio_output@@@2@@__crt_stdio_output@@AEAA_NXZ 00000001800257ec     libucrt:output.obj
 0004:000007f8       $pdata$?type_case_s@?$output_processor@_WV?$stream_output_adapter@_W@__crt_stdio_output@@V?$standard_base@_WV?$stream_output_adapter@_W@__crt_stdio_output@@@2@@__crt_stdio_output@@AEAA_NXZ 00000001800257f8     libucrt:output.obj
 0004:000007f8       $pdata$?type_case_s@?$output_processor@_WV?$string_output_adapter@_W@__crt_stdio_output@@V?$standard_base@_WV?$string_output_adapter@_W@__crt_stdio_output@@@2@@__crt_stdio_output@@AEAA_NXZ 00000001800257f8     libucrt:output.obj
 0004:00000804       $pdata$?write_stored_string_tchar@?$output_processor@_WV?$stream_output_adapter@_W@__crt_stdio_output@@V?$standard_base@_WV?$stream_output_adapter@_W@__crt_stdio_output@@@2@@__crt_stdio_output@@AEAA_N_W@Z 0000000180025804     libucrt:output.obj
 0004:00000810       $pdata$?write_stored_string_tchar@?$output_processor@_WV?$string_output_adapter@_W@__crt_stdio_output@@V?$standard_base@_WV?$string_output_adapter@_W@__crt_stdio_output@@@2@@__crt_stdio_output@@AEAA_N_W@Z 0000000180025810     libucrt:output.obj
 0004:0000081c       $pdata$?write_string@?$string_output_adapter@_W@__crt_stdio_output@@QEBAXQEB_WHQEAHAEAV__crt_deferred_errno_cache@@@Z 000000018002581c     libucrt:output.obj
 0004:00000828       $pdata$?write_string_impl@?$output_adapter_common@_WV?$stream_output_adapter@_W@__crt_stdio_output@@@__crt_stdio_output@@IEBAXQEB_WHQEAHAEAV__crt_deferred_errno_cache@@@Z 0000000180025828     libucrt:output.obj
 0004:00000834       $pdata$__stdio_common_vfwprintf 0000000180025834     libucrt:output.obj
 0004:00000840       $pdata$??$parse_integer@KV?$c_string_character_source@_W@__crt_strtox@@@__crt_strtox@@YAKQEAU__crt_locale_pointers@@V?$c_string_character_source@_W@0@H_N@Z 0000000180025840     libucrt:atox.obj
 0004:00000858       $pdata$__acrt_call_reportfault 0000000180025858     libucrt:invalid_parameter.obj
 0004:00000864       $pdata$_invalid_parameter  0000000180025864     libucrt:invalid_parameter.obj
 0004:00000870       $pdata$_invalid_parameter_noinfo 0000000180025870     libucrt:invalid_parameter.obj
 0004:0000087c       $pdata$_invoke_watson      000000018002587c     libucrt:invalid_parameter.obj
 0004:00000888       $pdata$__acrt_errno_map_os_error 0000000180025888     libucrt:errno.obj
 0004:00000894       $pdata$__doserrno          0000000180025894     libucrt:errno.obj
 0004:000008a0       $pdata$_errno              00000001800258a0     libucrt:errno.obj
 0004:000008ac       $pdata$??$common_xtox@K_W@@YAHKQEA_W_KI_N@Z 00000001800258ac     libucrt:xtoa.obj
 0004:000008b8       $pdata$??$common_xtox_s@K_W@@YAHKQEA_W_KI_N@Z 00000001800258b8     libucrt:xtoa.obj
 0004:000008c4       $pdata$_itow_s             00000001800258c4     libucrt:xtoa.obj
 0004:000008d0       $pdata$_set_error_mode     00000001800258d0     libucrt:set_error_mode.obj
 0004:000008dc       $pdata$wcscat_s            00000001800258dc     libucrt:wcscat_s.obj
 0004:000008e8       $pdata$wcscpy_s            00000001800258e8     libucrt:wcscpy_s.obj
 0004:000008f4       $pdata$wcsncat_s           00000001800258f4     libucrt:wcsncat_s.obj
 0004:00000900       $pdata$??$__acrt_wcs_to_mbs_cp@U__crt_win32_buffer_no_resizing@@@@YAHQEB_WAEAV?$__crt_win32_buffer@DU__crt_win32_buffer_no_resizing@@@@I@Z 0000000180025900     libucrt:getmodulefilenamea.obj
 0004:0000090c       $pdata$__acrt_GetModuleFileNameA 000000018002590c     libucrt:getmodulefilenamea.obj
 0004:00000918       $pdata$__acrt_show_wide_message_box 0000000180025918     libucrt:crtmbox.obj
 0004:00000924       $pdata$__acrt_initialize_stdio 0000000180025924     libucrt:_file.obj
 0004:00000930       $pdata$__acrt_uninitialize_stdio 0000000180025930     libucrt:_file.obj
 0004:0000093c       $pdata$??$?RV<lambda_842d9ff0dc9ef11c61343bbaebe7f885>@@AEAV<lambda_c5860995281e5c4ce005b3de8f5874ee>@@V<lambda_d90129c13df834fdcbf8d2b88dafcf2d>@@@?$__crt_seh_guarded_call@X@@QEAAX$$QEAV<lambda_842d9ff0dc9ef11c61343bbaebe7f885>@@AEAV<lambda_c5860995281e5c4ce005b3de8f5874ee>@@$$QEAV<lambda_d90129c13df834fdcbf8d2b88dafcf2d>@@@Z 000000018002593c     libucrt:fflush.obj
 0004:00000948       $pdata$??$?RV<lambda_886d6c58226a84441f68b9f2b8217b83>@@AEAV<lambda_ab61a845afdef5b7c387490eaf3616ee>@@V<lambda_f7f22ab5edc0698d5f6905b0d3f44752>@@@?$__crt_seh_guarded_call@X@@QEAAX$$QEAV<lambda_886d6c58226a84441f68b9f2b8217b83>@@AEAV<lambda_ab61a845afdef5b7c387490eaf3616ee>@@$$QEAV<lambda_f7f22ab5edc0698d5f6905b0d3f44752>@@@Z 0000000180025948     libucrt:fflush.obj
 0004:00000954       $pdata$??$?RV<lambda_c376a267cfb53b6959b3b692ec76b120>@@AEAV<lambda_9a32fed5bf61b6b509b2d3f6003082a1>@@V<lambda_572fbb9fa0ab338edf41edfd4b5fcc8d>@@@?$__crt_seh_guarded_call@H@@QEAAH$$QEAV<lambda_c376a267cfb53b6959b3b692ec76b120>@@AEAV<lambda_9a32fed5bf61b6b509b2d3f6003082a1>@@$$QEAV<lambda_572fbb9fa0ab338edf41edfd4b5fcc8d>@@@Z 0000000180025954     libucrt:fflush.obj
 0004:00000960       $pdata$?common_flush_all@@YAH_N@Z 0000000180025960     libucrt:fflush.obj
 0004:0000096c       $pdata$__acrt_stdio_flush_nolock 000000018002596c     libucrt:fflush.obj
 0004:00000978       $pdata$_fflush_nolock      0000000180025978     libucrt:fflush.obj
 0004:00000984       $pdata$fflush              0000000180025984     libucrt:fflush.obj
 0004:00000990       $pdata$??$?RV<lambda_84ec643ea9557e2f7dc01bb0e9624395>@@AEAV<lambda_ca71763b3c0644891230e4f79ea54fa6>@@V<lambda_439a761618c59b0600e24586724d733b>@@@?$__crt_seh_guarded_call@H@@QEAAH$$QEAV<lambda_84ec643ea9557e2f7dc01bb0e9624395>@@AEAV<lambda_ca71763b3c0644891230e4f79ea54fa6>@@$$QEAV<lambda_439a761618c59b0600e24586724d733b>@@@Z 0000000180025990     libucrt:setvbuf.obj
 0004:0000099c       $pdata$??R<lambda_ca71763b3c0644891230e4f79ea54fa6>@@QEBAHXZ 000000018002599c     libucrt:setvbuf.obj
 0004:000009a8       $pdata$setvbuf             00000001800259a8     libucrt:setvbuf.obj
 0004:000009b4       $pdata$??$?RV<lambda_450d765d439847d4c735a33c368b5fc0>@@AEAV<lambda_44731a7d0e6d81c3e6aa82d741081786>@@V<lambda_601a2a7da3b7a96e9554ac7215c4b07c>@@@?$__crt_seh_guarded_call@P6AXH@Z@@QEAAP6AXH@Z$$QEAV<lambda_450d765d439847d4c735a33c368b5fc0>@@AEAV<lambda_44731a7d0e6d81c3e6aa82d741081786>@@$$QEAV<lambda_601a2a7da3b7a96e9554ac7215c4b07c>@@@Z 00000001800259b4     libucrt:signal.obj
 0004:000009c0       $pdata$__acrt_get_sigabrt_handler 00000001800259c0     libucrt:signal.obj
 0004:000009cc       $pdata$raise               00000001800259cc     libucrt:signal.obj
 0004:000009d8       $pdata$?internal_isupper_l@@YA_NHQEAU__crt_locale_pointers@@@Z 00000001800259d8     libucrt:tolower_toupper.obj
 0004:000009e4       $pdata$_tolower_l          00000001800259e4     libucrt:tolower_toupper.obj
 0004:000009f0       $pdata$tolower             00000001800259f0     libucrt:tolower_toupper.obj
 0004:000009fc       $pdata$??$?RV<lambda_0ae27a3a962d80f24befdcbee591983d>@@AEAV<lambda_8d0ee55de4b1038c4002e0adecdf1839>@@V<lambda_dc504788e8f1664fe9b84e20bfb512f2>@@@?$__crt_seh_guarded_call@X@@QEAAX$$QEAV<lambda_0ae27a3a962d80f24befdcbee591983d>@@AEAV<lambda_8d0ee55de4b1038c4002e0adecdf1839>@@$$QEAV<lambda_dc504788e8f1664fe9b84e20bfb512f2>@@@Z 00000001800259fc     libucrt:per_thread_data.obj
 0004:00000a08       $pdata$??$?RV<lambda_2d41944a1d46af3157314b8a01080d33>@@AEAV<lambda_8f455de75cd7d7f24b4096f044d8b9e6>@@V<lambda_aa500f224e6afead328df44964fe2772>@@@?$__crt_seh_guarded_call@X@@QEAAX$$QEAV<lambda_2d41944a1d46af3157314b8a01080d33>@@AEAV<lambda_8f455de75cd7d7f24b4096f044d8b9e6>@@$$QEAV<lambda_aa500f224e6afead328df44964fe2772>@@@Z 0000000180025a08     libucrt:per_thread_data.obj
 0004:00000a14       $pdata$??$?RV<lambda_aa87e3671a710a21b5dc78c0bdf72e11>@@AEAV<lambda_92619d2358a28f41a33ba319515a20b9>@@V<lambda_6992ecaafeb10aed2b74cb1fae11a551>@@@?$__crt_seh_guarded_call@X@@QEAAX$$QEAV<lambda_aa87e3671a710a21b5dc78c0bdf72e11>@@AEAV<lambda_92619d2358a28f41a33ba319515a20b9>@@$$QEAV<lambda_6992ecaafeb10aed2b74cb1fae11a551>@@@Z 0000000180025a14     libucrt:per_thread_data.obj
 0004:00000a20       $pdata$??$?RV<lambda_f2e299630e499de9f9a165e60fcd3db5>@@AEAV<lambda_2ae9d31cdba2644fcbeaf08da7c24588>@@V<lambda_40d01ff24d0e7b3814fdbdcee8eab3c7>@@@?$__crt_seh_guarded_call@X@@QEAAX$$QEAV<lambda_f2e299630e499de9f9a165e60fcd3db5>@@AEAV<lambda_2ae9d31cdba2644fcbeaf08da7c24588>@@$$QEAV<lambda_40d01ff24d0e7b3814fdbdcee8eab3c7>@@@Z 0000000180025a20     libucrt:per_thread_data.obj
 0004:00000a2c       $pdata$?construct_ptd_array@@YAXQEAU__acrt_ptd@@@Z 0000000180025a2c     libucrt:per_thread_data.obj
 0004:00000a38       $pdata$?destroy_fls@@YAXPEAX@Z 0000000180025a38     libucrt:per_thread_data.obj
 0004:00000a44       $pdata$?destroy_ptd_array@@YAXQEAU__acrt_ptd@@@Z 0000000180025a44     libucrt:per_thread_data.obj
 0004:00000a50       $pdata$?replace_current_thread_locale_nolock@@YAXQEAU__acrt_ptd@@QEAU__crt_locale_data@@@Z 0000000180025a50     libucrt:per_thread_data.obj
 0004:00000a5c       $pdata$__acrt_freeptd      0000000180025a5c     libucrt:per_thread_data.obj
 0004:00000a68       $pdata$__acrt_getptd       0000000180025a68     libucrt:per_thread_data.obj
 0004:00000a74       $pdata$__acrt_getptd_head  0000000180025a74     libucrt:per_thread_data.obj
 0004:00000a80       $pdata$__acrt_getptd_noexit 0000000180025a80     libucrt:per_thread_data.obj
 0004:00000a8c       $pdata$__acrt_initialize_ptd 0000000180025a8c     libucrt:per_thread_data.obj
 0004:00000a98       $pdata$__acrt_uninitialize_ptd 0000000180025a98     libucrt:per_thread_data.obj
 0004:00000aa4       $pdata$__acrt_update_locale_info 0000000180025aa4     libucrt:locale_update.obj
 0004:00000ab0       $pdata$__acrt_update_multibyte_info 0000000180025ab0     libucrt:locale_update.obj
 0004:00000abc       $pdata$??$?RV<lambda_410d79af7f07d98d83a3f525b3859a53>@@AEAV<lambda_3e16ef9562a7dcce91392c22ab16ea36>@@V<lambda_38119f0e861e05405d8a144b9b982f0a>@@@?$__crt_seh_guarded_call@X@@QEAAX$$QEAV<lambda_410d79af7f07d98d83a3f525b3859a53>@@AEAV<lambda_3e16ef9562a7dcce91392c22ab16ea36>@@$$QEAV<lambda_38119f0e861e05405d8a144b9b982f0a>@@@Z 0000000180025abc     libucrt:wsetlocale.obj
 0004:00000ac8       $pdata$__acrt_uninitialize_locale 0000000180025ac8     libucrt:wsetlocale.obj
 0004:00000ad4       $pdata$__acrt_initialize_locks 0000000180025ad4     libucrt:locks.obj
 0004:00000ae0       $pdata$__acrt_uninitialize_locks 0000000180025ae0     libucrt:locks.obj
 0004:00000aec       $pdata$_malloc_base        0000000180025aec     libucrt:malloc_base.obj
 0004:00000af8       $pdata$__acrt_get_developer_information_policy 0000000180025af8     libucrt:win_policies.obj
 0004:00000b04       $pdata$__acrt_get_process_end_policy 0000000180025b04     libucrt:win_policies.obj
 0004:00000b10       $pdata$__acrt_get_windowing_model_policy 0000000180025b10     libucrt:win_policies.obj
 0004:00000b1c       $pdata$_calloc_base        0000000180025b1c     libucrt:calloc_base.obj
 0004:00000b28       $pdata$_free_base          0000000180025b28     libucrt:free_base.obj
 0004:00000b34       $pdata$??$__acrt_mbs_to_wcs_cp@U__crt_win32_buffer_internal_dynamic_resizing@@@@YAHQEBDAEAV?$__crt_win32_buffer@_WU__crt_win32_buffer_internal_dynamic_resizing@@@@I@Z 0000000180025b34     libucrt:argv_wildcards.obj
 0004:00000b40       $pdata$??$__acrt_wcs_to_mbs_cp@U__crt_win32_buffer_internal_dynamic_resizing@@@@YAHQEB_WAEAV?$__crt_win32_buffer@DU__crt_win32_buffer_internal_dynamic_resizing@@@@I@Z 0000000180025b40     libucrt:argv_wildcards.obj
 0004:00000b4c       $pdata$??$common_expand_argv_wildcards@D@@YAHQEAPEADQEAPEAPEAD@Z 0000000180025b4c     libucrt:argv_wildcards.obj
 0004:00000b58       $pdata$??$copy_and_add_argument_to_buffer@D@@YAHQEBD0_KAEAV?$argument_list@D@?A0x5f5c8891@@@Z 0000000180025b58     libucrt:argv_wildcards.obj
 0004:00000b64       $pdata$??$expand_argument_wildcards@D@@YAHQEAD0AEAV?$argument_list@D@?A0x5f5c8891@@@Z 0000000180025b64     libucrt:argv_wildcards.obj
 0004:00000b70       $pdata$??$?RV<lambda_efdfa57d1f175319df784efa44bb7b81>@@AEAV<lambda_5f0a4c1567f8adc6734073e5d1e1b35c>@@V<lambda_2e8a7d3640ea6ccb4c2413664c2db6fd>@@@?$__crt_seh_guarded_call@X@@QEAAX$$QEAV<lambda_efdfa57d1f175319df784efa44bb7b81>@@AEAV<lambda_5f0a4c1567f8adc6734073e5d1e1b35c>@@$$QEAV<lambda_2e8a7d3640ea6ccb4c2413664c2db6fd>@@@Z 0000000180025b70     libucrt:mbctype.obj
 0004:00000b7c       $pdata$?getSystemCP@@YAHH@Z 0000000180025b7c     libucrt:mbctype.obj
 0004:00000b88       $pdata$?setSBCS@@YAXPEAU__crt_multibyte_data@@@Z 0000000180025b88     libucrt:mbctype.obj
 0004:00000b94       $pdata$?setSBUpLow@@YAXPEAU__crt_multibyte_data@@@Z 0000000180025b94     libucrt:mbctype.obj
 0004:00000ba0       $pdata$?setmbcp_internal@@YAHH_NQEAU__acrt_ptd@@QEAPEAU__crt_multibyte_data@@@Z 0000000180025ba0     libucrt:mbctype.obj
 0004:00000bac       $pdata$?update_thread_multibyte_data_internal@@YAPEAU__crt_multibyte_data@@QEAU__acrt_ptd@@QEAPEAU1@@Z 0000000180025bac     libucrt:mbctype.obj
 0004:00000bb8       $pdata$__acrt_initialize_multibyte 0000000180025bb8     libucrt:mbctype.obj
 0004:00000bc4       $pdata$__acrt_update_thread_multibyte_data 0000000180025bc4     libucrt:mbctype.obj
 0004:00000bd0       $pdata$_setmbcp_nolock     0000000180025bd0     libucrt:mbctype.obj
 0004:00000bdc       $pdata$?x_ismbbtype_l@@YAHPEAU__crt_locale_pointers@@IHH@Z 0000000180025bdc     libucrt:ismbbyte.obj
 0004:00000be8       $pdata$__acrt_initialize_command_line 0000000180025be8     libucrt:argv_data.obj
 0004:00000bf4       $pdata$__acrt_WideCharToMultiByte 0000000180025bf4     libucrt:widechartomultibyte.obj
 0004:00000c00       $pdata$__dcrt_get_narrow_environment_from_os 0000000180025c00     libucrt:get_environment_from_os.obj
 0004:00000c0c       $pdata$_recalloc_base      0000000180025c0c     libucrt:recalloc.obj
 0004:00000c18       $pdata$?try_get_function@@YAPEAXW4function_id@?A0x391cf84c@@QEBDQEBW4module_id@2@2@Z 0000000180025c18     libucrt:winapi_thunks.obj
 0004:00000c24       $pdata$__acrt_AppPolicyGetProcessTerminationMethodInternal 0000000180025c24     libucrt:winapi_thunks.obj
 0004:00000c30       $pdata$__acrt_AppPolicyGetShowDeveloperDiagnosticInternal 0000000180025c30     libucrt:winapi_thunks.obj
 0004:00000c3c       $pdata$__acrt_AppPolicyGetWindowingModelInternal 0000000180025c3c     libucrt:winapi_thunks.obj
 0004:00000c48       $pdata$__acrt_AreFileApisANSI 0000000180025c48     libucrt:winapi_thunks.obj
 0004:00000c54       $pdata$__acrt_FlsAlloc     0000000180025c54     libucrt:winapi_thunks.obj
 0004:00000c60       $pdata$__acrt_FlsFree      0000000180025c60     libucrt:winapi_thunks.obj
 0004:00000c6c       $pdata$__acrt_FlsGetValue  0000000180025c6c     libucrt:winapi_thunks.obj
 0004:00000c78       $pdata$__acrt_FlsSetValue  0000000180025c78     libucrt:winapi_thunks.obj
 0004:00000c84       $pdata$__acrt_InitializeCriticalSectionEx 0000000180025c84     libucrt:winapi_thunks.obj
 0004:00000c90       $pdata$__acrt_LCMapStringEx 0000000180025c90     libucrt:winapi_thunks.obj
 0004:00000c9c       $pdata$__acrt_LocaleNameToLCID 0000000180025c9c     libucrt:winapi_thunks.obj
 0004:00000ca8       $pdata$__acrt_MessageBoxW  0000000180025ca8     libucrt:winapi_thunks.obj
 0004:00000cb4       $pdata$__acrt_can_show_message_box 0000000180025cb4     libucrt:winapi_thunks.obj
 0004:00000cc0       $pdata$__acrt_get_parent_window 0000000180025cc0     libucrt:winapi_thunks.obj
 0004:00000ccc       $pdata$__acrt_initialize_winapi_thunks 0000000180025ccc     libucrt:winapi_thunks.obj
 0004:00000cd8       $pdata$__acrt_is_interactive 0000000180025cd8     libucrt:winapi_thunks.obj
 0004:00000ce4       $pdata$__acrt_uninitialize_winapi_thunks 0000000180025ce4     libucrt:winapi_thunks.obj
 0004:00000cf0       $pdata$__acrt_initialize_heap 0000000180025cf0     libucrt:heap_handle.obj
 0004:00000cfc       $pdata$?initialize_inherited_file_handles_nolock@@YAXXZ 0000000180025cfc     libucrt:ioinit.obj
 0004:00000d08       $pdata$?initialize_stdio_handles_nolock@@YAXXZ 0000000180025d08     libucrt:ioinit.obj
 0004:00000d14       $pdata$__acrt_initialize_lowio 0000000180025d14     libucrt:ioinit.obj
 0004:00000d20       $pdata$__acrt_uninitialize_lowio 0000000180025d20     libucrt:ioinit.obj
 0004:00000d2c       $pdata$__acrt_execute_initializers 0000000180025d2c     libucrt:shared_initialization.obj
 0004:00000d38       $pdata$__acrt_execute_uninitializers 0000000180025d38     libucrt:shared_initialization.obj
 0004:00000d44       $pdata$__acrt_stdio_begin_temporary_buffering_nolock 0000000180025d44     libucrt:_sftbuf.obj
 0004:00000d50       $pdata$__acrt_stdio_end_temporary_buffering_nolock 0000000180025d50     libucrt:_sftbuf.obj
 0004:00000d5c       $pdata$isdigit             0000000180025d5c     libucrt:_ctype.obj
 0004:00000d68       $pdata$wcstol              0000000180025d68     libucrt:strtox.obj
 0004:00000d74       $pdata$_mbtowc_l           0000000180025d74     libucrt:mbtowc.obj
 0004:00000d80       $pdata$_wctomb_s_l         0000000180025d80     libucrt:wctomb.obj
 0004:00000d8c       $pdata$wctomb_s            0000000180025d8c     libucrt:wctomb.obj
 0004:00000d98       $pdata$?fp_format_a@@YAHQEBNPEAD_KQEAD2H_NIQEAU__crt_locale_pointers@@@Z 0000000180025d98     libucrt:cvt.obj
 0004:00000da4       $pdata$?fp_format_e@@YAHQEBNQEAD_K12H_NIQEAU__crt_locale_pointers@@@Z 0000000180025da4     libucrt:cvt.obj
 0004:00000db0       $pdata$?fp_format_e_internal@@YAHQEAD_KH_NIQEAU_strflt@@2QEAU__crt_locale_pointers@@@Z 0000000180025db0     libucrt:cvt.obj
 0004:00000dbc       $pdata$?fp_format_f_internal@@YAHQEAD_KHQEAU_strflt@@_NQEAU__crt_locale_pointers@@@Z 0000000180025dbc     libucrt:cvt.obj
 0004:00000dc8       $pdata$?fp_format_g@@YAHQEBNQEAD_K12H_NIQEAU__crt_locale_pointers@@@Z 0000000180025dc8     libucrt:cvt.obj
 0004:00000dd4       $pdata$?fp_format_nan_or_infinity@@YAHW4__acrt_fp_class@@_NPEAD_K1@Z 0000000180025dd4     libucrt:cvt.obj
 0004:00000de0       $pdata$__acrt_fp_format    0000000180025de0     libucrt:cvt.obj
 0004:00000dec       $pdata$_fputwc_nolock      0000000180025dec     libucrt:fputwc.obj
 0004:00000df8       $pdata$_fileno             0000000180025df8     libucrt:fileno.obj
 0004:00000e04       $pdata$__pctype_func       0000000180025e04     libucrt:ctype.obj
 0004:00000e10       $pdata$iswctype            0000000180025e10     libucrt:iswctype.obj
 0004:00000e1c       $pdata$_isctype_l          0000000180025e1c     libucrt:isctype.obj
 0004:00000e28       $pdata$_fcloseall          0000000180025e28     libucrt:closeall.obj
 0004:00000e34       $pdata$__acrt_stdio_free_buffer_nolock 0000000180025e34     libucrt:_freebuf.obj
 0004:00000e40       $pdata$??$?RV<lambda_a37b2b86f63e897a80ea819b0eb08c01>@@AEAV<lambda_38ce7e780aa69e748d6df282ebc68efe>@@V<lambda_99fb1378e971ab6e7edea83e3a7a83a2>@@@?$__crt_seh_guarded_call@H@@QEAAH$$QEAV<lambda_a37b2b86f63e897a80ea819b0eb08c01>@@AEAV<lambda_38ce7e780aa69e748d6df282ebc68efe>@@$$QEAV<lambda_99fb1378e971ab6e7edea83e3a7a83a2>@@@Z 0000000180025e40     libucrt:commit.obj
 0004:00000e4c       $pdata$_commit             0000000180025e4c     libucrt:commit.obj
 0004:00000e58       $pdata$?write_double_translated_ansi_nolock@@YA?AUwrite_result@?A0x17268360@@HQEBDI@Z 0000000180025e58     libucrt:write.obj
 0004:00000e64       $pdata$?write_text_ansi_nolock@@YA?AUwrite_result@?A0x17268360@@HQEBDI@Z 0000000180025e64     libucrt:write.obj
 0004:00000e70       $pdata$?write_text_utf16le_nolock@@YA?AUwrite_result@?A0x17268360@@HQEBDI@Z 0000000180025e70     libucrt:write.obj
 0004:00000e7c       $pdata$?write_text_utf8_nolock@@YA?AUwrite_result@?A0x17268360@@HQEBDI@Z 0000000180025e7c     libucrt:write.obj
 0004:00000e88       $pdata$_write              0000000180025e88     libucrt:write.obj
 0004:00000e94       $pdata$_write_nolock       0000000180025e94     libucrt:write.obj
 0004:00000ea0       $pdata$_isleadbyte_l       0000000180025ea0     libucrt:_wctype.obj
 0004:00000eac       $pdata$?__acrt_LCMapStringA_stat@@YAHPEAU__crt_locale_pointers@@PEB_WKPEBDHPEADHHH@Z 0000000180025eac     libucrt:lcmapstringa.obj
 0004:00000eb8       $pdata$__acrt_LCMapStringA 0000000180025eb8     libucrt:lcmapstringa.obj
 0004:00000ec4       $pdata$__acrt_free_locale  0000000180025ec4     libucrt:locale_refcounting.obj
 0004:00000ed0       $pdata$__acrt_locale_free_lc_time_if_unreferenced 0000000180025ed0     libucrt:locale_refcounting.obj
 0004:00000edc       $pdata$__acrt_release_locale_ref 0000000180025edc     libucrt:locale_refcounting.obj
 0004:00000ee8       $pdata$__acrt_update_thread_locale_data 0000000180025ee8     libucrt:locale_refcounting.obj
 0004:00000ef4       $pdata$_updatetlocinfoEx_nolock 0000000180025ef4     libucrt:locale_refcounting.obj
 0004:00000f00       $pdata$__acrt_locale_free_monetary 0000000180025f00     libucrt:initmon.obj
 0004:00000f0c       $pdata$__acrt_locale_free_numeric 0000000180025f0c     libucrt:initnum.obj
 0004:00000f18       $pdata$?free_crt_array_internal@@YAXQEAPEBX_K@Z 0000000180025f18     libucrt:inittime.obj
 0004:00000f24       $pdata$__acrt_locale_free_time 0000000180025f24     libucrt:inittime.obj
 0004:00000f30       $pdata$__acrt_GetStringTypeA 0000000180025f30     libucrt:getstringtypea.obj
 0004:00000f3c       $pdata$qsort               0000000180025f3c     libucrt:qsort.obj
 0004:00000f48       $pdata$4$qsort             0000000180025f48     libucrt:qsort.obj
 0004:00000f54       $pdata$5$qsort             0000000180025f54     libucrt:qsort.obj
 0004:00000f60       $pdata$strncpy_s           0000000180025f60     libucrt:strncpy_s.obj
 0004:00000f6c       $pdata$fallbackMethod      0000000180025f6c     libucrt:strpbrk.obj
 0004:00000f78       $pdata$strpbrk             0000000180025f78     libucrt:strpbrk.obj
 0004:00000f84       $pdata$_mbsdec_l           0000000180025f84     libucrt:mbsdec.obj
 0004:00000f90       $pdata$?initialize_multibyte@@YAHXZ 0000000180025f90     libucrt:multibyte_initializer.obj
 0004:00000f9c       $pdata$_msize_base         0000000180025f9c     libucrt:msize.obj
 0004:00000fa8       $pdata$_realloc_base       0000000180025fa8     libucrt:realloc_base.obj
 0004:00000fb4       $pdata$?GetTableIndexFromLocaleName@@YAHPEB_W@Z 0000000180025fb4     libucrt:lcidtoname_downlevel.obj
 0004:00000fc0       $pdata$__acrt_DownlevelLocaleNameToLCID 0000000180025fc0     libucrt:lcidtoname_downlevel.obj
 0004:00000fcc       $pdata$__acrt_lowio_create_handle_array 0000000180025fcc     libucrt:osfinfo.obj
 0004:00000fd8       $pdata$__acrt_lowio_destroy_handle_array 0000000180025fd8     libucrt:osfinfo.obj
 0004:00000fe4       $pdata$__acrt_lowio_ensure_fh_exists 0000000180025fe4     libucrt:osfinfo.obj
 0004:00000ff0       $pdata$_free_osfhnd        0000000180025ff0     libucrt:osfinfo.obj
 0004:00000ffc       $pdata$_get_osfhandle      0000000180025ffc     libucrt:osfinfo.obj
 0004:00001008       $pdata$_isatty             0000000180026008     libucrt:isatty.obj
 0004:00001014       $pdata$?__mbrtowc_utf8@__crt_mbstring@@YA_KPEA_WPEBD_KPEAU_Mbstatet@@@Z 0000000180026014     libucrt:mbrtowc.obj
 0004:00001020       $pdata$?__mbsrtowcs_utf8@__crt_mbstring@@YA_KPEA_WPEAPEBD_KPEAU_Mbstatet@@@Z 0000000180026020     libucrt:mbrtowc.obj
 0004:0000102c       $pdata$?__c32rtomb_utf8@__crt_mbstring@@YA_KPEAD_UPEAU_Mbstatet@@@Z 000000018002602c     libucrt:c32rtomb.obj
 0004:00001038       $pdata$__acrt_fp_strflt_to_string 0000000180026038     libucrt:_fptostr.obj
 0004:00001044       $pdata$?divide@__crt_strtox@@YA_KAEAUbig_integer@1@AEBU21@@Z 0000000180026044     libucrt:cfout.obj
 0004:00001050       $pdata$0$?divide@__crt_strtox@@YA_KAEAUbig_integer@1@AEBU21@@Z 0000000180026050     libucrt:cfout.obj
 0004:0000105c       $pdata$1$?divide@__crt_strtox@@YA_KAEAUbig_integer@1@AEBU21@@Z 000000018002605c     libucrt:cfout.obj
 0004:00001068       $pdata$__acrt_fltout       0000000180026068     libucrt:cfout.obj
 0004:00001074       $pdata$memcpy_s            0000000180026074     libucrt:cfout.obj
 0004:00001080       $pdata$??$write_buffer_nolock@D@@YA_NDV__crt_stdio_stream@@@Z 0000000180026080     libucrt:_flsbuf.obj
 0004:0000108c       $pdata$??$write_buffer_nolock@_W@@YA_N_WV__crt_stdio_stream@@@Z 000000018002608c     libucrt:_flsbuf.obj
 0004:00001098       $pdata$?stream_is_at_end_of_file_nolock@@YA_NV__crt_stdio_stream@@@Z 0000000180026098     libucrt:_flsbuf.obj
 0004:000010a4       $pdata$__acrt_stdio_flush_and_write_narrow_nolock 00000001800260a4     libucrt:_flsbuf.obj
 0004:000010b0       $pdata$__acrt_stdio_flush_and_write_wide_nolock 00000001800260b0     libucrt:_flsbuf.obj
 0004:000010bc       $pdata$_fclose_nolock      00000001800260bc     libucrt:fclose.obj
 0004:000010c8       $pdata$fclose              00000001800260c8     libucrt:fclose.obj
 0004:000010d4       $pdata$??$common_lseek@_J@@YA_JH_JH@Z 00000001800260d4     libucrt:lseek.obj
 0004:000010e0       $pdata$??$common_lseek_nolock@_J@@YA_JH_JH@Z 00000001800260e0     libucrt:lseek.obj
 0004:000010ec       $pdata$_putwch_nolock      00000001800260ec     libucrt:putwch.obj
 0004:000010f8       $pdata$?__mbrtoc32_utf8@__crt_mbstring@@YA_KPEA_UPEBD_KPEAU_Mbstatet@@@Z 00000001800260f8     libucrt:mbrtoc32.obj
 0004:00001104       $pdata$fegetenv            0000000180026104     libucrt:fegetenv.obj
 0004:00001110       $pdata$fesetenv            0000000180026110     libucrt:fesetenv.obj
 0004:0000111c       $pdata$feholdexcept        000000018002611c     libucrt:feholdexcept.obj
 0004:00001134       $pdata$__acrt_stdio_allocate_buffer_nolock 0000000180026134     libucrt:_getbuf.obj
 0004:00001140       $pdata$??$?RV<lambda_751a882b2c74d4b022dec766aa51a29a>@@AEAV<lambda_628dfdc04ba53c8bfc02c9951375f3f5>@@V<lambda_f6c7be5f7998530c34de24c7437d6b54>@@@?$__crt_seh_guarded_call@H@@QEAAH$$QEAV<lambda_751a882b2c74d4b022dec766aa51a29a>@@AEAV<lambda_628dfdc04ba53c8bfc02c9951375f3f5>@@$$QEAV<lambda_f6c7be5f7998530c34de24c7437d6b54>@@@Z 0000000180026140     libucrt:close.obj
 0004:0000114c       $pdata$_close              000000018002614c     libucrt:close.obj
 0004:00001158       $pdata$_close_nolock       0000000180026158     libucrt:close.obj
 0004:00001164       $pdata$__dcrt_lowio_ensure_console_output_initialized 0000000180026164     libucrt:initcon.obj
 0004:00001170       $pdata$__dcrt_terminate_console_output 0000000180026170     libucrt:initcon.obj
 0004:0000117c       $pdata$__dcrt_write_console 000000018002617c     libucrt:initcon.obj
 0004:00001188       $pdata$__acrt_fenv_set_control 0000000180026188     libucrt:_fenvutils.obj
 0004:00001194       $pdata$_clearfp            0000000180026194     libucrt:ieee.obj
 0004:000011a0       $pdata$_call_matherr       00000001800261a0     libucrt:libm_error.obj
 0004:000011ac       $pdata$_exception_enabled  00000001800261ac     libucrt:libm_error.obj
 0004:000011b8       $pdata$_handle_error       00000001800261b8     libucrt:libm_error.obj
 0004:000011c4       $pdata$__acrt_initialize_fma3 00000001800261c4     libucrt:fma3_available.obj
 0004:000011d0       $pdata$_log10_special      00000001800261d0     libucrt:log_special.obj
 0004:000011dc       $pdata$_log_special_common 00000001800261dc     libucrt:log_special.obj
 0004:000011f4       $pdata$_raise_exc          00000001800261f4     libucrt:fpexcept.obj
 0004:00001200       $pdata$_raise_exc_ex       0000000180026200     libucrt:fpexcept.obj
 0004:0000120c       $pdata$_set_errno_from_matherr 000000018002620c     libucrt:fpexcept.obj
 0004:00001218       $pdata$_clrfp              0000000180026218     libucrt:fpctrl.obj
 0004:00001224       $pdata$_ctrlfp             0000000180026224     libucrt:fpctrl.obj
 0004:00001230       $pdata$_set_statfp         0000000180026230     libucrt:fpctrl.obj
 0004:0000123c       $pdata$_statfp             000000018002623c     libucrt:fpctrl.obj
 0004:00001248       $pdata$?DloadAcquireSectionWriteAccess@@YAXXZ 0000000180026248     DelayImp:delayhlp.obj
 0004:00001254       $pdata$?DloadGetSRWLockFunctionPointers@@YAEXZ 0000000180026254     DelayImp:delayhlp.obj
 0004:00001260       $pdata$?DloadMakePermanentImageCommit@@YAXPEAX_K@Z 0000000180026260     DelayImp:delayhlp.obj
 0004:0000126c       $pdata$?DloadObtainSection@@YAPEAXPEAK0@Z 000000018002626c     DelayImp:delayhlp.obj
 0004:00001278       $pdata$?DloadProtectSection@@YAXKPEAK@Z 0000000180026278     DelayImp:delayhlp.obj
 0004:00001284       $pdata$?DloadReleaseSectionWriteAccess@@YAXXZ 0000000180026284     DelayImp:delayhlp.obj
 0004:00001290       $pdata$__delayLoadHelper2  0000000180026290     DelayImp:delayhlp.obj
 0004:0000129c       $pdata$_IsNonwritableInCurrentImage 000000018002629c     LIBCMT:pesect.obj
 0004:000012a8       $pdata$__GSHandlerCheck    00000001800262a8     LIBCMT:gshandler.obj
 0004:000012b4       $pdata$__GSHandlerCheckCommon 00000001800262b4     LIBCMT:gshandler.obj
 0004:000012d8       $pdata$strrchr             00000001800262d8     libvcruntime:strrchr.obj
 0004:000012f0       $pdata$__scrt_is_nonwritable_in_current_image$filt$0 00000001800262f0     LIBCMT:utility.obj
 0004:000012fc       $pdata$?fin$0@?0??dllmain_crt_process_attach@@YAHQEAUHINSTANCE__@@QEAX@Z@4HA 00000001800262fc     LIBCMT:dll_dllmain.obj
 0004:00001308       $pdata$?fin$0@?0??dllmain_crt_process_detach@@YAH_N@Z@4HA 0000000180026308     LIBCMT:dll_dllmain.obj
 0004:00001314       $pdata$?filt$0@?0??dllmain_dispatch@@YAHQEAUHINSTANCE__@@KQEAX@Z@4HA 0000000180026314     LIBCMT:dll_dllmain.obj
 0004:00001320       $pdata$__DestructExceptionObject$filt$0 0000000180026320     libvcruntime:ehhelpers.obj
 0004:0000132c       $pdata$_query_new_handler$fin$0 000000018002632c     libucrt:new_handler.obj
 0004:00001338       $pdata$?fin$0@?0???$?RV<lambda_d80eeec6fff315bfe5c115232f3240e3>@@AEAV<lambda_6e4b09c48022b2350581041d5f6b0c4c>@@V<lambda_2358e3775559c9db80273638284d5e45>@@@?$__crt_seh_guarded_call@X@@QEAAX$$QEAV<lambda_d80eeec6fff315bfe5c115232f3240e3>@@AEAV<lambda_6e4b09c48022b2350581041d5f6b0c4c>@@$$QEAV<lambda_2358e3775559c9db80273638284d5e45>@@@Z@4HA 0000000180026338     libucrt:exit.obj
 0004:00001338       $pdata$?fin$0@?0???$?RV<lambda_450d765d439847d4c735a33c368b5fc0>@@AEAV<lambda_44731a7d0e6d81c3e6aa82d741081786>@@V<lambda_601a2a7da3b7a96e9554ac7215c4b07c>@@@?$__crt_seh_guarded_call@P6AXH@Z@@QEAAP6AXH@Z$$QEAV<lambda_450d765d439847d4c735a33c368b5fc0>@@AEAV<lambda_44731a7d0e6d81c3e6aa82d741081786>@@$$QEAV<lambda_601a2a7da3b7a96e9554ac7215c4b07c>@@@Z@4HA 0000000180026338     libucrt:signal.obj
 0004:00001338       $pdata$?fin$0@?0???$?RV<lambda_638799b9deba96c50f710eeac98168cd>@@AEAV<lambda_22ebabd17bc4fa466a2aca6d8deb888d>@@V<lambda_a6f7d7db0129f75315ebf26d50c089f1>@@@?$__crt_seh_guarded_call@H@@QEAAH$$QEAV<lambda_638799b9deba96c50f710eeac98168cd>@@AEAV<lambda_22ebabd17bc4fa466a2aca6d8deb888d>@@$$QEAV<lambda_a6f7d7db0129f75315ebf26d50c089f1>@@@Z@4HA 0000000180026338     libucrt:onexit.obj
 0004:00001338       $pdata$?fin$0@?0???$?RV<lambda_aa87e3671a710a21b5dc78c0bdf72e11>@@AEAV<lambda_92619d2358a28f41a33ba319515a20b9>@@V<lambda_6992ecaafeb10aed2b74cb1fae11a551>@@@?$__crt_seh_guarded_call@X@@QEAAX$$QEAV<lambda_aa87e3671a710a21b5dc78c0bdf72e11>@@AEAV<lambda_92619d2358a28f41a33ba319515a20b9>@@$$QEAV<lambda_6992ecaafeb10aed2b74cb1fae11a551>@@@Z@4HA 0000000180026338     libucrt:per_thread_data.obj
 0004:00001338       $pdata$?fin$0@?0???$?RV<lambda_0ae27a3a962d80f24befdcbee591983d>@@AEAV<lambda_8d0ee55de4b1038c4002e0adecdf1839>@@V<lambda_dc504788e8f1664fe9b84e20bfb512f2>@@@?$__crt_seh_guarded_call@X@@QEAAX$$QEAV<lambda_0ae27a3a962d80f24befdcbee591983d>@@AEAV<lambda_8d0ee55de4b1038c4002e0adecdf1839>@@$$QEAV<lambda_dc504788e8f1664fe9b84e20bfb512f2>@@@Z@4HA 0000000180026338     libucrt:per_thread_data.obj
 0004:00001338       $pdata$?fin$0@?0???$?RV<lambda_efdfa57d1f175319df784efa44bb7b81>@@AEAV<lambda_5f0a4c1567f8adc6734073e5d1e1b35c>@@V<lambda_2e8a7d3640ea6ccb4c2413664c2db6fd>@@@?$__crt_seh_guarded_call@X@@QEAAX$$QEAV<lambda_efdfa57d1f175319df784efa44bb7b81>@@AEAV<lambda_5f0a4c1567f8adc6734073e5d1e1b35c>@@$$QEAV<lambda_2e8a7d3640ea6ccb4c2413664c2db6fd>@@@Z@4HA 0000000180026338     libucrt:mbctype.obj
 0004:00001338       $pdata$?fin$0@?0???$?RV<lambda_f2e299630e499de9f9a165e60fcd3db5>@@AEAV<lambda_2ae9d31cdba2644fcbeaf08da7c24588>@@V<lambda_40d01ff24d0e7b3814fdbdcee8eab3c7>@@@?$__crt_seh_guarded_call@X@@QEAAX$$QEAV<lambda_f2e299630e499de9f9a165e60fcd3db5>@@AEAV<lambda_2ae9d31cdba2644fcbeaf08da7c24588>@@$$QEAV<lambda_40d01ff24d0e7b3814fdbdcee8eab3c7>@@@Z@4HA 0000000180026338     libucrt:per_thread_data.obj
 0004:00001338       $pdata$?fin$0@?0???$?RV<lambda_7777bce6b2f8c936911f934f8298dc43>@@AEAV<lambda_f03950bc5685219e0bcd2087efbe011e>@@V<lambda_3883c3dff614d5e0c5f61bb1ac94921c>@@@?$__crt_seh_guarded_call@H@@QEAAH$$QEAV<lambda_7777bce6b2f8c936911f934f8298dc43>@@AEAV<lambda_f03950bc5685219e0bcd2087efbe011e>@@$$QEAV<lambda_3883c3dff614d5e0c5f61bb1ac94921c>@@@Z@4HA 0000000180026338     libucrt:onexit.obj
 0004:00001338       $pdata$?fin$0@?0???$?RV<lambda_2d41944a1d46af3157314b8a01080d33>@@AEAV<lambda_8f455de75cd7d7f24b4096f044d8b9e6>@@V<lambda_aa500f224e6afead328df44964fe2772>@@@?$__crt_seh_guarded_call@X@@QEAAX$$QEAV<lambda_2d41944a1d46af3157314b8a01080d33>@@AEAV<lambda_8f455de75cd7d7f24b4096f044d8b9e6>@@$$QEAV<lambda_aa500f224e6afead328df44964fe2772>@@@Z@4HA 0000000180026338     libucrt:per_thread_data.obj
 0004:00001344       $pdata$?filt$0@?0???R<lambda_6e4b09c48022b2350581041d5f6b0c4c>@@QEBA@XZ@4HA 0000000180026344     libucrt:exit.obj
 0004:00001350       $pdata$?fin$0@?0???$?RV<lambda_84ec643ea9557e2f7dc01bb0e9624395>@@AEAV<lambda_ca71763b3c0644891230e4f79ea54fa6>@@V<lambda_439a761618c59b0600e24586724d733b>@@@?$__crt_seh_guarded_call@H@@QEAAH$$QEAV<lambda_84ec643ea9557e2f7dc01bb0e9624395>@@AEAV<lambda_ca71763b3c0644891230e4f79ea54fa6>@@$$QEAV<lambda_439a761618c59b0600e24586724d733b>@@@Z@4HA 0000000180026350     libucrt:setvbuf.obj
 0004:00001350       $pdata$?fin$0@?0???$?RV<lambda_842d9ff0dc9ef11c61343bbaebe7f885>@@AEAV<lambda_c5860995281e5c4ce005b3de8f5874ee>@@V<lambda_d90129c13df834fdcbf8d2b88dafcf2d>@@@?$__crt_seh_guarded_call@X@@QEAAX$$QEAV<lambda_842d9ff0dc9ef11c61343bbaebe7f885>@@AEAV<lambda_c5860995281e5c4ce005b3de8f5874ee>@@$$QEAV<lambda_d90129c13df834fdcbf8d2b88dafcf2d>@@@Z@4HA 0000000180026350     libucrt:fflush.obj
 0004:00001350       $pdata$?fin$0@?0???$?RV<lambda_c376a267cfb53b6959b3b692ec76b120>@@AEAV<lambda_9a32fed5bf61b6b509b2d3f6003082a1>@@V<lambda_572fbb9fa0ab338edf41edfd4b5fcc8d>@@@?$__crt_seh_guarded_call@H@@QEAAH$$QEAV<lambda_c376a267cfb53b6959b3b692ec76b120>@@AEAV<lambda_9a32fed5bf61b6b509b2d3f6003082a1>@@$$QEAV<lambda_572fbb9fa0ab338edf41edfd4b5fcc8d>@@@Z@4HA 0000000180026350     libucrt:fflush.obj
 0004:00001350       $pdata$?fin$0@?0???$?RV<lambda_0d412022a4b28cc8a401ea49574e8ae6>@@AEAV<lambda_a775ed57af18ba8e4d5dc780aa9068fe>@@V<lambda_975a71a6baa488a08f4e15f6b0339b9e>@@@?$__crt_seh_guarded_call@H@@QEAAH$$QEAV<lambda_0d412022a4b28cc8a401ea49574e8ae6>@@AEAV<lambda_a775ed57af18ba8e4d5dc780aa9068fe>@@$$QEAV<lambda_975a71a6baa488a08f4e15f6b0339b9e>@@@Z@4HA 0000000180026350     libucrt:output.obj
 0004:0000135c       $pdata$?fin$0@?0???$?RV<lambda_886d6c58226a84441f68b9f2b8217b83>@@AEAV<lambda_ab61a845afdef5b7c387490eaf3616ee>@@V<lambda_f7f22ab5edc0698d5f6905b0d3f44752>@@@?$__crt_seh_guarded_call@X@@QEAAX$$QEAV<lambda_886d6c58226a84441f68b9f2b8217b83>@@AEAV<lambda_ab61a845afdef5b7c387490eaf3616ee>@@$$QEAV<lambda_f7f22ab5edc0698d5f6905b0d3f44752>@@@Z@4HA 000000018002635c     libucrt:fflush.obj
 0004:00001368       $pdata$raise$fin$0         0000000180026368     libucrt:signal.obj
 0004:00001374       $pdata$?fin$0@?0???$?RV<lambda_410d79af7f07d98d83a3f525b3859a53>@@AEAV<lambda_3e16ef9562a7dcce91392c22ab16ea36>@@V<lambda_38119f0e861e05405d8a144b9b982f0a>@@@?$__crt_seh_guarded_call@X@@QEAAX$$QEAV<lambda_410d79af7f07d98d83a3f525b3859a53>@@AEAV<lambda_3e16ef9562a7dcce91392c22ab16ea36>@@$$QEAV<lambda_38119f0e861e05405d8a144b9b982f0a>@@@Z@4HA 0000000180026374     libucrt:wsetlocale.obj
 0004:00001380       $pdata$?fin$0@?0??update_thread_multibyte_data_internal@@YAPEAU__crt_multibyte_data@@QEAU__acrt_ptd@@QEAPEAU1@@Z@4HA 0000000180026380     libucrt:mbctype.obj
 0004:0000138c       $pdata$__acrt_initialize_lowio$fin$0 000000018002638c     libucrt:ioinit.obj
 0004:0000138c       $pdata$__acrt_lowio_ensure_fh_exists$fin$0 000000018002638c     libucrt:osfinfo.obj
 0004:00001398       $pdata$_fcloseall$fin$0    0000000180026398     libucrt:closeall.obj
 0004:000013a4       $pdata$?fin$0@?0???$?RV<lambda_751a882b2c74d4b022dec766aa51a29a>@@AEAV<lambda_628dfdc04ba53c8bfc02c9951375f3f5>@@V<lambda_f6c7be5f7998530c34de24c7437d6b54>@@@?$__crt_seh_guarded_call@H@@QEAAH$$QEAV<lambda_751a882b2c74d4b022dec766aa51a29a>@@AEAV<lambda_628dfdc04ba53c8bfc02c9951375f3f5>@@$$QEAV<lambda_f6c7be5f7998530c34de24c7437d6b54>@@@Z@4HA 00000001800263a4     libucrt:close.obj
 0004:000013a4       $pdata$?fin$0@?0???$?RV<lambda_a37b2b86f63e897a80ea819b0eb08c01>@@AEAV<lambda_38ce7e780aa69e748d6df282ebc68efe>@@V<lambda_99fb1378e971ab6e7edea83e3a7a83a2>@@@?$__crt_seh_guarded_call@H@@QEAAH$$QEAV<lambda_a37b2b86f63e897a80ea819b0eb08c01>@@AEAV<lambda_38ce7e780aa69e748d6df282ebc68efe>@@$$QEAV<lambda_99fb1378e971ab6e7edea83e3a7a83a2>@@@Z@4HA 00000001800263a4     libucrt:commit.obj
 0004:000013b0       $pdata$?fin$0@?0???$common_lseek@_J@@YA_JH_JH@Z@4HA 00000001800263b0     libucrt:lseek.obj
 0004:000013b0       $pdata$_write$fin$0        00000001800263b0     libucrt:write.obj
 0004:000013bc       $pdata$__acrt_update_thread_locale_data$fin$0 00000001800263bc     libucrt:locale_refcounting.obj
 0004:000013c8       $pdata$fclose$fin$0        00000001800263c8     libucrt:fclose.obj
 0004:000013d4       $pdata$_ctrlfp$filt$0      00000001800263d4     libucrt:fpctrl.obj
 0004:000013e0       $pdata$_IsNonwritableInCurrentImage$filt$0 00000001800263e0     LIBCMT:pesect.obj
 0005:00000060       $R000000                   0000000180027060     * linker generated manifest res *

 Exports

  ordinal    name

        1    _register_addon_
