 ad-block

 Timestamp is 5d5564a9 (Thu Aug 15 14:56:57 2019)

 Preferred load address is 0000000180000000

 Start         Length     Name                   Class
 0001:00000000 000077b0H .text$di                CODE
 0001:000077b0 00038410H .text$mn                CODE
 0001:0003fbc0 00000020H .text$mn$00             CODE
 0001:0003fbe0 000004f0H .text$x                 CODE
 0001:000400d0 0000027cH .text$yd                CODE
 0002:00000000 000002b0H .idata$5                DATA
 0002:000002b0 00000010H .00cfg                  DATA
 0002:000002c0 00000008H .CRT$XCA                DATA
 0002:000002c8 00000038H .CRT$XCC                DATA
 0002:00000300 00000010H .CRT$XCL                DATA
 0002:00000310 00000058H .CRT$XCU                DATA
 0002:00000368 00000008H .CRT$XCZ                DATA
 0002:00000370 00000008H .CRT$XIA                DATA
 0002:00000378 00000028H .CRT$XIC                DATA
 0002:000003a0 00000008H .CRT$XIZ                DATA
 0002:000003a8 00000008H .CRT$XPA                DATA
 0002:000003b0 00000010H .CRT$XPX                DATA
 0002:000003c0 00000008H .CRT$XPXA               DATA
 0002:000003c8 00000008H .CRT$XPZ                DATA
 0002:000003d0 00000008H .CRT$XTA                DATA
 0002:000003d8 00000008H .CRT$XTZ                DATA
 0002:000003e0 00000000H .gfids$y                DATA
 0002:000003e0 0004d880H .rdata                  DATA
 0002:0004dc60 00000e14H .rdata$r                DATA
 0002:0004ea74 0000043cH .rdata$zzzdbg           DATA
 0002:0004eeb0 00000008H .rtc$IAA                DATA
 0002:0004eeb8 00000008H .rtc$IZZ                DATA
 0002:0004eec0 00000008H .rtc$TAA                DATA
 0002:0004eec8 00000008H .rtc$TZZ                DATA
 0002:0004eed0 00002a28H .xdata                  DATA
 0002:000518f8 000001dcH .xdata$x                DATA
 0002:00051ad4 00000020H .didat$2                DATA
 0002:00051af4 00000024H .didat$3                DATA
 0002:00051b18 00000158H .didat$4                DATA
 0002:00051c70 00000b28H .didat$6                DATA
 0002:00052798 00000158H .didat$7                DATA
 0002:000528f0 00000054H .edata                  DATA
 0002:00052944 00000014H .idata$2                DATA
 0002:00052958 00000018H .idata$3                DATA
 0002:00052970 000002b0H .idata$4                DATA
 0002:00052c20 0000062cH .idata$6                DATA
 0003:00000000 00002ee0H .data                   DATA
 0003:00002ee0 00000538H .data$r                 DATA
 0003:00003418 00000158H .didat$5                DATA
 0003:00003570 00001a0cH .bss                    DATA
 0004:00000000 00002d60H .pdata                  DATA
 0005:00000000 00000060H .rsrc$01                DATA
 0005:00000060 00000180H .rsrc$02                DATA

  Address         Publics by Value              Rva+Base               Lib:Object

 0000:00000000       __guard_longjmp_table      0000000000000000     <absolute>
 0000:00000000       __enclave_config           0000000000000000     <absolute>
 0000:00000000       __guard_fids_count         0000000000000000     <absolute>
 0000:00000000       ___safe_se_handler_table   0000000000000000     <absolute>
 0000:00000000       __guard_longjmp_count      0000000000000000     <absolute>
 0000:00000000       __guard_iat_table          0000000000000000     <absolute>
 0000:00000000       __volatile_metadata        0000000000000000     <absolute>
 0000:00000000       __hybrid_code_map_count    0000000000000000     <absolute>
 0000:00000000       ___safe_se_handler_count   0000000000000000     <absolute>
 0000:00000000       __hybrid_code_map          0000000000000000     <absolute>
 0000:00000000       __guard_fids_table         0000000000000000     <absolute>
 0000:00000000       __guard_iat_count          0000000000000000     <absolute>
 0000:00000000       __hybrid_auxiliary_iat     0000000000000000     <absolute>
 0000:00000000       __dynamic_value_reloc_table 0000000000000000     <absolute>
 0000:00000100       __guard_flags              0000000000000100     <absolute>
 0000:00000000       __ImageBase                0000000180000000     <linker-defined>
 0001:000077d0       ?what@exception@stdext@@UEBAPEBDXZ 00000001800087d0 f i ad_block_client_wrap.obj
 0001:000077f0       ?_Raise@exception@stdext@@QEBAXXZ 00000001800087f0 f i ad_block_client_wrap.obj
 0001:00007830       ?_Orphan_all@?$_String_alloc@U?$_String_base_types@DV?$allocator@D@std@@@std@@@std@@QEAAXXZ 0000000180008830 f i ad_block_client_wrap.obj
 0001:00007830       ?_Unlock@?$basic_streambuf@DU?$char_traits@D@std@@@std@@UEAAXXZ 0000000180008830 f i ad_block_client_wrap.obj
 0001:00007830       ?_Lock@?$basic_streambuf@DU?$char_traits@D@std@@@std@@UEAAXXZ 0000000180008830 f i ad_block_client_wrap.obj
 0001:00007830       _guard_check_icall_nop     0000000180008830 f i LIBCMT:guard_support.obj
 0001:00007830       ?_Doraise@exception@stdext@@MEBAXXZ 0000000180008830 f i ad_block_client_wrap.obj
 0001:00007830       ?_Orphan_all@?$_Vector_alloc@U?$_Vec_base_types@V?$basic_string@DU?$char_traits@D@std@@V?$allocator@D@2@@std@@V?$allocator@V?$basic_string@DU?$char_traits@D@std@@V?$allocator@D@2@@std@@@2@@std@@@std@@QEAAXXZ 0000000180008830 f i ad_block_client_wrap.obj
 0001:00007830       ?imbue@?$basic_streambuf@DU?$char_traits@D@std@@@std@@MEAAXAEBVlocale@2@@Z 0000000180008830 f i ad_block_client_wrap.obj
 0001:00007840       ??_Gexception@stdext@@UEAAPEAXI@Z 0000000180008840 f i ad_block_client_wrap.obj
 0001:00007840       ??_Gruntime_error@std@@UEAAPEAXI@Z 0000000180008840 f i ad_block_client_wrap.obj
 0001:00007840       ??_Eexception@stdext@@UEAAPEAXI@Z 0000000180008840 f i * CIL library *:* CIL module *
 0001:00007840       ??_Eruntime_error@std@@UEAAPEAXI@Z 0000000180008840 f i * CIL library *:* CIL module *
 0001:00007870       ??0runtime_error@std@@QEAA@PEBD@Z 0000000180008870 f i ad_block_client_wrap.obj
 0001:00007890       ??1_Locinfo@std@@QEAA@XZ   0000000180008890 f i ad_block_client_wrap.obj
 0001:00007930       ??_E_Facet_base@std@@UEAAPEAXI@Z 0000000180008930 f i * CIL library *:* CIL module *
 0001:00007930       ??_G_Facet_base@std@@UEAAPEAXI@Z 0000000180008930 f i ad_block_client_wrap.obj
 0001:00007960       ?_Incref@facet@locale@std@@UEAAXXZ 0000000180008960 f i ad_block_client_wrap.obj
 0001:00007970       ?_Decref@facet@locale@std@@UEAAPEAV_Facet_base@3@XZ 0000000180008970 f i ad_block_client_wrap.obj
 0001:00007980       DllMain                    0000000180008980 f i LIBCMT:dll_dllmain_stub.obj
 0001:00007980       _get_startup_argv_mode     0000000180008980 f i LIBCMT:argv_mode.obj
 0001:00007980       ?do_max_length@codecvt_base@std@@MEBAHXZ 0000000180008980 f i ad_block_client_wrap.obj
 0001:00007980       ?do_encoding@codecvt_base@std@@MEBAHXZ 0000000180008980 f i ad_block_client_wrap.obj
 0001:00007990       ?do_tolower@?$ctype@D@std@@MEBADD@Z 0000000180008990 f i ad_block_client_wrap.obj
 0001:000079a0       ?do_tolower@?$ctype@D@std@@MEBAPEBDPEADPEBD@Z 00000001800089a0 f i ad_block_client_wrap.obj
 0001:00007a00       ?do_toupper@?$ctype@D@std@@MEBADD@Z 0000000180008a00 f i ad_block_client_wrap.obj
 0001:00007a10       ?do_toupper@?$ctype@D@std@@MEBAPEBDPEADPEBD@Z 0000000180008a10 f i ad_block_client_wrap.obj
 0001:00007a70       ?do_widen@?$ctype@D@std@@MEBADD@Z 0000000180008a70 f i ad_block_client_wrap.obj
 0001:00007a70       ?do_narrow@?$ctype@D@std@@MEBADDD@Z 0000000180008a70 f i ad_block_client_wrap.obj
 0001:00007a80       ?do_widen@?$ctype@D@std@@MEBAPEBDPEBD0PEAD@Z 0000000180008a80 f i ad_block_client_wrap.obj
 0001:00007aa0       ?do_narrow@?$ctype@D@std@@MEBAPEBDPEBD0DPEAD@Z 0000000180008aa0 f i ad_block_client_wrap.obj
 0001:00007ac0       ??_G?$ctype@D@std@@MEAAPEAXI@Z 0000000180008ac0 f i ad_block_client_wrap.obj
 0001:00007ac0       ??_E?$ctype@D@std@@MEAAPEAXI@Z 0000000180008ac0 f i * CIL library *:* CIL module *
 0001:00007b30       ?default_error_condition@error_category@std@@UEBA?AVerror_condition@2@H@Z 0000000180008b30 f i ad_block_client_wrap.obj
 0001:00007b40       ?equivalent@error_category@std@@UEBA_NHAEBVerror_condition@2@@Z 0000000180008b40 f i ad_block_client_wrap.obj
 0001:00007b80       ?equivalent@error_category@std@@UEBA_NAEBVerror_code@2@H@Z 0000000180008b80 f i ad_block_client_wrap.obj
 0001:00007ba0       ?make_error_code@std@@YA?AVerror_code@1@W4io_errc@1@@Z 0000000180008ba0 f i ad_block_client_wrap.obj
 0001:00007bf0       ??0_System_error@std@@IEAA@Verror_code@1@AEBV?$basic_string@DU?$char_traits@D@std@@V?$allocator@D@2@@1@@Z 0000000180008bf0 f i ad_block_client_wrap.obj
 0001:00007dd0       ??_E_System_error@std@@UEAAPEAXI@Z 0000000180008dd0 f i * CIL library *:* CIL module *
 0001:00007dd0       ??_G_System_error@std@@UEAAPEAXI@Z 0000000180008dd0 f i ad_block_client_wrap.obj
 0001:00007dd0       ??_Efailure@ios_base@std@@UEAAPEAXI@Z 0000000180008dd0 f i * CIL library *:* CIL module *
 0001:00007dd0       ??_Gfailure@ios_base@std@@UEAAPEAXI@Z 0000000180008dd0 f i ad_block_client_wrap.obj
 0001:00007e00       ?name@_Iostream_error_category@std@@UEBAPEBDXZ 0000000180008e00 f i ad_block_client_wrap.obj
 0001:00007e10       ?message@_Iostream_error_category@std@@UEBA?AV?$basic_string@DU?$char_traits@D@std@@V?$allocator@D@2@@2@H@Z 0000000180008e10 f i ad_block_client_wrap.obj
 0001:00007e90       ??_E_Iostream_error_category@std@@UEAAPEAXI@Z 0000000180008e90 f i * CIL library *:* CIL module *
 0001:00007e90       ??_G_Iostream_error_category@std@@UEAAPEAXI@Z 0000000180008e90 f i ad_block_client_wrap.obj
 0001:00007ec0       ??0failure@ios_base@std@@QEAA@PEBDAEBVerror_code@2@@Z 0000000180008ec0 f i ad_block_client_wrap.obj
 0001:00007f90       ??_Eios_base@std@@UEAAPEAXI@Z 0000000180008f90 f i * CIL library *:* CIL module *
 0001:00007f90       ??_Gios_base@std@@UEAAPEAXI@Z 0000000180008f90 f i ad_block_client_wrap.obj
 0001:00007fd0       ?NODE_SET_PROTOTYPE_METHOD@node@@YAXV?$Local@VFunctionTemplate@v8@@@v8@@PEBDP6AXAEBV?$FunctionCallbackInfo@VValue@v8@@@3@@Z@Z 0000000180008fd0 f i ad_block_client_wrap.obj
 0001:000080d0       ?Ref@ObjectWrap@node@@MEAAXXZ 00000001800090d0 f i ad_block_client_wrap.obj
 0001:00008110       ?Unref@ObjectWrap@node@@MEAAXXZ 0000000180009110 f i ad_block_client_wrap.obj
 0001:000081c0       ?WeakCallback@ObjectWrap@node@@CAXAEBV?$WeakCallbackInfo@VObjectWrap@node@@@v8@@@Z 00000001800091c0 f i ad_block_client_wrap.obj
 0001:00008220       ??_EObjectWrap@node@@UEAAPEAXI@Z 0000000180009220 f i * CIL library *:* CIL module *
 0001:00008220       ??_GObjectWrap@node@@UEAAPEAXI@Z 0000000180009220 f i ad_block_client_wrap.obj
 0001:00008280       ??_I@YAXPEAX_K1P6AX0@Z@Z   0000000180009280 f i ad_block_client_wrap.obj
 0001:000082e0       ??_GAdBlockClientWrap@ad_block_client_wrap@@EEAAPEAXI@Z 00000001800092e0 f i ad_block_client_wrap.obj
 0001:000082e0       ??_EAdBlockClientWrap@ad_block_client_wrap@@EEAAPEAXI@Z 00000001800092e0 f i * CIL library *:* CIL module *
 0001:00008350       ?ToLocalObject@ad_block_client_wrap@@YA?AV?$Local@VObject@v8@@@v8@@PEAVIsolate@3@AEBVFilterList@@@Z 0000000180009350 f   ad_block_client_wrap.obj
 0001:00008650       ?GenerateManifestFile@ad_block_client_wrap@@YAXAEBV?$basic_string@DU?$char_traits@D@std@@V?$allocator@D@2@@std@@00@Z 0000000180009650 f   ad_block_client_wrap.obj
 0001:00008840       ??_D?$basic_ofstream@DU?$char_traits@D@std@@@std@@QEAAXXZ 0000000180009840 f i ad_block_client_wrap.obj
 0001:000088d0       ?Init@AdBlockClientWrap@ad_block_client_wrap@@SAXV?$Local@VObject@v8@@@v8@@@Z 00000001800098d0 f   ad_block_client_wrap.obj
 0001:00009420       ?New@AdBlockClientWrap@ad_block_client_wrap@@CAXAEBV?$FunctionCallbackInfo@VValue@v8@@@v8@@@Z 000000018000a420 f   ad_block_client_wrap.obj
 0001:000096b0       ?Clear@AdBlockClientWrap@ad_block_client_wrap@@CAXAEBV?$FunctionCallbackInfo@VValue@v8@@@v8@@@Z 000000018000a6b0 f   ad_block_client_wrap.obj
 0001:000096d0       ?Parse@AdBlockClientWrap@ad_block_client_wrap@@CAXAEBV?$FunctionCallbackInfo@VValue@v8@@@v8@@@Z 000000018000a6d0 f   ad_block_client_wrap.obj
 0001:00009780       ?Matches@AdBlockClientWrap@ad_block_client_wrap@@CAXAEBV?$FunctionCallbackInfo@VValue@v8@@@v8@@@Z 000000018000a780 f   ad_block_client_wrap.obj
 0001:000098a0       ?FindMatchingFilters@AdBlockClientWrap@ad_block_client_wrap@@CAXAEBV?$FunctionCallbackInfo@VValue@v8@@@v8@@@Z 000000018000a8a0 f   ad_block_client_wrap.obj
 0001:00009b60       ?Serialize@AdBlockClientWrap@ad_block_client_wrap@@CAXAEBV?$FunctionCallbackInfo@VValue@v8@@@v8@@@Z 000000018000ab60 f   ad_block_client_wrap.obj
 0001:00009ca0       ?Deserialize@AdBlockClientWrap@ad_block_client_wrap@@CAXAEBV?$FunctionCallbackInfo@VValue@v8@@@v8@@@Z 000000018000aca0 f   ad_block_client_wrap.obj
 0001:00009dc0       ?GetParsingStats@AdBlockClientWrap@ad_block_client_wrap@@CAXAEBV?$FunctionCallbackInfo@VValue@v8@@@v8@@@Z 000000018000adc0 f   ad_block_client_wrap.obj
 0001:0000a120       ?GetFilters@AdBlockClientWrap@ad_block_client_wrap@@CAXAEBV?$FunctionCallbackInfo@VValue@v8@@@v8@@@Z 000000018000b120 f   ad_block_client_wrap.obj
 0001:0000a950       ?GetFingerprint@AdBlockClientWrap@ad_block_client_wrap@@CAXAEBV?$FunctionCallbackInfo@VValue@v8@@@v8@@@Z 000000018000b950 f   ad_block_client_wrap.obj
 0001:0000aa30       ?GetMatchingStats@AdBlockClientWrap@ad_block_client_wrap@@CAXAEBV?$FunctionCallbackInfo@VValue@v8@@@v8@@@Z 000000018000ba30 f   ad_block_client_wrap.obj
 0001:0000ac50       ?EnableBadFingerprintDetection@AdBlockClientWrap@ad_block_client_wrap@@CAXAEBV?$FunctionCallbackInfo@VValue@v8@@@v8@@@Z 000000018000bc50 f   ad_block_client_wrap.obj
 0001:0000ad70       ?GenerateBadFingerprintsHeader@AdBlockClientWrap@ad_block_client_wrap@@CAXAEBV?$FunctionCallbackInfo@VValue@v8@@@v8@@@Z 000000018000bd70 f   ad_block_client_wrap.obj
 0001:0000add0       ?GenerateDefaultManifestFile@AdBlockClientWrap@ad_block_client_wrap@@CAXAEBV?$FunctionCallbackInfo@VValue@v8@@@v8@@@Z 000000018000bdd0 f   ad_block_client_wrap.obj
 0001:0000afd0       ?GenerateRegionalManifestFiles@AdBlockClientWrap@ad_block_client_wrap@@CAXAEBV?$FunctionCallbackInfo@VValue@v8@@@v8@@@Z 000000018000bfd0 f   ad_block_client_wrap.obj
 0001:0000b350       ?Cleanup@AdBlockClientWrap@ad_block_client_wrap@@CAXAEBV?$FunctionCallbackInfo@VValue@v8@@@v8@@@Z 000000018000c350 f   ad_block_client_wrap.obj
 0001:0000b390       ??0?$vector@VFilterList@@V?$allocator@VFilterList@@@std@@@std@@QEAA@V?$initializer_list@VFilterList@@@1@AEBV?$allocator@VFilterList@@@1@@Z 000000018000c390 f i ad_block_client_wrap.obj
 0001:0000b4b0       ??0?$vector@V?$basic_string@DU?$char_traits@D@std@@V?$allocator@D@2@@std@@V?$allocator@V?$basic_string@DU?$char_traits@D@std@@V?$allocator@D@2@@std@@@2@@std@@QEAA@V?$initializer_list@V?$basic_string@DU?$char_traits@D@std@@V?$allocator@D@2@@std@@@1@AEBV?$allocator@V?$basic_string@DU?$char_traits@D@std@@V?$allocator@D@2@@std@@@1@@Z 000000018000c4b0 f i ad_block_client_wrap.obj
 0001:0000b540       ??1?$basic_string@DU?$char_traits@D@std@@V?$allocator@D@2@@std@@QEAA@XZ 000000018000c540 f i ad_block_client_wrap.obj
 0001:0000b5a0       ??0?$basic_string@DU?$char_traits@D@std@@V?$allocator@D@2@@std@@QEAA@QEBD@Z 000000018000c5a0 f i ad_block_client_wrap.obj
 0001:0000b5e0       ??0?$basic_string@DU?$char_traits@D@std@@V?$allocator@D@2@@std@@QEAA@AEBV01@@Z 000000018000c5e0 f i ad_block_client_wrap.obj
 0001:0000b6c0       ?imbue@?$basic_filebuf@DU?$char_traits@D@std@@@std@@MEAAXAEBVlocale@2@@Z 000000018000c6c0 f i ad_block_client_wrap.obj
 0001:0000b6f0       ?sync@?$basic_filebuf@DU?$char_traits@D@std@@@std@@MEAAHXZ 000000018000c6f0 f i ad_block_client_wrap.obj
 0001:0000b740       ?setbuf@?$basic_filebuf@DU?$char_traits@D@std@@@std@@MEAAPEAV?$basic_streambuf@DU?$char_traits@D@std@@@2@PEAD_J@Z 000000018000c740 f i ad_block_client_wrap.obj
 0001:0000b7a0       ?seekpos@?$basic_filebuf@DU?$char_traits@D@std@@@std@@MEAA?AV?$fpos@U_Mbstatet@@@2@V32@H@Z 000000018000c7a0 f i ad_block_client_wrap.obj
 0001:0000b880       ?seekoff@?$basic_filebuf@DU?$char_traits@D@std@@@std@@MEAA?AV?$fpos@U_Mbstatet@@@2@_JHH@Z 000000018000c880 f i ad_block_client_wrap.obj
 0001:0000b970       ?xsputn@?$basic_filebuf@DU?$char_traits@D@std@@@std@@MEAA_JPEBD_J@Z 000000018000c970 f i ad_block_client_wrap.obj
 0001:0000ba50       ?xsgetn@?$basic_filebuf@DU?$char_traits@D@std@@@std@@MEAA_JPEAD_J@Z 000000018000ca50 f i ad_block_client_wrap.obj
 0001:0000bb30       ?uflow@?$basic_filebuf@DU?$char_traits@D@std@@@std@@MEAAHXZ 000000018000cb30 f i ad_block_client_wrap.obj
 0001:0000bdd0       ?underflow@?$basic_filebuf@DU?$char_traits@D@std@@@std@@MEAAHXZ 000000018000cdd0 f i ad_block_client_wrap.obj
 0001:0000be40       ?pbackfail@?$basic_filebuf@DU?$char_traits@D@std@@@std@@MEAAHH@Z 000000018000ce40 f i ad_block_client_wrap.obj
 0001:0000bf30       ?overflow@?$basic_filebuf@DU?$char_traits@D@std@@@std@@MEAAHH@Z 000000018000cf30 f i ad_block_client_wrap.obj
 0001:0000c0d0       ?_Unlock@?$basic_filebuf@DU?$char_traits@D@std@@@std@@UEAAXXZ 000000018000d0d0 f i ad_block_client_wrap.obj
 0001:0000c0f0       ?_Lock@?$basic_filebuf@DU?$char_traits@D@std@@@std@@UEAAXXZ 000000018000d0f0 f i ad_block_client_wrap.obj
 0001:0000c110       ??1?$basic_filebuf@DU?$char_traits@D@std@@@std@@UEAA@XZ 000000018000d110 f i ad_block_client_wrap.obj
 0001:0000c250       ?showmanyc@?$basic_streambuf@DU?$char_traits@D@std@@@std@@MEAA_JXZ 000000018000d250 f i ad_block_client_wrap.obj
 0001:0000c250       ?sync@?$basic_streambuf@DU?$char_traits@D@std@@@std@@MEAAHXZ 000000018000d250 f i ad_block_client_wrap.obj
 0001:0000c260       ?setbuf@?$basic_streambuf@DU?$char_traits@D@std@@@std@@MEAAPEAV12@PEAD_J@Z 000000018000d260 f i ad_block_client_wrap.obj
 0001:0000c270       ?seekpos@?$basic_streambuf@DU?$char_traits@D@std@@@std@@MEAA?AV?$fpos@U_Mbstatet@@@2@V32@H@Z 000000018000d270 f i ad_block_client_wrap.obj
 0001:0000c270       ?seekoff@?$basic_streambuf@DU?$char_traits@D@std@@@std@@MEAA?AV?$fpos@U_Mbstatet@@@2@_JHH@Z 000000018000d270 f i ad_block_client_wrap.obj
 0001:0000c290       ?xsputn@?$basic_streambuf@DU?$char_traits@D@std@@@std@@MEAA_JPEBD_J@Z 000000018000d290 f i ad_block_client_wrap.obj
 0001:0000c350       ?xsgetn@?$basic_streambuf@DU?$char_traits@D@std@@@std@@MEAA_JPEAD_J@Z 000000018000d350 f i ad_block_client_wrap.obj
 0001:0000c400       ?uflow@?$basic_streambuf@DU?$char_traits@D@std@@@std@@MEAAHXZ 000000018000d400 f i ad_block_client_wrap.obj
 0001:0000c440       ?underflow@?$basic_streambuf@DU?$char_traits@D@std@@@std@@MEAAHXZ 000000018000d440 f i ad_block_client_wrap.obj
 0001:0000c440       ?overflow@?$basic_streambuf@DU?$char_traits@D@std@@@std@@MEAAHH@Z 000000018000d440 f i ad_block_client_wrap.obj
 0001:0000c440       ?pbackfail@?$basic_streambuf@DU?$char_traits@D@std@@@std@@MEAAHH@Z 000000018000d440 f i ad_block_client_wrap.obj
 0001:0000c450       ??_E?$basic_ofstream@DU?$char_traits@D@std@@@std@@UEAAPEAXI@Z 000000018000d450 f i * CIL library *:* CIL module *
 0001:0000c450       ??_G?$basic_ofstream@DU?$char_traits@D@std@@@std@@UEAAPEAXI@Z 000000018000d450 f i ad_block_client_wrap.obj
 0001:0000c490       ??_G?$basic_filebuf@DU?$char_traits@D@std@@@std@@UEAAPEAXI@Z 000000018000d490 f i ad_block_client_wrap.obj
 0001:0000c490       ??_E?$basic_filebuf@DU?$char_traits@D@std@@@std@@UEAAPEAXI@Z 000000018000d490 f i * CIL library *:* CIL module *
 0001:0000c4d0       ??_E?$basic_ostream@DU?$char_traits@D@std@@@std@@UEAAPEAXI@Z 000000018000d4d0 f i * CIL library *:* CIL module *
 0001:0000c4d0       ??_G?$basic_ostream@DU?$char_traits@D@std@@@std@@UEAAPEAXI@Z 000000018000d4d0 f i ad_block_client_wrap.obj
 0001:0000c540       ??_G?$basic_streambuf@DU?$char_traits@D@std@@@std@@UEAAPEAXI@Z 000000018000d540 f i ad_block_client_wrap.obj
 0001:0000c540       ??_E?$basic_streambuf@DU?$char_traits@D@std@@@std@@UEAAPEAXI@Z 000000018000d540 f i * CIL library *:* CIL module *
 0001:0000c5c0       ??_G?$basic_ios@DU?$char_traits@D@std@@@std@@UEAAPEAXI@Z 000000018000d5c0 f i ad_block_client_wrap.obj
 0001:0000c5c0       ??_E?$basic_ios@DU?$char_traits@D@std@@@std@@UEAAPEAXI@Z 000000018000d5c0 f i * CIL library *:* CIL module *
 0001:0000c600       ?do_length@?$codecvt@DDU_Mbstatet@@@std@@MEBAHAEAU_Mbstatet@@PEBD1_K@Z 000000018000d600 f i ad_block_client_wrap.obj
 0001:0000c610       ?do_unshift@?$codecvt@DDU_Mbstatet@@@std@@MEBAHAEAU_Mbstatet@@PEAD1AEAPEAD@Z 000000018000d610 f i ad_block_client_wrap.obj
 0001:0000c620       ?do_in@?$codecvt@DDU_Mbstatet@@@std@@MEBAHAEAU_Mbstatet@@PEBD1AEAPEBDPEAD3AEAPEAD@Z 000000018000d620 f i ad_block_client_wrap.obj
 0001:0000c620       ?do_out@?$codecvt@DDU_Mbstatet@@@std@@MEBAHAEAU_Mbstatet@@PEBD1AEAPEBDPEAD3AEAPEAD@Z 000000018000d620 f i ad_block_client_wrap.obj
 0001:0000c640       ?do_always_noconv@?$codecvt@DDU_Mbstatet@@@std@@MEBA_NXZ 000000018000d640 f i ad_block_client_wrap.obj
 0001:0000c640       __acrt_uninitialize_command_line 000000018000d640 f i libucrt:argv_data.obj
 0001:0000c650       ?_Tidy@?$vector@VFilterList@@V?$allocator@VFilterList@@@std@@@std@@AEAAXXZ 000000018000d650 f i ad_block_client_wrap.obj
 0001:0000c710       ?_Tidy@?$vector@V?$basic_string@DU?$char_traits@D@std@@V?$allocator@D@2@@std@@V?$allocator@V?$basic_string@DU?$char_traits@D@std@@V?$allocator@D@2@@std@@@2@@std@@AEAAXXZ 000000018000d710 f i ad_block_client_wrap.obj
 0001:0000c780       ?push_back@?$basic_string@DU?$char_traits@D@std@@V?$allocator@D@2@@std@@QEAAXD@Z 000000018000d780 f i ad_block_client_wrap.obj
 0001:0000c910       ?assign@?$basic_string@DU?$char_traits@D@std@@V?$allocator@D@2@@std@@QEAAAEAV12@QEBD_K@Z 000000018000d910 f i ad_block_client_wrap.obj
 0001:0000ca60       ?append@?$basic_string@DU?$char_traits@D@std@@V?$allocator@D@2@@std@@QEAAAEAV12@QEBD_K@Z 000000018000da60 f i ad_block_client_wrap.obj
 0001:0000cae0       ??0?$basic_ofstream@DU?$char_traits@D@std@@@std@@QEAA@PEBDHH@Z 000000018000dae0 f i ad_block_client_wrap.obj
 0001:0000cd70       ?_Reset_back@?$basic_filebuf@DU?$char_traits@D@std@@@std@@AEAAXXZ 000000018000dd70 f i ad_block_client_wrap.obj
 0001:0000cda0       ?_Initcvt@?$basic_filebuf@DU?$char_traits@D@std@@@std@@IEAAXAEBV?$codecvt@DDU_Mbstatet@@@2@@Z 000000018000dda0 f i ad_block_client_wrap.obj
 0001:0000ce40       ?_Endwrite@?$basic_filebuf@DU?$char_traits@D@std@@@std@@IEAA_NXZ 000000018000de40 f i ad_block_client_wrap.obj
 0001:0000cf10       ?_Init@?$basic_filebuf@DU?$char_traits@D@std@@@std@@IEAAXPEAU_iobuf@@W4_Initfl@12@@Z 000000018000df10 f i ad_block_client_wrap.obj
 0001:0000d000       ?_Pnavail@?$basic_streambuf@DU?$char_traits@D@std@@@std@@IEBA_JXZ 000000018000e000 f i ad_block_client_wrap.obj
 0001:0000d020       ?_Gnavail@?$basic_streambuf@DU?$char_traits@D@std@@@std@@IEBA_JXZ 000000018000e020 f i ad_block_client_wrap.obj
 0001:0000d040       ??_G?$codecvt@DDU_Mbstatet@@@std@@MEAAPEAXI@Z 000000018000e040 f i ad_block_client_wrap.obj
 0001:0000d040       ??_E?$codecvt@DDU_Mbstatet@@@std@@MEAAPEAXI@Z 000000018000e040 f i * CIL library *:* CIL module *
 0001:0000d070       ??0?$basic_ostream@DU?$char_traits@D@std@@@std@@QEAA@PEAV?$basic_streambuf@DU?$char_traits@D@std@@@1@_N@Z 000000018000e070 f i ad_block_client_wrap.obj
 0001:0000d1b0       ?setstate@?$basic_ios@DU?$char_traits@D@std@@@std@@QEAAXH_N@Z 000000018000e1b0 f i ad_block_client_wrap.obj
 0001:0000d230       ??0?$basic_streambuf@DU?$char_traits@D@std@@@std@@IEAA@XZ 000000018000e230 f i ad_block_client_wrap.obj
 0001:0000d2d0       ??$use_facet@V?$ctype@D@std@@@std@@YAAEBV?$ctype@D@0@AEBVlocale@0@@Z 000000018000e2d0 f i ad_block_client_wrap.obj
 0001:0000d4d0       ??$?6U?$char_traits@D@std@@@std@@YAAEAV?$basic_ostream@DU?$char_traits@D@std@@@0@AEAV10@PEBD@Z 000000018000e4d0 f i ad_block_client_wrap.obj
 0001:0000d780       ??$endl@DU?$char_traits@D@std@@@std@@YAAEAV?$basic_ostream@DU?$char_traits@D@std@@@0@AEAV10@@Z 000000018000e780 f i ad_block_client_wrap.obj
 0001:0000d820       ??$Unwrap@VAdBlockClientWrap@ad_block_client_wrap@@@ObjectWrap@node@@SAPEAVAdBlockClientWrap@ad_block_client_wrap@@V?$Local@VObject@v8@@@v8@@@Z 000000018000e820 f i ad_block_client_wrap.obj
 0001:0000d8b0       ??$use_facet@V?$codecvt@DDU_Mbstatet@@@std@@@std@@YAAEBV?$codecvt@DDU_Mbstatet@@@0@AEBVlocale@0@@Z 000000018000e8b0 f i ad_block_client_wrap.obj
 0001:0000da90       ??$_Reallocate_grow_by@V<lambda_65e615be2a453ca0576c979606f46740>@@PEBD_K@?$basic_string@DU?$char_traits@D@std@@V?$allocator@D@2@@std@@QEAAAEAV01@_KV<lambda_65e615be2a453ca0576c979606f46740>@@PEBD_K@Z 000000018000ea90 f i ad_block_client_wrap.obj
 0001:0000dc10       ??$_Destroy_range@V?$allocator@V?$basic_string@DU?$char_traits@D@std@@V?$allocator@D@2@@std@@@std@@@std@@YAXPEAV?$basic_string@DU?$char_traits@D@std@@V?$allocator@D@2@@0@0AEAV?$allocator@V?$basic_string@DU?$char_traits@D@std@@V?$allocator@D@2@@std@@@0@@Z 000000018000ec10 f i ad_block_client_wrap.obj
 0001:0000dca0       ??0sentry@?$basic_ostream@DU?$char_traits@D@std@@@std@@QEAA@AEAV12@@Z 000000018000eca0 f i ad_block_client_wrap.obj
 0001:0000dd10       ?_Buy@?$vector@V?$basic_string@DU?$char_traits@D@std@@V?$allocator@D@2@@std@@V?$allocator@V?$basic_string@DU?$char_traits@D@std@@V?$allocator@D@2@@std@@@2@@std@@AEAA_N_K@Z 000000018000ed10 f i ad_block_client_wrap.obj
 0001:0000ddb0       ?_Xlen@?$basic_string@DU?$char_traits@D@std@@V?$allocator@D@2@@std@@SAXXZ 000000018000edb0 f i ad_block_client_wrap.obj
 0001:0000ddd0       ?flush@?$basic_ostream@DU?$char_traits@D@std@@@std@@QEAAAEAV12@XZ 000000018000edd0 f i ad_block_client_wrap.obj
 0001:0000dea0       ?put@?$basic_ostream@DU?$char_traits@D@std@@@std@@QEAAAEAV12@D@Z 000000018000eea0 f i ad_block_client_wrap.obj
 0001:0000dfd0       ?_Xlength@?$vector@V?$basic_string@DU?$char_traits@D@std@@V?$allocator@D@2@@std@@V?$allocator@V?$basic_string@DU?$char_traits@D@std@@V?$allocator@D@2@@std@@@2@@std@@CAXXZ 000000018000efd0 f i ad_block_client_wrap.obj
 0001:0000dfd0       ?_Xlength@?$vector@VFilterList@@V?$allocator@VFilterList@@@std@@@std@@CAXXZ 000000018000efd0 f i ad_block_client_wrap.obj
 0001:0000dff0       ?insert@?$basic_string@DU?$char_traits@D@std@@V?$allocator@D@2@@std@@QEAAAEAV12@_KQEBD0@Z 000000018000eff0 f i ad_block_client_wrap.obj
 0001:0000e0e0       ??$_Immortalize_impl@V_Iostream_error_category@std@@@std@@YAHPEAX0PEAPEAX@Z 000000018000f0e0 f i ad_block_client_wrap.obj
 0001:0000e100       ??$_Insert_string@DU?$char_traits@D@std@@_K@std@@YAAEAV?$basic_ostream@DU?$char_traits@D@std@@@0@AEAV10@QEBD_K@Z 000000018000f100 f i ad_block_client_wrap.obj
 0001:0000e390       ??$_Reallocate_grow_by@V<lambda_f3a66ab6a0570788f31503db83886f49>@@_KPEBD_K@?$basic_string@DU?$char_traits@D@std@@V?$allocator@D@2@@std@@QEAAAEAV01@_KV<lambda_f3a66ab6a0570788f31503db83886f49>@@_KPEBD2@Z 000000018000f390 f i ad_block_client_wrap.obj
 0001:0000e4ec       ??_E?$basic_ostream@DU?$char_traits@D@std@@@std@@$4PPPPPPPM@A@EAAPEAXI@Z 000000018000f4ec f i ad_block_client_wrap.obj
 0001:0000e4f8       ??_E?$basic_ofstream@DU?$char_traits@D@std@@@std@@$4PPPPPPPM@A@EAAPEAXI@Z 000000018000f4f8 f i ad_block_client_wrap.obj
 0001:0000e510       __local_stdio_printf_options 000000018000f510 f i ad_block_client.obj
 0001:0000e520       __local_stdio_scanf_options 000000018000f520 f i ad_block_client.obj
 0001:0000e530       snprintf                   000000018000f530 f i ad_block_client.obj
 0001:0000e590       sscanf                     000000018000f590 f i ad_block_client.obj
 0001:0000e5f0       ??0BadFingerprint@@QEAA@AEBV0@@Z 000000018000f5f0 f i ad_block_client.obj
 0001:0000e660       ?getUrlHost@@YAPEBDPEBDPEAH@Z 000000018000f660 f   ad_block_client.obj
 0001:0000e720       ?getFingerprint@AdBlockClient@@SA_NPEADPEBD@Z 000000018000f720 f   ad_block_client.obj
 0001:0000e870       ?findFirstSeparatorChar@@YAHPEBD0@Z 000000018000f870 f   ad_block_client.obj
 0001:0000e8e0       ?parseFilter@@YAXPEBD0PEAVFilter@@PEAVBloomFilter@@2PEAV?$HashSet@VFilter@@@@3PEAV?$HashSet@VCosmeticFilter@@@@_N@Z 000000018000f8e0 f   ad_block_client.obj
 0001:0000f2e0       ?clear@AdBlockClient@@QEAAXXZ 00000001800102e0 f   ad_block_client.obj
 0001:0000f5e0       ??_EFilter@@QEAAPEAXI@Z    00000001800105e0 f i ad_block_client.obj
 0001:0000f6a0       ?hasMatchingFilters@AdBlockClient@@IEAA_NPEAVFilter@@HPEBDHW4FilterOption@@1PEAVBloomFilter@@1HPEAPEAV2@@Z 00000001800106a0 f   ad_block_client.obj
 0001:0000f780       ?discoverMatchingPrefix@@YAXPEAVBadFingerprintsHashSet@@PEBDPEAVBloomFilter@@H@Z 0000000180010780 f   ad_block_client.obj
 0001:0000f8a0       ?isNoFingerprintDomainHashSetMiss@@YA_NPEAV?$HashSet@VNoFingerprintDomain@@@@PEBDH@Z 00000001800108a0 f   ad_block_client.obj
 0001:0000f9d0       ?isHostAnchoredHashSetMiss@@YA_NPEBDHPEAV?$HashSet@VFilter@@@@0HW4FilterOption@@0PEAPEAVFilter@@@Z 00000001800109d0 f   ad_block_client.obj
 0001:0000fb90       ?matches@AdBlockClient@@QEAA_NPEBDW4FilterOption@@0@Z 0000000180010b90 f   ad_block_client.obj
 0001:00010390       ?findMatchingFilters@AdBlockClient@@QEAA_NPEBDW4FilterOption@@0PEAPEAVFilter@@2@Z 0000000180011390 f   ad_block_client.obj
 0001:000106f0       ?initBloomFilter@AdBlockClient@@IEAAXPEAPEAVBloomFilter@@PEBDH@Z 00000001800116f0 f   ad_block_client.obj
 0001:000107a0       ?parse@AdBlockClient@@QEAA_NPEBD_N@Z 00000001800117a0 f   ad_block_client.obj
 0001:00012470       ?serializeFilters@@YAHPEAD_KPEAVFilter@@H@Z 0000000180013470 f   ad_block_client.obj
 0001:00012620       ?serialize@AdBlockClient@@QEAAPEADPEAH_N1@Z 0000000180013620 f   ad_block_client.obj
 0001:00012d80       ?deserializeFilters@@YAHPEADPEAVFilter@@H@Z 0000000180013d80 f   ad_block_client.obj
 0001:00012eb0       ?deserialize@AdBlockClient@@QEAA_NPEAD@Z 0000000180013eb0 f   ad_block_client.obj
 0001:000136a0       ??RHashFn2Byte@@UEAA_KPEBDH@Z 00000001800146a0 f   ad_block_client.obj
 0001:000136a0       ??RHashFn2Byte@@UEAA_KPEBDHE_K@Z 00000001800146a0 f   ad_block_client.obj
 0001:000136c0       ?Add@?$HashSet@VBadFingerprint@@@@QEAA_NAEBVBadFingerprint@@_N@Z 00000001800146c0 f i ad_block_client.obj
 0001:000137c0       ?Find@?$HashSet@VNoFingerprintDomain@@@@QEAAPEAVNoFingerprintDomain@@AEBV2@@Z 00000001800147c0 f i ad_block_client.obj
 0001:00013860       ?Add@?$HashSet@VNoFingerprintDomain@@@@QEAA_NAEBVNoFingerprintDomain@@_N@Z 0000000180014860 f i ad_block_client.obj
 0001:00013990       ?Find@?$HashSet@VFilter@@@@QEAAPEAVFilter@@AEBV2@@Z 0000000180014990 f i ad_block_client.obj
 0001:00013aa0       ?Add@?$HashSet@VFilter@@@@QEAA_NAEBVFilter@@_N@Z 0000000180014aa0 f i ad_block_client.obj
 0001:00013c40       ?SerializeBuckets@?$HashSet@VNoFingerprintDomain@@@@AEAAIPEAD@Z 0000000180014c40 f i ad_block_client.obj
 0001:00013dd0       ?Cleanup@?$HashSet@VNoFingerprintDomain@@@@AEAAXXZ 0000000180014dd0 f i ad_block_client.obj
 0001:00013eb0       ?SerializeBuckets@?$HashSet@VFilter@@@@AEAAIPEAD@Z 0000000180014eb0 f i ad_block_client.obj
 0001:00013fb0       ?Cleanup@?$HashSet@VFilter@@@@AEAAXXZ 0000000180014fb0 f i ad_block_client.obj
 0001:00014070       ?erase@?$_Tree@V?$_Tset_traits@V?$basic_string@DU?$char_traits@D@std@@V?$allocator@D@2@@std@@U?$less@V?$basic_string@DU?$char_traits@D@std@@V?$allocator@D@2@@std@@@2@V?$allocator@V?$basic_string@DU?$char_traits@D@std@@V?$allocator@D@2@@std@@@2@$0A@@std@@@std@@QEAA?AV?$_Tree_const_iterator@V?$_Tree_val@U?$_Tree_simple_types@V?$basic_string@DU?$char_traits@D@std@@V?$allocator@D@2@@std@@@std@@@std@@@2@V32@0@Z 0000000180015070 f i ad_block_client.obj
 0001:00014230       ?_Extract@?$_Tree_val@U?$_Tree_simple_types@V?$basic_string@DU?$char_traits@D@std@@V?$allocator@D@2@@std@@@std@@@std@@QEAAPEAU?$_Tree_node@V?$basic_string@DU?$char_traits@D@std@@V?$allocator@D@2@@std@@PEAX@2@V?$_Tree_const_iterator@V?$_Tree_val@U?$_Tree_simple_types@V?$basic_string@DU?$char_traits@D@std@@V?$allocator@D@2@@std@@@std@@@std@@@2@@Z 0000000180015230 f i ad_block_client.obj
 0001:000146d0       ?_Erase@?$_Tree@V?$_Tset_traits@V?$basic_string@DU?$char_traits@D@std@@V?$allocator@D@2@@std@@U?$less@V?$basic_string@DU?$char_traits@D@std@@V?$allocator@D@2@@std@@@2@V?$allocator@V?$basic_string@DU?$char_traits@D@std@@V?$allocator@D@2@@std@@@2@$0A@@std@@@std@@IEAAXPEAU?$_Tree_node@V?$basic_string@DU?$char_traits@D@std@@V?$allocator@D@2@@std@@PEAX@2@@Z 00000001800156d0 f i ad_block_client.obj
 0001:00014780       ??$initHashSet@VFilter@@@AdBlockClient@@IEAA_NPEAPEAV?$HashSet@VFilter@@@@PEADH@Z 0000000180015780 f i ad_block_client.obj
 0001:00014810       ??$initHashSet@VNoFingerprintDomain@@@AdBlockClient@@IEAA_NPEAPEAV?$HashSet@VNoFingerprintDomain@@@@PEADH@Z 0000000180015810 f i ad_block_client.obj
 0001:000148a0       ?Deserialize@?$HashSet@VNoFingerprintDomain@@@@QEAA_NPEADI@Z 00000001800158a0 f i ad_block_client.obj
 0001:00014a90       ?Deserialize@?$HashSet@VFilter@@@@QEAA_NPEADI@Z 0000000180015a90 f i ad_block_client.obj
 0001:00014d90       ??1Filter@@QEAA@XZ         0000000180015d90 f   filter.obj
 0001:00014e00       ??_G?$HashSet@VContextDomain@@@@QEAAPEAXI@Z 0000000180015e00 f i filter.obj
 0001:00014ec0       ??0Filter@@QEAA@AEBV0@@Z   0000000180015ec0 f   filter.obj
 0001:00015070       ?swapData@Filter@@QEAAXPEAV1@@Z 0000000180016070 f   filter.obj
 0001:00015190       ?parseOption@Filter@@IEAAXPEBDH@Z 0000000180016190 f   filter.obj
 0001:00015730       ?isThirdPartyHost@@YA_NPEBDH0H@Z 0000000180016730 f   filter.obj
 0001:000157a0       ?contextDomainMatchesFilter@Filter@@IEAA_NPEBD@Z 00000001800167a0 f   filter.obj
 0001:000159b0       ?matches@Filter@@QEAA_NPEBDHW4FilterOption@@0PEAVBloomFilter@@0H@Z 00000001800169b0 f   filter.obj
 0001:00015e40       ?parseDomains@Filter@@IEAAXPEBD@Z 0000000180016e40 f   filter.obj
 0001:00015fc0       ?Serialize@Filter@@QEAAIPEAD@Z 0000000180016fc0 f   filter.obj
 0001:00016100       ?Add@?$HashSet@VContextDomain@@@@QEAA_NAEBVContextDomain@@_N@Z 0000000180017100 f i filter.obj
 0001:00016220       ??$_Insert_nohint@AEBV?$basic_string@DU?$char_traits@D@std@@V?$allocator@D@2@@std@@U_Not_a_node_tag@2@@?$_Tree@V?$_Tset_traits@V?$basic_string@DU?$char_traits@D@std@@V?$allocator@D@2@@std@@U?$less@V?$basic_string@DU?$char_traits@D@std@@V?$allocator@D@2@@std@@@2@V?$allocator@V?$basic_string@DU?$char_traits@D@std@@V?$allocator@D@2@@std@@@2@$0A@@std@@@std@@IEAA?AU?$pair@V?$_Tree_const_iterator@V?$_Tree_val@U?$_Tree_simple_types@V?$basic_string@DU?$char_traits@D@std@@V?$allocator@D@2@@std@@@std@@@std@@@std@@_N@1@_NAEBV?$basic_string@DU?$char_traits@D@std@@V?$allocator@D@2@@1@U_Not_a_node_tag@1@@Z 0000000180017220 f i filter.obj
 0001:000163f0       ??$_Insert_at@AEBV?$basic_string@DU?$char_traits@D@std@@V?$allocator@D@2@@std@@U_Not_a_node_tag@2@@?$_Tree@V?$_Tset_traits@V?$basic_string@DU?$char_traits@D@std@@V?$allocator@D@2@@std@@U?$less@V?$basic_string@DU?$char_traits@D@std@@V?$allocator@D@2@@std@@@2@V?$allocator@V?$basic_string@DU?$char_traits@D@std@@V?$allocator@D@2@@std@@@2@$0A@@std@@@std@@IEAA?AV?$_Tree_const_iterator@V?$_Tree_val@U?$_Tree_simple_types@V?$basic_string@DU?$char_traits@D@std@@V?$allocator@D@2@@std@@@std@@@std@@@1@_NPEAU?$_Tree_node@V?$basic_string@DU?$char_traits@D@std@@V?$allocator@D@2@@std@@PEAX@1@AEBV?$basic_string@DU?$char_traits@D@std@@V?$allocator@D@2@@1@U_Not_a_node_tag@1@@Z 00000001800173f0 f i filter.obj
 0001:00016710       ??0FilterList@@QEAA@AEBV?$basic_string@DU?$char_traits@D@std@@V?$allocator@D@2@@std@@00AEBV?$vector@V?$basic_string@DU?$char_traits@D@std@@V?$allocator@D@2@@std@@V?$allocator@V?$basic_string@DU?$char_traits@D@std@@V?$allocator@D@2@@std@@@2@@2@000@Z 0000000180017710 f   filter_list.obj
 0001:000167a0       ??0FilterList@@QEAA@AEBV0@@Z 00000001800177a0 f   filter_list.obj
 0001:00016820       ??1FilterList@@QEAA@XZ     0000000180017820 f   filter_list.obj
 0001:00016a80       ??0?$vector@V?$basic_string@DU?$char_traits@D@std@@V?$allocator@D@2@@std@@V?$allocator@V?$basic_string@DU?$char_traits@D@std@@V?$allocator@D@2@@std@@@2@@std@@QEAA@AEBV01@@Z 0000000180017a80 f i filter_list.obj
 0001:00016b10       ??0NoFingerprintDomain@@QEAA@AEBV0@@Z 0000000180017b10 f   no_fingerprint_domain.obj
 0001:00016bb0       ?isBlockableProtocol@@YA_NPEBDH@Z 0000000180017bb0 f   protocol.obj
 0001:00016d70       ??_EBloomFilter@@UEAAPEAXI@Z 0000000180017d70 f i * CIL library *:* CIL module *
 0001:00016d70       ??_GBloomFilter@@UEAAPEAXI@Z 0000000180017d70 f i BloomFilter.obj
 0001:00016dd0       ?add@BloomFilter@@QEAAXPEBDH@Z 0000000180017dd0 f   BloomFilter.obj
 0001:00016e70       ?exists@BloomFilter@@QEAA_NPEBDH@Z 0000000180017e70 f   BloomFilter.obj
 0001:00016f10       ?substringExists@BloomFilter@@QEAA_NPEBDH@Z 0000000180017f10 f   BloomFilter.obj
 0001:000170d0       ??RHashFn@@UEAA_KPEBDHE_K@Z 00000001800180d0 f   hashFn.obj
 0001:00017140       ??RHashFn@@UEAA_KPEBDH@Z   0000000180018140 f   hashFn.obj
 0001:0001722c       __imp_load_node_module_register 000000018001822c f   node:node.exe
 0001:00017238       __tailMerge_node_exe       0000000180018238     node:node.exe
 0001:000172b1       __imp_load_?New@Integer@v8@@SA?AV?$Local@VInteger@v8@@@2@PEAVIsolate@2@H@Z 00000001800182b1 f   node:node.exe
 0001:000172bd       __imp_load_?New@Signature@v8@@SA?AV?$Local@VSignature@v8@@@2@PEAVIsolate@2@V?$Local@VFunctionTemplate@v8@@@2@@Z 00000001800182bd f   node:node.exe
 0001:000172c9       __imp_load_?ThrowException@Isolate@v8@@QEAA?AV?$Local@VValue@v8@@@2@V32@@Z 00000001800182c9 f   node:node.exe
 0001:000172d5       __imp_load_?GetCurrentContext@Isolate@v8@@QEAA?AV?$Local@VContext@v8@@@2@XZ 00000001800182d5 f   node:node.exe
 0001:000172e1       __imp_load_?GetCurrent@Isolate@v8@@SAPEAV12@XZ 00000001800182e1 f   node:node.exe
 0001:000172ed       __imp_load_?CreateHandle@HandleScope@v8@@KAPEAPEAVObject@internal@2@PEAVIsolate@42@PEAV342@@Z 00000001800182ed f   node:node.exe
 0001:000172f9       __imp_load_??1HandleScope@v8@@QEAA@XZ 00000001800182f9 f   node:node.exe
 0001:00017305       __imp_load_??0HandleScope@v8@@QEAA@PEAVIsolate@1@@Z 0000000180018305 f   node:node.exe
 0001:00017311       __imp_load_?Set@Template@v8@@QEAAXV?$Local@VName@v8@@@2@V?$Local@VData@v8@@@2@W4PropertyAttribute@2@@Z 0000000180018311 f   node:node.exe
 0001:0001731d       __imp_load_?TypeError@Exception@v8@@SA?AV?$Local@VValue@v8@@@2@V?$Local@VString@v8@@@2@@Z 000000018001831d f   node:node.exe
 0001:00017329       __imp_load_?New@Array@v8@@SA?AV?$Local@VArray@v8@@@2@PEAVIsolate@2@H@Z 0000000180018329 f   node:node.exe
 0001:00017335       __imp_load_?SetClassName@FunctionTemplate@v8@@QEAAXV?$Local@VString@v8@@@2@@Z 0000000180018335 f   node:node.exe
 0001:00017341       __imp_load_?PrototypeTemplate@FunctionTemplate@v8@@QEAA?AV?$Local@VObjectTemplate@v8@@@2@XZ 0000000180018341 f   node:node.exe
 0001:0001734d       __imp_load_?InstanceTemplate@FunctionTemplate@v8@@QEAA?AV?$Local@VObjectTemplate@v8@@@2@XZ 000000018001834d f   node:node.exe
 0001:00017359       __imp_load_?GetFunction@FunctionTemplate@v8@@QEAA?AV?$Local@VFunction@v8@@@2@XZ 0000000180018359 f   node:node.exe
 0001:00017365       __imp_load_?New@FunctionTemplate@v8@@SA?AV?$Local@VFunctionTemplate@v8@@@2@PEAVIsolate@2@P6AXAEBV?$FunctionCallbackInfo@VValue@v8@@@2@@ZV?$Local@VValue@v8@@@2@V?$Local@VSignature@v8@@@2@HW4ConstructorBehavior@2@W4SideEffectType@2@@Z 0000000180018365 f   node:node.exe
 0001:00017371       __imp_load_?ToLocalEmpty@V8@v8@@CAXXZ 0000000180018371 f   node:node.exe
 0001:0001737d       __imp_load_?ClearWeak@V8@v8@@CAPEAXPEAPEAVObject@internal@2@@Z 000000018001837d f   node:node.exe
 0001:00017389       __imp_load_?MakeWeak@V8@v8@@CAXPEAPEAVObject@internal@2@PEAXP6AXAEBV?$WeakCallbackInfo@X@2@@ZW4WeakCallbackType@2@@Z 0000000180018389 f   node:node.exe
 0001:00017395       __imp_load_?DisposeGlobal@V8@v8@@CAXPEAPEAVObject@internal@2@@Z 0000000180018395 f   node:node.exe
 0001:000173a1       __imp_load_?GlobalizeReference@V8@v8@@CAPEAPEAVObject@internal@2@PEAVIsolate@42@PEAPEAV342@@Z 00000001800183a1 f   node:node.exe
 0001:000173ad       __imp_load_?Int32Value@Value@v8@@QEBAHXZ 00000001800183ad f   node:node.exe
 0001:000173b9       __imp_load_?BooleanValue@Value@v8@@QEBA_NXZ 00000001800183b9 f   node:node.exe
 0001:000173c5       __imp_load_??1Utf8Value@String@v8@@QEAA@XZ 00000001800183c5 f   node:node.exe
 0001:000173d1       __imp_load_??0Utf8Value@String@v8@@QEAA@PEAVIsolate@2@V?$Local@VValue@v8@@@2@@Z 00000001800183d1 f   node:node.exe
 0001:000173dd       __imp_load_?NewFromUtf8@String@v8@@SA?AV?$Local@VString@v8@@@2@PEAVIsolate@2@PEBDW4NewStringType@12@H@Z 00000001800183dd f   node:node.exe
 0001:000173e9       __imp_load_?NewFromUtf8@String@v8@@SA?AV?$MaybeLocal@VString@v8@@@2@PEAVIsolate@2@PEBDW4NewStringType@2@H@Z 00000001800183e9 f   node:node.exe
 0001:000173f5       __imp_load_?SlowGetAlignedPointerFromInternalField@Object@v8@@AEAAPEAXH@Z 00000001800183f5 f   node:node.exe
 0001:00017401       __imp_load_?New@Object@v8@@SA?AV?$Local@VObject@v8@@@2@PEAVIsolate@2@@Z 0000000180018401 f   node:node.exe
 0001:0001740d       __imp_load_?GetIsolate@Object@v8@@QEAAPEAVIsolate@2@XZ 000000018001840d f   node:node.exe
 0001:00017419       __imp_load_?SetAlignedPointerInInternalField@Object@v8@@QEAAXHPEAX@Z 0000000180018419 f   node:node.exe
 0001:00017425       __imp_load_?InternalFieldCount@Object@v8@@QEAAHXZ 0000000180018425 f   node:node.exe
 0001:00017431       __imp_load_?Set@Object@v8@@QEAA_NV?$Local@VValue@v8@@@2@0@Z 0000000180018431 f   node:node.exe
 0001:0001743d       __imp_load_?Set@Object@v8@@QEAA_NIV?$Local@VValue@v8@@@2@@Z 000000018001843d f   node:node.exe
 0001:00017449       __imp_load_?NewInstance@Function@v8@@QEBA?AV?$MaybeLocal@VObject@v8@@@2@V?$Local@VContext@v8@@@2@HQEAV?$Local@VValue@v8@@@2@@Z 0000000180018449 f   node:node.exe
 0001:00017455       __imp_load_?SetInternalFieldCount@ObjectTemplate@v8@@QEAAXH@Z 0000000180018455 f   node:node.exe
 0001:00017461       __imp_load_?New@Buffer@node@@YA?AV?$MaybeLocal@VObject@v8@@@v8@@PEAVIsolate@4@_K@Z 0000000180018461 f   node:node.exe
 0001:0001746d       __imp_load_?Data@Buffer@node@@YAPEADV?$Local@VValue@v8@@@v8@@@Z 000000018001846d f   node:node.exe
 0001:00017479       __imp_load_?Data@Buffer@node@@YAPEADV?$Local@VObject@v8@@@v8@@@Z 0000000180018479 f   node:node.exe
 0001:00017485       __imp_load_?Length@Buffer@node@@YA_KV?$Local@VValue@v8@@@v8@@@Z 0000000180018485 f   node:node.exe
 0001:00017491       __imp_load_?ToString@Value@v8@@QEBA?AV?$Local@VString@v8@@@2@XZ 0000000180018491 f   node:node.exe
 0001:000174a0       ??0_Init_locks@std@@QEAA@XZ 00000001800184a0 f   libcpmt:xlock.obj
 0001:000174ec       ??0_Lockit@std@@QEAA@H@Z   00000001800184ec f   libcpmt:xlock.obj
 0001:00017528       ??1_Init_locks@std@@QEAA@XZ 0000000180018528 f   libcpmt:xlock.obj
 0001:0001756c       ??1_Lockit@std@@QEAA@XZ    000000018001856c f   libcpmt:xlock.obj
 0001:000175a0       ??0exception@std@@QEAA@AEBV01@@Z 00000001800185a0 f i libcpmt:xonce.obj
 0001:000175d8       ??_Elength_error@std@@UEAAPEAXI@Z 00000001800185d8 f i libcpmt:xthrow.obj
 0001:000175d8       ??_Gbad_alloc@std@@UEAAPEAXI@Z 00000001800185d8 f i libcpmt:xthrow.obj
 0001:000175d8       ??_Gexception@std@@UEAAPEAXI@Z 00000001800185d8 f i libcpmt:xonce.obj
 0001:000175d8       ??_Gbad_exception@std@@UEAAPEAXI@Z 00000001800185d8 f i libvcruntime:frame.obj
 0001:000175d8       ??_Ebad_array_new_length@std@@UEAAPEAXI@Z 00000001800185d8 f i LIBCMT:throw_bad_alloc.obj
 0001:000175d8       ??_Glength_error@std@@UEAAPEAXI@Z 00000001800185d8 f i libcpmt:xthrow.obj
 0001:000175d8       ??_Gbad_array_new_length@std@@UEAAPEAXI@Z 00000001800185d8 f i LIBCMT:throw_bad_alloc.obj
 0001:000175d8       ??_Elogic_error@std@@UEAAPEAXI@Z 00000001800185d8 f i libcpmt:xthrow.obj
 0001:000175d8       ??_Eexception@std@@UEAAPEAXI@Z 00000001800185d8 f i libcpmt:xonce.obj
 0001:000175d8       ??_Ebad_exception@std@@UEAAPEAXI@Z 00000001800185d8 f i libvcruntime:frame.obj
 0001:000175d8       ??_Glogic_error@std@@UEAAPEAXI@Z 00000001800185d8 f i libcpmt:xthrow.obj
 0001:000175d8       ??_Ebad_alloc@std@@UEAAPEAXI@Z 00000001800185d8 f i libcpmt:xthrow.obj
 0001:0001761c       ?_Execute_once@std@@YAHAEAUonce_flag@1@P6AHPEAX1PEAPEAX@Z1@Z 000000018001861c f   libcpmt:xonce.obj
 0001:00017624       ?what@exception@std@@UEBAPEBDXZ 0000000180018624 f i libcpmt:xonce.obj
 0001:00017638       ??1_Fac_tidy_reg_t@std@@QEAA@XZ 0000000180018638 f i libcpmt:locale0.obj
 0001:000176a0       ??4?$_Yarn@D@std@@QEAAAEAV01@PEBD@Z 00000001800186a0 f i libcpmt:locale0.obj
 0001:00017718       ??_G_Locimp@locale@std@@MEAAPEAXI@Z 0000000180018718 f i libcpmt:locale0.obj
 0001:00017718       ??_E_Locimp@locale@std@@MEAAPEAXI@Z 0000000180018718 f i libcpmt:locale0.obj
 0001:00017784       ?_Facet_Register@std@@YAXPEAV_Facet_base@1@@Z 0000000180018784 f   libcpmt:locale0.obj
 0001:000177bc       ?_Getgloballocale@locale@std@@CAPEAV_Locimp@12@XZ 00000001800187bc f   libcpmt:locale0.obj
 0001:000177c4       ?_Init@locale@std@@CAPEAV_Locimp@12@_N@Z 00000001800187c4 f   libcpmt:locale0.obj
 0001:00017870       ?_Locimp_dtor@_Locimp@locale@std@@CAXPEAV123@@Z 0000000180018870 f   libcpmt:locale0.obj
 0001:000178f8       ?_Locinfo_ctor@_Locinfo@std@@SAXPEAV12@PEBD@Z 00000001800188f8 f   libcpmt:locale0.obj
 0001:00017964       ?_Locinfo_dtor@_Locinfo@std@@SAXPEAV12@@Z 0000000180018964 f   libcpmt:locale0.obj
 0001:00017980       ?_New_Locimp@_Locimp@locale@std@@CAPEAV123@_N@Z 0000000180018980 f   libcpmt:locale0.obj
 0001:000179f0       ?_Setgloballocale@locale@std@@CAXPEAX@Z 00000001800189f0 f   libcpmt:locale0.obj
 0001:00017a24       _Deletegloballocale        0000000180018a24 f   libcpmt:locale0.obj
 0001:00017a94       ??0bad_alloc@std@@QEAA@AEBV01@@Z 0000000180018a94 f i libcpmt:xthrow.obj
 0001:00017ad4       ??0bad_alloc@std@@QEAA@XZ  0000000180018ad4 f i libcpmt:xthrow.obj
 0001:00017af4       ??0length_error@std@@QEAA@AEBV01@@Z 0000000180018af4 f i libcpmt:xthrow.obj
 0001:00017b34       ??0length_error@std@@QEAA@PEBD@Z 0000000180018b34 f i libcpmt:xthrow.obj
 0001:00017b80       ??0logic_error@std@@QEAA@AEBV01@@Z 0000000180018b80 f i libcpmt:xthrow.obj
 0001:00017bc0       ??1length_error@std@@UEAA@XZ 0000000180018bc0 f i libcpmt:xthrow.obj
 0001:00017bc0       ??1bad_array_new_length@std@@UEAA@XZ 0000000180018bc0 f i LIBCMT:throw_bad_alloc.obj
 0001:00017bc0       ??1bad_alloc@std@@UEAA@XZ  0000000180018bc0 f i libcpmt:xthrow.obj
 0001:00017bc0       ??1bad_exception@std@@UEAA@XZ 0000000180018bc0 f i libvcruntime:frame.obj
 0001:00017bd4       ?_Xlength_error@std@@YAXPEBD@Z 0000000180018bd4 f   libcpmt:xthrow.obj
 0001:00017bf8       ?_Addstd@ios_base@std@@SAXPEAV12@@Z 0000000180018bf8 f   libcpmt:ios.obj
 0001:00017c70       ?_Ios_base_dtor@ios_base@std@@CAXPEAV12@@Z 0000000180018c70 f   libcpmt:ios.obj
 0001:00017cf0       ?_Tidy@ios_base@std@@AEAAXXZ 0000000180018cf0 f i libcpmt:ios.obj
 0001:00017d70       ??$_Xfiopen@D@std@@YAPEAU_iobuf@@PEBDHH@Z 0000000180018d70 f i libcpmt:fiopen.obj
 0001:00017e78       ?_Fiopen@std@@YAPEAU_iobuf@@PEBDHH@Z 0000000180018e78 f   libcpmt:fiopen.obj
 0001:00017e80       ?_Syserror_map@std@@YAPEBDH@Z 0000000180018e80 f   libcpmt:syserror.obj
 0001:00017ea8       _Getctype                  0000000180018ea8 f   libcpmt:_tolower.obj
 0001:00017f70       _Tolower                   0000000180018f70 f   libcpmt:_tolower.obj
 0001:000180a0       _Toupper                   00000001800190a0 f   libcpmt:_toupper.obj
 0001:000181e0       ??0_Init_cout@std@@QEAA@XZ 00000001800191e0 f i libcpmt:cout.obj
 0001:0001824c       _Mtxdst                    000000018001924c f   libcpmt:xmtx.obj
 0001:00018254       _Mtxinit                   0000000180019254 f   libcpmt:xmtx.obj
 0001:00018264       _Mtxlock                   0000000180019264 f   libcpmt:xmtx.obj
 0001:0001826c       _Mtxunlock                 000000018001926c f   libcpmt:xmtx.obj
 0001:00018744       __crtInitOnceExecuteOnce   0000000180019744 f   libcpmt:winapisupp.obj
 0001:00018810       __crtInitializeCriticalSectionEx 0000000180019810 f   libcpmt:winapisupp.obj
 0001:00018840       ?_Atexit@@YAXP6AXXZ@Z      0000000180019840 f   libcpmt:iosptrs.obj
 0001:00018880       __crtLCMapStringA          0000000180019880 f   libcpmt:StlLCMapStringA.obj
 0001:00018b34       GetTableIndexFromLocaleName 0000000180019b34 f   libcpmt:winapinls.obj
 0001:00018bc4       __crtDownlevelLocaleNameToLCID 0000000180019bc4 f   libcpmt:winapinls.obj
 0001:00018bf8       __crtLCMapStringEx         0000000180019bf8 f   libcpmt:winapinls.obj
 0001:00018c94       __wcsnicmp_ascii           0000000180019c94 f   libcpmt:winapinls.obj
 0001:00018d10       __security_check_cookie    0000000180019d10 f   LIBCMT:amdsecgs.obj
 0001:00018d34       ??3@YAXPEAX_K@Z            0000000180019d34 f   LIBCMT:delete_scalar_size.obj
 0001:00018d34       ??_V@YAXPEAX@Z             0000000180019d34 f   LIBCMT:delete_array.obj
 0001:00018d3c       ??2@YAPEAX_K@Z             0000000180019d3c f   LIBCMT:new_scalar.obj
 0001:00018d78       __scrt_acquire_startup_lock 0000000180019d78 f   LIBCMT:utility.obj
 0001:00018db4       __scrt_dllmain_after_initialize_c 0000000180019db4 f   LIBCMT:utility.obj
 0001:00018de8       __scrt_dllmain_before_initialize_c 0000000180019de8 f   LIBCMT:utility.obj
 0001:00018e00       __scrt_dllmain_crt_thread_attach 0000000180019e00 f   LIBCMT:utility.obj
 0001:00018e28       __scrt_dllmain_crt_thread_detach 0000000180019e28 f   LIBCMT:utility.obj
 0001:00018e40       __scrt_dllmain_exception_filter 0000000180019e40 f   LIBCMT:utility.obj
 0001:00018ea0       __scrt_dllmain_uninitialize_c 0000000180019ea0 f   LIBCMT:utility.obj
 0001:00018ed0       __scrt_dllmain_uninitialize_critical 0000000180019ed0 f   LIBCMT:utility.obj
 0001:00018ee4       __scrt_initialize_crt      0000000180019ee4 f   LIBCMT:utility.obj
 0001:00018f30       __scrt_initialize_onexit_tables 0000000180019f30 f   LIBCMT:utility.obj
 0001:00019008       __scrt_is_nonwritable_in_current_image 000000018001a008 f   LIBCMT:utility.obj
 0001:000190a4       __scrt_release_startup_lock 000000018001a0a4 f   LIBCMT:utility.obj
 0001:000190c8       __scrt_uninitialize_crt    000000018001a0c8 f   LIBCMT:utility.obj
 0001:000190f4       _onexit                    000000018001a0f4 f   LIBCMT:utility.obj
 0001:00019144       atexit                     000000018001a144 f   LIBCMT:utility.obj
 0001:0001915c       ??_U@YAPEAX_K@Z            000000018001a15c f   LIBCMT:new_array.obj
 0001:00019164       ??_V@YAXPEAX_K@Z           000000018001a164 f   LIBCMT:delete_array_size.obj
 0001:0001916c       __raise_securityfailure    000000018001a16c f   LIBCMT:gs_report.obj
 0001:000191a0       __report_gsfailure         000000018001a1a0 f   LIBCMT:gs_report.obj
 0001:00019274       __report_rangecheckfailure 000000018001a274 f   LIBCMT:gs_report.obj
 0001:00019288       __report_securityfailure   000000018001a288 f   LIBCMT:gs_report.obj
 0001:00019738       _DllMainCRTStartup         000000018001a738 f   LIBCMT:dll_dllmain.obj
 0001:00019778       __GSHandlerCheck           000000018001a778 f   LIBCMT:gshandler.obj
 0001:00019798       __GSHandlerCheckCommon     000000018001a798 f   LIBCMT:gshandler.obj
 0001:000197f4       __GSHandlerCheck_EH        000000018001a7f4 f   LIBCMT:gshandlereh.obj
 0001:00019874       ??_Gtype_info@@UEAAPEAXI@Z 000000018001a874 f i LIBCMT:std_type_info_static.obj
 0001:00019874       ??_Etype_info@@UEAAPEAXI@Z 000000018001a874 f i LIBCMT:std_type_info_static.obj
 0001:000198b0       __chkstk                   000000018001a8b0 f   LIBCMT:chkstk.obj
 0001:000198b0       _alloca_probe              000000018001a8b0 f   LIBCMT:chkstk.obj
 0001:00019904       ??3@YAXPEAX@Z              000000018001a904 f   LIBCMT:delete_scalar.obj
 0001:0001990c       ??0bad_array_new_length@std@@QEAA@AEBV01@@Z 000000018001a90c f i LIBCMT:throw_bad_alloc.obj
 0001:0001994c       ??0bad_array_new_length@std@@QEAA@XZ 000000018001a94c f i LIBCMT:throw_bad_alloc.obj
 0001:0001996c       ?__scrt_throw_std_bad_alloc@@YAXXZ 000000018001a96c f   LIBCMT:throw_bad_alloc.obj
 0001:0001998c       ?__scrt_throw_std_bad_array_new_length@@YAXXZ 000000018001a98c f   LIBCMT:throw_bad_alloc.obj
 0001:000199ac       __isa_available_init       000000018001a9ac f   LIBCMT:cpu_disp.obj
 0001:00019b28       __scrt_is_ucrt_dll_in_use  000000018001ab28 f   LIBCMT:ucrt_detection.obj
 0001:00019b34       __crt_debugger_hook        000000018001ab34 f   LIBCMT:utility_desktop.obj
 0001:00019b3c       __scrt_fastfail            000000018001ab3c f   LIBCMT:utility_desktop.obj
 0001:00019c88       __security_init_cookie     000000018001ac88 f   LIBCMT:gs_support.obj
 0001:00019d34       ?__scrt_initialize_type_info@@YAXXZ 000000018001ad34 f   LIBCMT:tncleanup.obj
 0001:00019d44       ?__scrt_uninitialize_type_info@@YAXXZ 000000018001ad44 f   LIBCMT:tncleanup.obj
 0001:00019d50       __scrt_initialize_default_local_stdio_options 000000018001ad50 f   LIBCMT:default_local_stdio_options.obj
 0001:00019d6c       __scrt_get_dyn_tls_init_callback 000000018001ad6c f   LIBCMT:dyn_tls_init.obj
 0001:00019d74       _RTC_Initialize            000000018001ad74 f   LIBCMT:initsect.obj
 0001:00019db0       _RTC_Terminate             000000018001adb0 f   LIBCMT:initsect.obj
 0001:00019df0       _purecall                  000000018001adf0 f   libvcruntime:purevirt.obj
 0001:00019e20       strstr                     000000018001ae20 f   libvcruntime:strstr.obj
 0001:0001a020       __std_exception_copy       000000018001b020 f   libvcruntime:std_exception.obj
 0001:0001a0b0       __std_exception_destroy    000000018001b0b0 f   libvcruntime:std_exception.obj
 0001:0001a0d8       _CxxThrowException         000000018001b0d8 f   libvcruntime:throw.obj
 0001:0001a198       ??$_CallSETranslator@V__FrameHandler3@@@@YAHPEAUEHExceptionRecord@@PEA_KPEAU_CONTEXT@@PEAU_xDISPATCHER_CONTEXT@@PEBU_s_FuncInfo@@K1@Z 000000018001b198 f i libvcruntime:risctrnsctrl.obj
 0001:0001a1ec       ?CatchTryBlock@__FrameHandler3@@SAPEBU_s_TryBlockMapEntry@@PEBU_s_FuncInfo@@H@Z 000000018001b1ec f   libvcruntime:risctrnsctrl.obj
 0001:0001a244       ?ExecutionInCatch@__FrameHandler3@@SA_NPEAU_xDISPATCHER_CONTEXT@@PEBU_s_FuncInfo@@@Z 000000018001b244 f   libvcruntime:risctrnsctrl.obj
 0001:0001a270       ?FrameUnwindToEmptyState@__FrameHandler3@@SAXPEA_KPEAU_xDISPATCHER_CONTEXT@@PEBU_s_FuncInfo@@@Z 000000018001b270 f   libvcruntime:risctrnsctrl.obj
 0001:0001a2d4       ?GetEstablisherFrame@__FrameHandler3@@SAPEA_KPEA_KPEAU_xDISPATCHER_CONTEXT@@PEBU_s_FuncInfo@@0@Z 000000018001b2d4 f   libvcruntime:risctrnsctrl.obj
 0001:0001a3a0       ?GetRangeOfTrysToCheck@__FrameHandler3@@SA?AU?$pair@Viterator@TryBlockMap@__FrameHandler3@@V123@@std@@AEAVTryBlockMap@1@HH@Z 000000018001b3a0 f   libvcruntime:risctrnsctrl.obj
 0001:0001a4fc       ?UnwindNestedFrames@__FrameHandler3@@SAXPEA_KPEAUEHExceptionRecord@@PEAU_CONTEXT@@0PEAXPEBU_s_FuncInfo@@HHPEBU_s_HandlerType@@PEAU_xDISPATCHER_CONTEXT@@E@Z 000000018001b4fc f   libvcruntime:risctrnsctrl.obj
 0001:0001a620       _CreateFrameInfo           000000018001b620 f   libvcruntime:risctrnsctrl.obj
 0001:0001a65c       _FindAndUnlinkFrame        000000018001b65c f   libvcruntime:risctrnsctrl.obj
 0001:0001a6b0       _GetImageBase              000000018001b6b0 f   libvcruntime:risctrnsctrl.obj
 0001:0001a6c4       _GetThrowImageBase         000000018001b6c4 f   libvcruntime:risctrnsctrl.obj
 0001:0001a6d8       _SetImageBase              000000018001b6d8 f   libvcruntime:risctrnsctrl.obj
 0001:0001a6f0       _SetThrowImageBase         000000018001b6f0 f   libvcruntime:risctrnsctrl.obj
 0001:0001a708       __CxxFrameHandler3         000000018001b708 f   libvcruntime:risctrnsctrl.obj
 0001:0001a7a0       memcpy_repmovs             000000018001b7a0 f   libvcruntime:memcpy.obj
 0001:0001a7c0       memmove                    000000018001b7c0 f   libvcruntime:memcpy.obj
 0001:0001a7c0       memcpy                     000000018001b7c0 f   libvcruntime:memcpy.obj
 0001:0001ac00       memset_repmovs             000000018001bc00 f   libvcruntime:memset.obj
 0001:0001ac20       memset                     000000018001bc20 f   libvcruntime:memset.obj
 0001:0001adb0       __DestructExceptionObject  000000018001bdb0 f   libvcruntime:ehhelpers.obj
 0001:0001ae24       ?_CallMemberFunction0@@YAXQEAX0@Z 000000018001be24 f i libvcruntime:ehhelpers.obj
 0001:0001ae28       _IsExceptionObjectToBeDestroyed 000000018001be28 f   libvcruntime:ehhelpers.obj
 0001:0001ae58       __AdjustPointer            000000018001be58 f   libvcruntime:ehhelpers.obj
 0001:0001ae7c       __FrameUnwindFilter        000000018001be7c f   libvcruntime:ehhelpers.obj
 0001:0001aec8       __std_terminate            000000018001bec8 f   libvcruntime:ehhelpers.obj
 0001:0001aef0       memchr                     000000018001bef0 f   libvcruntime:memchr.obj
 0001:0001af70       memcmp                     000000018001bf70 f   libvcruntime:memcmp.obj
 0001:0001b038       __vcrt_initialize          000000018001c038 f   libvcruntime:initialization.obj
 0001:0001b06c       __vcrt_thread_attach       000000018001c06c f   libvcruntime:initialization.obj
 0001:0001b080       __vcrt_thread_detach       000000018001c080 f   libvcruntime:initialization.obj
 0001:0001b094       __vcrt_uninitialize        000000018001c094 f   libvcruntime:initialization.obj
 0001:0001b0b4       __vcrt_uninitialize_critical 000000018001c0b4 f   libvcruntime:initialization.obj
 0001:0001b0c4       __C_specific_handler       000000018001c0c4 f   libvcruntime:riscchandler.obj
 0001:0001b2d0       __std_type_info_compare    000000018001c2d0 f   libvcruntime:std_type_info.obj
 0001:0001b2f8       __std_type_info_destroy_list 000000018001c2f8 f   libvcruntime:std_type_info.obj
 0001:0001b324       __vcrt_initialize_pure_virtual_call_handler 000000018001c324 f   libvcruntime:purevirt_data.obj
 0001:0001b334       __vcrt_freefls             000000018001c334 f   libvcruntime:per_thread_data.obj
 0001:0001b354       __vcrt_freeptd             000000018001c354 f   libvcruntime:per_thread_data.obj
 0001:0001b3a4       __vcrt_getptd              000000018001c3a4 f   libvcruntime:per_thread_data.obj
 0001:0001b3c0       __vcrt_getptd_noexit       000000018001c3c0 f   libvcruntime:per_thread_data.obj
 0001:0001b48c       __vcrt_initialize_ptd      000000018001c48c f   libvcruntime:per_thread_data.obj
 0001:0001b4e0       __vcrt_uninitialize_ptd    000000018001c4e0 f   libvcruntime:per_thread_data.obj
 0001:0001b504       ?GetCurrentState@__FrameHandler3@@SAHPEA_KPEAU_xDISPATCHER_CONTEXT@@PEBU_s_FuncInfo@@@Z 000000018001c504 f   libvcruntime:ehstate.obj
 0001:0001b52c       ?GetUnwindTryBlock@__FrameHandler3@@SAHPEA_KPEAU_xDISPATCHER_CONTEXT@@PEBU_s_FuncInfo@@@Z 000000018001c52c f   libvcruntime:ehstate.obj
 0001:0001b558       ?SetState@__FrameHandler3@@SAXPEA_KPEBU_s_FuncInfo@@H@Z 000000018001c558 f   libvcruntime:ehstate.obj
 0001:0001b564       ?SetUnwindTryBlock@__FrameHandler3@@SAXPEA_KPEAU_xDISPATCHER_CONTEXT@@PEBU_s_FuncInfo@@H@Z 000000018001c564 f   libvcruntime:ehstate.obj
 0001:0001b5a0       ?StateFromControlPc@__FrameHandler3@@SAHPEBU_s_FuncInfo@@PEAU_xDISPATCHER_CONTEXT@@@Z 000000018001c5a0 f   libvcruntime:ehstate.obj
 0001:0001b5a8       ?StateFromIp@__FrameHandler3@@SAHPEBU_s_FuncInfo@@PEAU_xDISPATCHER_CONTEXT@@_K@Z 000000018001c5a8 f   libvcruntime:ehstate.obj
 0001:0001c034       ??$TypeMatchHelper@V__FrameHandler3@@@@YAHPEBU_s_HandlerType@@PEBU_s_CatchableType@@PEBU_s_ThrowInfo@@@Z 000000018001d034 f i libvcruntime:frame.obj
 0001:0001c178       ??$__InternalCxxFrameHandler@V__FrameHandler3@@@@YA?AW4_EXCEPTION_DISPOSITION@@PEAUEHExceptionRecord@@PEA_KPEAU_CONTEXT@@PEAU_xDISPATCHER_CONTEXT@@PEBU_s_FuncInfo@@H1E@Z 000000018001d178 f i libvcruntime:frame.obj
 0001:0001c3c0       ??0bad_exception@std@@QEAA@AEBV01@@Z 000000018001d3c0 f i libvcruntime:frame.obj
 0001:0001c400       ??0bad_exception@std@@QEAA@XZ 000000018001d400 f i libvcruntime:frame.obj
 0001:0001c420       ?CxxCallCatchBlock@__FrameHandler3@@SAPEAXPEAU_EXCEPTION_RECORD@@@Z 000000018001d420 f   libvcruntime:frame.obj
 0001:0001c694       ?FrameUnwindToState@__FrameHandler3@@SAXPEA_KPEAU_xDISPATCHER_CONTEXT@@PEBU_s_FuncInfo@@H@Z 000000018001d694 f   libvcruntime:frame.obj
 0001:0001c828       ?GetHandlerSearchState@__FrameHandler3@@SAHPEA_KPEAU_xDISPATCHER_CONTEXT@@PEBU_s_FuncInfo@@@Z 000000018001d828 f i libvcruntime:frame.obj
 0001:0001ca2c       ?_CallMemberFunction1@@YAXQEAX00@Z 000000018001da2c f i libvcruntime:frame.obj
 0001:0001ca38       ?_CallMemberFunction2@@YAXQEAX00H@Z 000000018001da38 f i libvcruntime:frame.obj
 0001:0001ca48       __vcrt_initialize_locks    000000018001da48 f   libvcruntime:locks.obj
 0001:0001ca90       __vcrt_uninitialize_locks  000000018001da90 f   libvcruntime:locks.obj
 0001:0001cca0       __vcrt_FlsAlloc            000000018001dca0 f   libvcruntime:winapi_downlevel.obj
 0001:0001cce8       __vcrt_FlsFree             000000018001dce8 f   libvcruntime:winapi_downlevel.obj
 0001:0001cd30       __vcrt_FlsGetValue         000000018001dd30 f   libvcruntime:winapi_downlevel.obj
 0001:0001cd78       __vcrt_FlsSetValue         000000018001dd78 f   libvcruntime:winapi_downlevel.obj
 0001:0001cdcc       __vcrt_InitializeCriticalSectionEx 000000018001ddcc f   libvcruntime:winapi_downlevel.obj
 0001:0001ce30       __vcrt_initialize_winapi_thunks 000000018001de30 f   libvcruntime:winapi_downlevel.obj
 0001:0001ce60       __vcrt_uninitialize_winapi_thunks 000000018001de60 f   libvcruntime:winapi_downlevel.obj
 0001:0001ceb0       _NLG_Notify                000000018001deb0 f   libvcruntime:notify.obj
 0001:0001ced0       __NLG_Dispatch2            000000018001ded0 f   libvcruntime:notify.obj
 0001:0001cee0       __NLG_Return2              000000018001dee0 f   libvcruntime:notify.obj
 0001:0001cee4       __except_validate_context_record 000000018001dee4 f   libvcruntime:jbcxrval.obj
 0001:0001cf30       _CallSettingFrame          000000018001df30 f   libvcruntime:handlers.obj
 0001:0001cf80       _CallSettingFrameEncoded   000000018001df80 f   libvcruntime:handlers.obj
 0001:0001cfc8       abort                      000000018001dfc8 f   libucrt:abort.obj
 0001:0001d020       _fputc_nolock              000000018001e020 f   libucrt:fputc.obj
 0001:0001d038       fputc                      000000018001e038 f   libucrt:fputc.obj
 0001:0001d15c       __acrt_call_reportfault    000000018001e15c f   libucrt:invalid_parameter.obj
 0001:0001d2b8       __acrt_initialize_invalid_parameter_handler 000000018001e2b8 f   libucrt:invalid_parameter.obj
 0001:0001d2c0       _invalid_parameter         000000018001e2c0 f   libucrt:invalid_parameter.obj
 0001:0001d370       _invalid_parameter_noinfo  000000018001e370 f   libucrt:invalid_parameter.obj
 0001:0001d390       _invalid_parameter_noinfo_noreturn 000000018001e390 f   libucrt:invalid_parameter.obj
 0001:0001d3c0       _invoke_watson             000000018001e3c0 f   libucrt:invalid_parameter.obj
 0001:0001d624       __acrt_stdio_flush_nolock  000000018001e624 f   libucrt:fflush.obj
 0001:0001d6a0       _fflush_nolock             000000018001e6a0 f   libucrt:fflush.obj
 0001:0001d6ec       _flushall                  000000018001e6ec f   libucrt:fflush.obj
 0001:0001d6f4       fflush                     000000018001e6f4 f   libucrt:fflush.obj
 0001:0001d75c       _fclose_nolock             000000018001e75c f   libucrt:fclose.obj
 0001:0001d7e0       fclose                     000000018001e7e0 f   libucrt:fclose.obj
 0001:0001d844       _fgetc_nolock              000000018001e844 f   libucrt:fgetc.obj
 0001:0001d888       fgetc                      000000018001e888 f   libucrt:fgetc.obj
 0001:0001d990       __acrt_initialize_stdio    000000018001e990 f   libucrt:_file.obj
 0001:0001dab0       __acrt_iob_func            000000018001eab0 f   libucrt:_file.obj
 0001:0001dac4       __acrt_uninitialize_stdio  000000018001eac4 f   libucrt:_file.obj
 0001:0001db20       _get_stream_buffer_pointers 000000018001eb20 f   libucrt:_file.obj
 0001:0001db68       _lock_file                 000000018001eb68 f   libucrt:_file.obj
 0001:0001db74       _unlock_file               000000018001eb74 f   libucrt:_file.obj
 0001:0001dc24       _fwrite_nolock             000000018001ec24 f   libucrt:fwrite.obj
 0001:0001ddd0       fwrite                     000000018001edd0 f   libucrt:fwrite.obj
 0001:0001de54       fgetpos                    000000018001ee54 f   libucrt:fgetpos.obj
 0001:0001dfc0       setvbuf                    000000018001efc0 f   libucrt:setvbuf.obj
 0001:0001e05c       free                       000000018001f05c f   libucrt:free.obj
 0001:0001e070       _ungetc_nolock             000000018001f070 f   libucrt:ungetc.obj
 0001:0001e198       ungetc                     000000018001f198 f   libucrt:ungetc.obj
 0001:0001e1f0       fsetpos                    000000018001f1f0 f   libucrt:fsetpos.obj
 0001:0001e228       _fread_nolock_s            000000018001f228 f   libucrt:fread.obj
 0001:0001e4b8       fread                      000000018001f4b8 f   libucrt:fread.obj
 0001:0001e4d8       fread_s                    000000018001f4d8 f   libucrt:fread.obj
 0001:0001e788       _fseeki64                  000000018001f788 f   libucrt:fseek.obj
 0001:0001e790       fseek                      000000018001f790 f   libucrt:fseek.obj
 0001:0001eeb0       ??$ftprintf@PEAU_iobuf@@PEB_WAEBQEB_WAEBQEB_WAEBI@?$__crt_char_traits@_W@@SAH$$QEAPEAU_iobuf@@$$QEAPEB_WAEBQEB_W2AEBI@Z 000000018001feb0 f i libucrt:assert.obj
 0001:0001eed8       _wassert                   000000018001fed8 f   libucrt:assert.obj
 0001:0001ef4c       fwprintf                   000000018001ff4c f i libucrt:assert.obj
 0001:0001ef90       swprintf                   000000018001ff90 f i libucrt:assert.obj
 0001:0001f000       strncmp                    0000000180020000 f   libucrt:strncmp.obj
 0001:0001f460       ??$ensure_buffer_is_big_enough@D@formatting_buffer@__crt_stdio_output@@QEAA_N_K@Z 0000000180020460 f i libucrt:output.obj
 0001:0001f508       ??$ensure_buffer_is_big_enough@_W@formatting_buffer@__crt_stdio_output@@QEAA_N_K@Z 0000000180020508 f i libucrt:output.obj
 0001:0001f5b4       ??$is_wide_character_specifier@_W@__crt_stdio_output@@YA_N_K_WW4length_modifier@0@@Z 00000001800205b4 f i libucrt:output.obj
 0001:0001f5f4       ??$type_case_integer_parse_into_buffer@I@?$output_processor@DV?$string_output_adapter@D@__crt_stdio_output@@V?$standard_base@DV?$string_output_adapter@D@__crt_stdio_output@@@2@@__crt_stdio_output@@AEAAXII_N@Z 00000001800205f4 f i libucrt:output.obj
 0001:0001f684       ??$type_case_integer_parse_into_buffer@I@?$output_processor@_WV?$string_output_adapter@_W@__crt_stdio_output@@V?$standard_base@_WV?$string_output_adapter@_W@__crt_stdio_output@@@2@@__crt_stdio_output@@AEAAXII_N@Z 0000000180020684 f i libucrt:output.obj
 0001:0001f684       ??$type_case_integer_parse_into_buffer@I@?$output_processor@_WV?$stream_output_adapter@_W@__crt_stdio_output@@V?$standard_base@_WV?$stream_output_adapter@_W@__crt_stdio_output@@@2@@__crt_stdio_output@@AEAAXII_N@Z 0000000180020684 f i libucrt:output.obj
 0001:0001f728       ??$type_case_integer_parse_into_buffer@_K@?$output_processor@DV?$string_output_adapter@D@__crt_stdio_output@@V?$standard_base@DV?$string_output_adapter@D@__crt_stdio_output@@@2@@__crt_stdio_output@@AEAAX_KI_N@Z 0000000180020728 f i libucrt:output.obj
 0001:0001f7bc       ??$type_case_integer_parse_into_buffer@_K@?$output_processor@_WV?$stream_output_adapter@_W@__crt_stdio_output@@V?$standard_base@_WV?$stream_output_adapter@_W@__crt_stdio_output@@@2@@__crt_stdio_output@@AEAAX_KI_N@Z 00000001800207bc f i libucrt:output.obj
 0001:0001f7bc       ??$type_case_integer_parse_into_buffer@_K@?$output_processor@_WV?$string_output_adapter@_W@__crt_stdio_output@@V?$standard_base@_WV?$string_output_adapter@_W@__crt_stdio_output@@@2@@__crt_stdio_output@@AEAAX_KI_N@Z 00000001800207bc f i libucrt:output.obj
 0001:0001f860       ??$write_multiple_characters@V?$stream_output_adapter@_W@__crt_stdio_output@@D@__crt_stdio_output@@YAXAEBV?$stream_output_adapter@_W@0@DHQEAH@Z 0000000180020860 f i libucrt:output.obj
 0001:0001f8f4       ??$write_multiple_characters@V?$string_output_adapter@D@__crt_stdio_output@@D@__crt_stdio_output@@YAXAEBV?$string_output_adapter@D@0@DHQEAH@Z 00000001800208f4 f i libucrt:output.obj
 0001:0001f96c       ??$write_multiple_characters@V?$string_output_adapter@_W@__crt_stdio_output@@D@__crt_stdio_output@@YAXAEBV?$string_output_adapter@_W@0@DHQEAH@Z 000000018002096c f i libucrt:output.obj
 0001:0001f9e8       ??0_LocaleUpdate@@QEAA@QEAU__crt_locale_pointers@@@Z 00000001800209e8 f i libucrt:output.obj
 0001:0001fa84       ??1_LocaleUpdate@@QEAA@XZ  0000000180020a84 f i libucrt:output.obj
 0001:0001fbcc       ?crop_zeroes@__crt_stdio_output@@YAXPEADQEAU__crt_locale_pointers@@@Z 0000000180020bcc f i libucrt:output.obj
 0001:0001fc38       ?force_decimal_point@__crt_stdio_output@@YAXPEADQEAU__crt_locale_pointers@@@Z 0000000180020c38 f i libucrt:output.obj
 0001:0001fca8       ?parse_int_from_format_string@?$output_processor@DV?$string_output_adapter@D@__crt_stdio_output@@V?$standard_base@DV?$string_output_adapter@D@__crt_stdio_output@@@2@@__crt_stdio_output@@AEAA_NQEAH@Z 0000000180020ca8 f i libucrt:output.obj
 0001:0001fd4c       ?parse_int_from_format_string@?$output_processor@_WV?$string_output_adapter@_W@__crt_stdio_output@@V?$standard_base@_WV?$string_output_adapter@_W@__crt_stdio_output@@@2@@__crt_stdio_output@@AEAA_NQEAH@Z 0000000180020d4c f i libucrt:output.obj
 0001:0001fd4c       ?parse_int_from_format_string@?$output_processor@_WV?$stream_output_adapter@_W@__crt_stdio_output@@V?$standard_base@_WV?$stream_output_adapter@_W@__crt_stdio_output@@@2@@__crt_stdio_output@@AEAA_NQEAH@Z 0000000180020d4c f i libucrt:output.obj
 0001:0001fdf0       ?process@?$output_processor@DV?$string_output_adapter@D@__crt_stdio_output@@V?$standard_base@DV?$string_output_adapter@D@__crt_stdio_output@@@2@@__crt_stdio_output@@QEAAHXZ 0000000180020df0 f i libucrt:output.obj
 0001:0001fffc       ?process@?$output_processor@_WV?$stream_output_adapter@_W@__crt_stdio_output@@V?$standard_base@_WV?$stream_output_adapter@_W@__crt_stdio_output@@@2@@__crt_stdio_output@@QEAAHXZ 0000000180020ffc f i libucrt:output.obj
 0001:00020268       ?process@?$output_processor@_WV?$string_output_adapter@_W@__crt_stdio_output@@V?$standard_base@_WV?$string_output_adapter@_W@__crt_stdio_output@@@2@@__crt_stdio_output@@QEAAHXZ 0000000180021268 f i libucrt:output.obj
 0001:000204e4       ?state_case_normal@?$output_processor@DV?$string_output_adapter@D@__crt_stdio_output@@V?$standard_base@DV?$string_output_adapter@D@__crt_stdio_output@@@2@@__crt_stdio_output@@AEAA_NXZ 00000001800214e4 f i libucrt:output.obj
 0001:00020558       ?state_case_normal_tchar@?$output_processor@DV?$string_output_adapter@D@__crt_stdio_output@@V?$standard_base@DV?$string_output_adapter@D@__crt_stdio_output@@@2@@__crt_stdio_output@@AEAA_ND@Z 0000000180021558 f i libucrt:output.obj
 0001:00020600       ?state_case_size@?$output_processor@DV?$string_output_adapter@D@__crt_stdio_output@@V?$standard_base@DV?$string_output_adapter@D@__crt_stdio_output@@@2@@__crt_stdio_output@@AEAA_NXZ 0000000180021600 f i libucrt:output.obj
 0001:00020774       ?state_case_size@?$output_processor@_WV?$stream_output_adapter@_W@__crt_stdio_output@@V?$standard_base@_WV?$stream_output_adapter@_W@__crt_stdio_output@@@2@@__crt_stdio_output@@AEAA_NXZ 0000000180021774 f i libucrt:output.obj
 0001:0002090c       ?state_case_size@?$output_processor@_WV?$string_output_adapter@_W@__crt_stdio_output@@V?$standard_base@_WV?$string_output_adapter@_W@__crt_stdio_output@@@2@@__crt_stdio_output@@AEAA_NXZ 000000018002190c f i libucrt:output.obj
 0001:00020aa4       ?state_case_type@?$output_processor@DV?$string_output_adapter@D@__crt_stdio_output@@V?$standard_base@DV?$string_output_adapter@D@__crt_stdio_output@@@2@@__crt_stdio_output@@AEAA_NXZ 0000000180021aa4 f i libucrt:output.obj
 0001:00020d0c       ?state_case_type@?$output_processor@_WV?$stream_output_adapter@_W@__crt_stdio_output@@V?$standard_base@_WV?$stream_output_adapter@_W@__crt_stdio_output@@@2@@__crt_stdio_output@@AEAA_NXZ 0000000180021d0c f i libucrt:output.obj
 0001:00020fec       ?state_case_type@?$output_processor@_WV?$string_output_adapter@_W@__crt_stdio_output@@V?$standard_base@_WV?$string_output_adapter@_W@__crt_stdio_output@@@2@@__crt_stdio_output@@AEAA_NXZ 0000000180021fec f i libucrt:output.obj
 0001:000212b8       ?type_case_Z@?$output_processor@DV?$string_output_adapter@D@__crt_stdio_output@@V?$standard_base@DV?$string_output_adapter@D@__crt_stdio_output@@@2@@__crt_stdio_output@@AEAA_NXZ 00000001800222b8 f i libucrt:output.obj
 0001:00021330       ?type_case_Z@?$output_processor@_WV?$string_output_adapter@_W@__crt_stdio_output@@V?$standard_base@_WV?$string_output_adapter@_W@__crt_stdio_output@@@2@@__crt_stdio_output@@AEAA_NXZ 0000000180022330 f i libucrt:output.obj
 0001:00021330       ?type_case_Z@?$output_processor@_WV?$stream_output_adapter@_W@__crt_stdio_output@@V?$standard_base@_WV?$stream_output_adapter@_W@__crt_stdio_output@@@2@@__crt_stdio_output@@AEAA_NXZ 0000000180022330 f i libucrt:output.obj
 0001:000213ac       ?type_case_a@?$output_processor@DV?$string_output_adapter@D@__crt_stdio_output@@V?$standard_base@DV?$string_output_adapter@D@__crt_stdio_output@@@2@@__crt_stdio_output@@AEAA_NXZ 00000001800223ac f i libucrt:output.obj
 0001:00021568       ?type_case_a@?$output_processor@_WV?$stream_output_adapter@_W@__crt_stdio_output@@V?$standard_base@_WV?$stream_output_adapter@_W@__crt_stdio_output@@@2@@__crt_stdio_output@@AEAA_NXZ 0000000180022568 f i libucrt:output.obj
 0001:00021568       ?type_case_a@?$output_processor@_WV?$string_output_adapter@_W@__crt_stdio_output@@V?$standard_base@_WV?$string_output_adapter@_W@__crt_stdio_output@@@2@@__crt_stdio_output@@AEAA_NXZ 0000000180022568 f i libucrt:output.obj
 0001:00021748       ?type_case_c_tchar@?$output_processor@DV?$string_output_adapter@D@__crt_stdio_output@@V?$standard_base@DV?$string_output_adapter@D@__crt_stdio_output@@@2@@__crt_stdio_output@@AEAA_ND@Z 0000000180022748 f i libucrt:output.obj
 0001:00021804       ?type_case_c_tchar@?$output_processor@_WV?$string_output_adapter@_W@__crt_stdio_output@@V?$standard_base@_WV?$string_output_adapter@_W@__crt_stdio_output@@@2@@__crt_stdio_output@@AEAA_N_W@Z 0000000180022804 f i libucrt:output.obj
 0001:00021804       ?type_case_c_tchar@?$output_processor@_WV?$stream_output_adapter@_W@__crt_stdio_output@@V?$standard_base@_WV?$stream_output_adapter@_W@__crt_stdio_output@@@2@@__crt_stdio_output@@AEAA_N_W@Z 0000000180022804 f i libucrt:output.obj
 0001:000218ac       ?type_case_integer@?$output_processor@DV?$string_output_adapter@D@__crt_stdio_output@@V?$standard_base@DV?$string_output_adapter@D@__crt_stdio_output@@@2@@__crt_stdio_output@@AEAA_NI_N@Z 00000001800228ac f i libucrt:output.obj
 0001:00021a74       ?type_case_integer@?$output_processor@_WV?$stream_output_adapter@_W@__crt_stdio_output@@V?$standard_base@_WV?$stream_output_adapter@_W@__crt_stdio_output@@@2@@__crt_stdio_output@@AEAA_NI_N@Z 0000000180022a74 f i libucrt:output.obj
 0001:00021a74       ?type_case_integer@?$output_processor@_WV?$string_output_adapter@_W@__crt_stdio_output@@V?$standard_base@_WV?$string_output_adapter@_W@__crt_stdio_output@@@2@@__crt_stdio_output@@AEAA_NI_N@Z 0000000180022a74 f i libucrt:output.obj
 0001:00021c40       ?type_case_n@?$output_processor@_WV?$string_output_adapter@_W@__crt_stdio_output@@V?$standard_base@_WV?$string_output_adapter@_W@__crt_stdio_output@@@2@@__crt_stdio_output@@AEAA_NXZ 0000000180022c40 f i libucrt:output.obj
 0001:00021c40       ?type_case_n@?$output_processor@DV?$string_output_adapter@D@__crt_stdio_output@@V?$standard_base@DV?$string_output_adapter@D@__crt_stdio_output@@@2@@__crt_stdio_output@@AEAA_NXZ 0000000180022c40 f i libucrt:output.obj
 0001:00021c40       ?type_case_n@?$output_processor@_WV?$stream_output_adapter@_W@__crt_stdio_output@@V?$standard_base@_WV?$stream_output_adapter@_W@__crt_stdio_output@@@2@@__crt_stdio_output@@AEAA_NXZ 0000000180022c40 f i libucrt:output.obj
 0001:00021d1c       ?type_case_s@?$output_processor@DV?$string_output_adapter@D@__crt_stdio_output@@V?$standard_base@DV?$string_output_adapter@D@__crt_stdio_output@@@2@@__crt_stdio_output@@AEAA_NXZ 0000000180022d1c f i libucrt:output.obj
 0001:00021db4       ?type_case_s@?$output_processor@_WV?$stream_output_adapter@_W@__crt_stdio_output@@V?$standard_base@_WV?$stream_output_adapter@_W@__crt_stdio_output@@@2@@__crt_stdio_output@@AEAA_NXZ 0000000180022db4 f i libucrt:output.obj
 0001:00021db4       ?type_case_s@?$output_processor@_WV?$string_output_adapter@_W@__crt_stdio_output@@V?$standard_base@_WV?$string_output_adapter@_W@__crt_stdio_output@@@2@@__crt_stdio_output@@AEAA_NXZ 0000000180022db4 f i libucrt:output.obj
 0001:00021e7c       ?write_stored_string_tchar@?$output_processor@DV?$string_output_adapter@D@__crt_stdio_output@@V?$standard_base@DV?$string_output_adapter@D@__crt_stdio_output@@@2@@__crt_stdio_output@@AEAA_ND@Z 0000000180022e7c f i libucrt:output.obj
 0001:00021f54       ?write_stored_string_tchar@?$output_processor@_WV?$stream_output_adapter@_W@__crt_stdio_output@@V?$standard_base@_WV?$stream_output_adapter@_W@__crt_stdio_output@@@2@@__crt_stdio_output@@AEAA_N_W@Z 0000000180022f54 f i libucrt:output.obj
 0001:0002205c       ?write_stored_string_tchar@?$output_processor@_WV?$string_output_adapter@_W@__crt_stdio_output@@V?$standard_base@_WV?$string_output_adapter@_W@__crt_stdio_output@@@2@@__crt_stdio_output@@AEAA_N_W@Z 000000018002305c f i libucrt:output.obj
 0001:00022148       ?write_string@?$string_output_adapter@D@__crt_stdio_output@@QEBAXQEBDHQEAHAEAV__crt_deferred_errno_cache@@@Z 0000000180023148 f i libucrt:output.obj
 0001:000221ec       ?write_string@?$string_output_adapter@_W@__crt_stdio_output@@QEBAXQEB_WHQEAHAEAV__crt_deferred_errno_cache@@@Z 00000001800231ec f i libucrt:output.obj
 0001:00022294       ?write_string_impl@?$output_adapter_common@_WV?$stream_output_adapter@_W@__crt_stdio_output@@@__crt_stdio_output@@IEBAXQEB_WHQEAHAEAV__crt_deferred_errno_cache@@@Z 0000000180023294 f i libucrt:output.obj
 0001:00022398       __stdio_common_vfwprintf   0000000180023398 f   libucrt:output.obj
 0001:00022424       __stdio_common_vsprintf    0000000180023424 f   libucrt:output.obj
 0001:0002242c       __stdio_common_vswprintf   000000018002342c f   libucrt:output.obj
 0001:00022434       ??$is_overflow_condition@_K@__crt_strtox@@YA_NI_K@Z 0000000180023434 f i libucrt:input.obj
 0001:00022464       ??$parse_floating_point@V?$input_adapter_character_source@V?$string_input_adapter@D@__crt_stdio_input@@@__crt_strtox@@M@__crt_strtox@@YA?AW4SLD_STATUS@@QEAU__crt_locale_pointers@@V?$input_adapter_character_source@V?$string_input_adapter@D@__crt_stdio_input@@@0@QEAM@Z 0000000180023464 f i libucrt:input.obj
 0001:0002250c       ??$parse_floating_point@V?$input_adapter_character_source@V?$string_input_adapter@D@__crt_stdio_input@@@__crt_strtox@@N@__crt_strtox@@YA?AW4SLD_STATUS@@QEAU__crt_locale_pointers@@V?$input_adapter_character_source@V?$string_input_adapter@D@__crt_stdio_input@@@0@QEAN@Z 000000018002350c f i libucrt:input.obj
 0001:000225b4       ??$parse_floating_point_from_source@V?$input_adapter_character_source@V?$string_input_adapter@D@__crt_stdio_input@@@__crt_strtox@@@__crt_strtox@@YA?AW4floating_point_parse_result@0@QEAU__crt_locale_pointers@@AEAV?$input_adapter_character_source@V?$string_input_adapter@D@__crt_stdio_input@@@0@AEAUfloating_point_string@0@@Z 00000001800235b4 f i libucrt:input.obj
 0001:00022e20       ??$parse_floating_point_possible_infinity@DV?$input_adapter_character_source@V?$string_input_adapter@D@__crt_stdio_input@@@__crt_strtox@@_K@__crt_strtox@@YA?AW4floating_point_parse_result@0@AEADAEAV?$input_adapter_character_source@V?$string_input_adapter@D@__crt_stdio_input@@@0@_K@Z 0000000180023e20 f i libucrt:input.obj
 0001:00023058       ??$parse_floating_point_possible_nan@DV?$input_adapter_character_source@V?$string_input_adapter@D@__crt_stdio_input@@@__crt_strtox@@_K@__crt_strtox@@YA?AW4floating_point_parse_result@0@AEADAEAV?$input_adapter_character_source@V?$string_input_adapter@D@__crt_stdio_input@@@0@_K@Z 0000000180024058 f i libucrt:input.obj
 0001:00023378       ??$parse_floating_point_possible_nan_is_ind@DV?$input_adapter_character_source@V?$string_input_adapter@D@__crt_stdio_input@@@__crt_strtox@@@__crt_strtox@@YA_NAEADAEAV?$input_adapter_character_source@V?$string_input_adapter@D@__crt_stdio_input@@@0@@Z 0000000180024378 f i libucrt:input.obj
 0001:000233f0       ??$parse_floating_point_possible_nan_is_snan@DV?$input_adapter_character_source@V?$string_input_adapter@D@__crt_stdio_input@@@__crt_strtox@@@__crt_strtox@@YA_NAEADAEAV?$input_adapter_character_source@V?$string_input_adapter@D@__crt_stdio_input@@@0@@Z 00000001800243f0 f i libucrt:input.obj
 0001:00023468       ??$parse_floating_point_write_result@M@__crt_strtox@@YA?AW4SLD_STATUS@@W4floating_point_parse_result@0@AEBUfloating_point_string@0@QEAM@Z 0000000180024468 f i libucrt:input.obj
 0001:000235d8       ??$parse_floating_point_write_result@N@__crt_strtox@@YA?AW4SLD_STATUS@@W4floating_point_parse_result@0@AEBUfloating_point_string@0@QEAN@Z 00000001800245d8 f i libucrt:input.obj
 0001:000237b8       ??$parse_integer@_KV?$input_adapter_character_source@V?$string_input_adapter@D@__crt_stdio_input@@@__crt_strtox@@@__crt_strtox@@YA_KQEAU__crt_locale_pointers@@V?$input_adapter_character_source@V?$string_input_adapter@D@__crt_stdio_input@@@0@H_N@Z 00000001800247b8 f i libucrt:input.obj
 0001:00023bdc       ??$process_floating_point_specifier_t@M@?$input_processor@DV?$string_input_adapter@D@__crt_stdio_input@@@__crt_stdio_input@@AEAA_NXZ 0000000180024bdc f i libucrt:input.obj
 0001:00023c80       ??$process_floating_point_specifier_t@N@?$input_processor@DV?$string_input_adapter@D@__crt_stdio_input@@@__crt_stdio_input@@AEAA_NXZ 0000000180024c80 f i libucrt:input.obj
 0001:00023d28       ??$process_string_specifier_tchar@D@?$input_processor@DV?$string_input_adapter@D@__crt_stdio_input@@@__crt_stdio_input@@AEAA_NW4conversion_mode@1@D@Z 0000000180024d28 f i libucrt:input.obj
 0001:00023ee4       ??$process_string_specifier_tchar@_W@?$input_processor@DV?$string_input_adapter@D@__crt_stdio_input@@@__crt_stdio_input@@AEAA_NW4conversion_mode@1@_W@Z 0000000180024ee4 f i libucrt:input.obj
 0001:000240d0       ??$skip_whitespace@Vstring_input_adapter@__crt_stdio_input@@D@__crt_stdio_input@@YAHAEAV?$string_input_adapter@D@0@QEAU__crt_locale_pointers@@@Z 00000001800250d0 f i libucrt:input.obj
 0001:00024144       ?advance@?$format_string_parser@D@__crt_stdio_input@@QEAA_NXZ 0000000180025144 f i libucrt:input.obj
 0001:0002430c       ?as_double@floating_point_value@__crt_strtox@@QEBAAEANXZ 000000018002530c f i libucrt:input.obj
 0001:00024348       ?as_float@floating_point_value@__crt_strtox@@QEBAAEAMXZ 0000000180025348 f i libucrt:input.obj
 0001:00024384       ?assemble_floating_point_value@__crt_strtox@@YA?AW4SLD_STATUS@@_KH_N1AEBVfloating_point_value@1@@Z 0000000180025384 f i libucrt:input.obj
 0001:0002472c       ?assemble_floating_point_value_from_big_integer@__crt_strtox@@YA?AW4SLD_STATUS@@AEBUbig_integer@1@I_N1AEBVfloating_point_value@1@@Z 000000018002572c f i libucrt:input.obj
 0001:00024890       ?convert_decimal_string_to_floating_type_common@__crt_strtox@@YA?AW4SLD_STATUS@@AEBUfloating_point_string@1@AEBVfloating_point_value@1@@Z 0000000180025890 f i libucrt:input.obj
 0001:00026610       ?convert_hexadecimal_string_to_floating_type_common@__crt_strtox@@YA?AW4SLD_STATUS@@AEBUfloating_point_string@1@AEBVfloating_point_value@1@@Z 0000000180027610 f i libucrt:input.obj
 0001:000266c0       ?divide@__crt_strtox@@YA_KAEAUbig_integer@1@AEBU21@@Z 00000001800276c0 f i libucrt:input.obj
 0001:00026aec       ?length@?$format_string_parser@D@__crt_stdio_input@@QEBA_KXZ 0000000180027aec f i libucrt:input.obj
 0001:00026b88       ?process@?$input_processor@DV?$string_input_adapter@D@__crt_stdio_input@@@__crt_stdio_input@@QEAAHXZ 0000000180027b88 f i libucrt:input.obj
 0001:00026c74       ?process_conversion_specifier@?$input_processor@DV?$string_input_adapter@D@__crt_stdio_input@@@__crt_stdio_input@@AEAA_NXZ 0000000180027c74 f i libucrt:input.obj
 0001:00026d94       ?process_floating_point_specifier@?$input_processor@DV?$string_input_adapter@D@__crt_stdio_input@@@__crt_stdio_input@@AEAA_NXZ 0000000180027d94 f i libucrt:input.obj
 0001:00026e04       ?process_integer_specifier@?$input_processor@DV?$string_input_adapter@D@__crt_stdio_input@@@__crt_stdio_input@@AEAA_NI_N@Z 0000000180027e04 f i libucrt:input.obj
 0001:00026ebc       ?process_literal_character_tchar@?$input_processor@DV?$string_input_adapter@D@__crt_stdio_input@@@__crt_stdio_input@@AEAA_ND@Z 0000000180027ebc f i libucrt:input.obj
 0001:00026f40       ?process_state@?$input_processor@DV?$string_input_adapter@D@__crt_stdio_input@@@__crt_stdio_input@@AEAA_NXZ 0000000180027f40 f i libucrt:input.obj
 0001:00026ff8       ?process_string_specifier@?$input_processor@DV?$string_input_adapter@D@__crt_stdio_input@@@__crt_stdio_input@@AEAA_NW4conversion_mode@2@@Z 0000000180027ff8 f i libucrt:input.obj
 0001:00027084       ?scan_conversion_specifier@?$format_string_parser@D@__crt_stdio_input@@AEAA_NXZ 0000000180028084 f i libucrt:input.obj
 0001:00027228       ?scan_optional_field_width@?$format_string_parser@D@__crt_stdio_input@@AEAA_NXZ 0000000180028228 f i libucrt:input.obj
 0001:000272d0       ?scan_optional_length_modifier@?$format_string_parser@D@__crt_stdio_input@@AEAAXXZ 00000001800282d0 f i libucrt:input.obj
 0001:0002740c       ?scan_scanset_range@?$format_string_parser@D@__crt_stdio_input@@AEAA_NXZ 000000018002840c f i libucrt:input.obj
 0001:000275c0       ?write_character@?$input_processor@DV?$string_input_adapter@D@__crt_stdio_input@@@__crt_stdio_input@@AEAA_NQEFA_W_KAEAPEFA_WAEA_KD@Z 00000001800285c0 f i libucrt:input.obj
 0001:00027658       ?write_integer@?$input_processor@DV?$string_input_adapter@D@__crt_stdio_input@@@__crt_stdio_input@@AEAA_N_K@Z 0000000180028658 f i libucrt:input.obj
 0001:000276d0       __stdio_common_vsscanf     00000001800286d0 f   libucrt:input.obj
 0001:000278e0       _tolower_l                 00000001800288e0 f   libucrt:tolower_toupper.obj
 0001:00027a20       tolower                    0000000180028a20 f   libucrt:tolower_toupper.obj
 0001:00027a4c       __ascii_stricmp            0000000180028a4c f   libucrt:stricmp.obj
 0001:00027a8c       _stricmp                   0000000180028a8c f   libucrt:stricmp.obj
 0001:00027ad4       _stricmp_l                 0000000180028ad4 f   libucrt:stricmp.obj
 0001:00027b88       __acrt_initialize_locks    0000000180028b88 f   libucrt:locks.obj
 0001:00027bd0       __acrt_lock                0000000180028bd0 f   libucrt:locks.obj
 0001:00027bec       __acrt_uninitialize_locks  0000000180028bec f   libucrt:locks.obj
 0001:00027c24       __acrt_unlock              0000000180028c24 f   libucrt:locks.obj
 0001:00027c40       _lock_locales              0000000180028c40 f   libucrt:locks.obj
 0001:00027c5c       _unlock_locales            0000000180028c5c f   libucrt:locks.obj
 0001:00027c6c       terminate                  0000000180028c6c f   libucrt:terminate.obj
 0001:00027c8c       malloc                     0000000180028c8c f   libucrt:malloc.obj
 0001:00027f74       setlocale                  0000000180028f74 f   libucrt:setlocale.obj
 0001:0002807c       _fsopen                    000000018002907c f   libucrt:fopen.obj
 0001:00028084       calloc                     0000000180029084 f   libucrt:calloc.obj
 0001:0002808c       __pctype_func              000000018002908c f   libucrt:ctype.obj
 0001:000280bc       isdigit                    00000001800290bc f i libucrt:_ctype.obj
 0001:00028150       islower                    0000000180029150 f i libucrt:_ctype.obj
 0001:000281e4       isspace                    00000001800291e4 f i libucrt:_ctype.obj
 0001:00028278       isupper                    0000000180029278 f i libucrt:_ctype.obj
 0001:0002830c       _wcsdup                    000000018002930c f   libucrt:wcsdup.obj
 0001:00028390       ___lc_codepage_func        0000000180029390 f   libucrt:initctype.obj
 0001:000283c0       ___lc_locale_name_func     00000001800293c0 f   libucrt:initctype.obj
 0001:000283f4       __acrt_locale_initialize_ctype 00000001800293f4 f   libucrt:initctype.obj
 0001:00028a44       __acrt_errno_from_os_error 0000000180029a44 f   libucrt:errno.obj
 0001:00028a8c       __acrt_errno_map_os_error  0000000180029a8c f   libucrt:errno.obj
 0001:00028adc       __doserrno                 0000000180029adc f   libucrt:errno.obj
 0001:00028afc       _errno                     0000000180029afc f   libucrt:errno.obj
 0001:00028b20       pow                        0000000180029b20 f   libucrt:pow.obj
 0001:0002a1c0       powf                       000000018002b1c0 f   libucrt:powf.obj
 0001:0002b088       __strncnt                  000000018002c088 f   libucrt:strncnt.obj
 0001:0002b0a0       ??$__acrt_mbs_to_wcs_cp@U__crt_win32_buffer_internal_dynamic_resizing@@@@YAHQEBDAEAV?$__crt_win32_buffer@_WU__crt_win32_buffer_internal_dynamic_resizing@@@@I@Z 000000018002c0a0 f i libucrt:strftime.obj
 0001:0002b218       ??$__acrt_wcs_to_mbs_cp@U__crt_win32_buffer_no_resizing@@@@YAHQEB_WAEAV?$__crt_win32_buffer@DU__crt_win32_buffer_no_resizing@@@@I@Z 000000018002c218 f i libucrt:strftime.obj
 0001:0002b32c       wcscpy_s                   000000018002c32c f   libucrt:wcscpy_s.obj
 0001:0002b394       strnlen                    000000018002c394 f   libucrt:strnlen.obj
 0001:0002b4e4       wcsnlen                    000000018002c4e4 f   libucrt:strnlen.obj
 0001:0002b6bc       __acrt_initialize_new_handler 000000018002c6bc f   libucrt:new_handler.obj
 0001:0002b6c4       _callnewh                  000000018002c6c4 f   libucrt:new_handler.obj
 0001:0002b6f4       _query_new_handler         000000018002c6f4 f   libucrt:new_handler.obj
 0001:0002b728       _seh_filter_dll            000000018002c728 f   libucrt:exception_filter.obj
 0001:0002b73c       _seh_filter_exe            000000018002c73c f   libucrt:exception_filter.obj
 0001:0002bb2c       __acrt_initialize_thread_local_exit_callback 000000018002cb2c f   libucrt:exit.obj
 0001:0002bb34       _cexit                     000000018002cb34 f   libucrt:exit.obj
 0001:0002bb44       _exit                      000000018002cb44 f   libucrt:exit.obj
 0001:0002bb50       _is_c_termination_complete 000000018002cb50 f   libucrt:exit.obj
 0001:0002bd1c       __acrt_allocate_buffer_for_argv 000000018002cd1c f   libucrt:argv_parsing.obj
 0001:0002bd7c       _configure_narrow_argv     000000018002cd7c f   libucrt:argv_parsing.obj
 0001:0002c0f4       __dcrt_uninitialize_environments_nolock 000000018002d0f4 f   libucrt:environment_initialization.obj
 0001:0002c12c       _initialize_narrow_environment 000000018002d12c f   libucrt:environment_initialization.obj
 0001:0002c474       _crt_atexit                000000018002d474 f   libucrt:onexit.obj
 0001:0002c484       _execute_onexit_table      000000018002d484 f   libucrt:onexit.obj
 0001:0002c4c0       _initialize_onexit_table   000000018002d4c0 f   libucrt:onexit.obj
 0001:0002c4e8       _register_onexit_function  000000018002d4e8 f   libucrt:onexit.obj
 0001:0002c65c       __acrt_initialize          000000018002d65c f   libucrt:initialization.obj
 0001:0002c670       __acrt_thread_attach       000000018002d670 f   libucrt:initialization.obj
 0001:0002c684       __acrt_thread_detach       000000018002d684 f   libucrt:initialization.obj
 0001:0002c694       __acrt_uninitialize        000000018002d694 f   libucrt:initialization.obj
 0001:0002c6cc       __acrt_uninitialize_critical 000000018002d6cc f   libucrt:initialization.obj
 0001:0002c6dc       _initterm                  000000018002d6dc f   libucrt:initterm.obj
 0001:0002c740       _initterm_e                000000018002d740 f   libucrt:initterm.obj
 0001:0002c780       strcpy_s                   000000018002d780 f   libucrt:strcpy_s.obj
 0001:0002c7e0       wcsncmp                    000000018002d7e0 f   libucrt:wcsncmp.obj
 0001:0002c80c       ??$parse_integer@KV?$c_string_character_source@D@__crt_strtox@@@__crt_strtox@@YAKQEAU__crt_locale_pointers@@V?$c_string_character_source@D@0@H_N@Z 000000018002d80c f i libucrt:atox.obj
 0001:0002cb48       ??$parse_integer@KV?$c_string_character_source@_W@__crt_strtox@@@__crt_strtox@@YAKQEAU__crt_locale_pointers@@V?$c_string_character_source@_W@0@H_N@Z 000000018002db48 f i libucrt:atox.obj
 0001:0002d1fc       ??$parse_integer@_KV?$c_string_character_source@D@__crt_strtox@@@__crt_strtox@@YA_KQEAU__crt_locale_pointers@@V?$c_string_character_source@D@0@H_N@Z 000000018002e1fc f i libucrt:atox.obj
 0001:0002d52c       _wtol                      000000018002e52c f   libucrt:atox.obj
 0001:0002d5a0       __acrt_get_sigabrt_handler 000000018002e5a0 f   libucrt:signal.obj
 0001:0002d5d0       __acrt_initialize_signal_handlers 000000018002e5d0 f   libucrt:signal.obj
 0001:0002d5f0       raise                      000000018002e5f0 f   libucrt:signal.obj
 0001:0002d85c       _fileno                    000000018002e85c f   libucrt:fileno.obj
 0001:0002dac8       __acrt_stdio_flush_and_write_narrow_nolock 000000018002eac8 f   libucrt:_flsbuf.obj
 0001:0002dbb4       __acrt_stdio_flush_and_write_wide_nolock 000000018002ebb4 f   libucrt:_flsbuf.obj
 0001:0002de9c       __acrt_initialize_lowio    000000018002ee9c f   libucrt:ioinit.obj
 0001:0002ded8       __acrt_uninitialize_lowio  000000018002eed8 f   libucrt:ioinit.obj
 0001:0002e290       __acrt_freeptd             000000018002f290 f   libucrt:per_thread_data.obj
 0001:0002e2d4       __acrt_getptd              000000018002f2d4 f   libucrt:per_thread_data.obj
 0001:0002e3a8       __acrt_getptd_head         000000018002f3a8 f   libucrt:per_thread_data.obj
 0001:0002e450       __acrt_getptd_noexit       000000018002f450 f   libucrt:per_thread_data.obj
 0001:0002e51c       __acrt_initialize_ptd      000000018002f51c f   libucrt:per_thread_data.obj
 0001:0002e558       __acrt_uninitialize_ptd    000000018002f558 f   libucrt:per_thread_data.obj
 0001:0002e608       _commit                    000000018002f608 f   libucrt:commit.obj
 0001:0002ef08       _write                     000000018002ff08 f   libucrt:write.obj
 0001:0002eff4       _write_nolock              000000018002fff4 f   libucrt:write.obj
 0001:0002f2d0       _free_base                 00000001800302d0 f   libucrt:free_base.obj
 0001:0002f384       _close                     0000000180030384 f   libucrt:close.obj
 0001:0002f428       _close_nolock              0000000180030428 f   libucrt:close.obj
 0001:0002f4e8       ?__acrt_stdio_allocate_stream@@YA?AV__crt_stdio_stream@@XZ 00000001800304e8 f   libucrt:stream.obj
 0001:0002f540       ?__acrt_stdio_free_stream@@YAXV__crt_stdio_stream@@@Z 0000000180030540 f   libucrt:stream.obj
 0001:0002f648       __acrt_stdio_free_buffer_nolock 0000000180030648 f   libucrt:_freebuf.obj
 0001:0002f688       __acrt_stdio_refill_and_read_narrow_nolock 0000000180030688 f   libucrt:_filbuf.obj
 0001:0002f7f4       _calloc_base               00000001800307f4 f   libucrt:calloc_base.obj
 0001:0002fae8       __acrt_AppPolicyGetProcessTerminationMethodInternal 0000000180030ae8 f   libucrt:winapi_thunks.obj
 0001:0002fb38       __acrt_AppPolicyGetShowDeveloperDiagnosticInternal 0000000180030b38 f   libucrt:winapi_thunks.obj
 0001:0002fb88       __acrt_AppPolicyGetWindowingModelInternal 0000000180030b88 f   libucrt:winapi_thunks.obj
 0001:0002fbd8       __acrt_AreFileApisANSI     0000000180030bd8 f   libucrt:winapi_thunks.obj
 0001:0002fc14       __acrt_EnumSystemLocalesEx 0000000180030c14 f   libucrt:winapi_thunks.obj
 0001:0002fcac       __acrt_FlsAlloc            0000000180030cac f   libucrt:winapi_thunks.obj
 0001:0002fcf4       __acrt_FlsFree             0000000180030cf4 f   libucrt:winapi_thunks.obj
 0001:0002fd3c       __acrt_FlsGetValue         0000000180030d3c f   libucrt:winapi_thunks.obj
 0001:0002fd84       __acrt_FlsSetValue         0000000180030d84 f   libucrt:winapi_thunks.obj
 0001:0002fdd8       __acrt_GetLocaleInfoEx     0000000180030dd8 f   libucrt:winapi_thunks.obj
 0001:0002fe5c       __acrt_GetUserDefaultLocaleName 0000000180030e5c f   libucrt:winapi_thunks.obj
 0001:0002fec0       __acrt_InitializeCriticalSectionEx 0000000180030ec0 f   libucrt:winapi_thunks.obj
 0001:0002ff24       __acrt_IsValidLocaleName   0000000180030f24 f   libucrt:winapi_thunks.obj
 0001:0002ff7c       __acrt_LCIDToLocaleName    0000000180030f7c f   libucrt:winapi_thunks.obj
 0001:0002ffec       __acrt_LCMapStringEx       0000000180030fec f   libucrt:winapi_thunks.obj
 0001:000300c8       __acrt_LocaleNameToLCID    00000001800310c8 f   libucrt:winapi_thunks.obj
 0001:00030118       __acrt_MessageBoxW         0000000180031118 f   libucrt:winapi_thunks.obj
 0001:0003018c       __acrt_can_show_message_box 000000018003118c f   libucrt:winapi_thunks.obj
 0001:000301fc       __acrt_can_use_vista_locale_apis 00000001800311fc f   libucrt:winapi_thunks.obj
 0001:0003022c       __acrt_eagerly_load_locale_apis 000000018003122c f   libucrt:winapi_thunks.obj
 0001:00030388       __acrt_get_parent_window   0000000180031388 f   libucrt:winapi_thunks.obj
 0001:00030400       __acrt_initialize_winapi_thunks 0000000180031400 f   libucrt:winapi_thunks.obj
 0001:00030434       __acrt_is_interactive      0000000180031434 f   libucrt:winapi_thunks.obj
 0001:000304fc       __acrt_uninitialize_winapi_thunks 00000001800314fc f   libucrt:winapi_thunks.obj
 0001:00030540       _fcloseall                 0000000180031540 f   libucrt:closeall.obj
 0001:000305f4       __acrt_stdio_begin_temporary_buffering_nolock 00000001800315f4 f   libucrt:_sftbuf.obj
 0001:000306c4       __acrt_stdio_end_temporary_buffering_nolock 00000001800316c4 f   libucrt:_sftbuf.obj
 0001:00030bd0       _ftelli64                  0000000180031bd0 f   libucrt:ftell.obj
 0001:00030bd8       _ftelli64_nolock           0000000180031bd8 f   libucrt:ftell.obj
 0001:00030be0       _malloc_base               0000000180031be0 f   libucrt:malloc_base.obj
 0001:00030c40       __acrt_stdio_allocate_buffer_nolock 0000000180031c40 f   libucrt:_getbuf.obj
 0001:0003127c       _read                      000000018003227c f   libucrt:read.obj
 0001:00031398       _read_nolock               0000000180032398 f   libucrt:read.obj
 0001:0003197c       _lseeki64                  000000018003297c f   libucrt:lseek.obj
 0001:00031984       _lseeki64_nolock           0000000180032984 f   libucrt:lseek.obj
 0001:0003198c       _query_app_type            000000018003298c f   libucrt:report_runtime_error.obj
 0001:00031ad4       _itow_s                    0000000180032ad4 f   libucrt:xtoa.obj
 0001:00031af4       _set_error_mode            0000000180032af4 f   libucrt:set_error_mode.obj
 0001:00031b34       wcscat_s                   0000000180032b34 f   libucrt:wcscat_s.obj
 0001:00031bb4       wcsncat_s                  0000000180032bb4 f   libucrt:wcsncat_s.obj
 0001:00031cb4       __acrt_GetModuleFileNameA  0000000180032cb4 f   libucrt:getmodulefilenamea.obj
 0001:00031dd4       __acrt_show_wide_message_box 0000000180032dd4 f   libucrt:crtmbox.obj
 0001:00031e78       strtol                     0000000180032e78 f   libucrt:strtox.obj
 0001:00031ea4       strtoull                   0000000180032ea4 f   libucrt:strtox.obj
 0001:00031ed0       wcstol                     0000000180032ed0 f   libucrt:strtox.obj
 0001:00031efc       _mbtowc_l                  0000000180032efc f   libucrt:mbtowc.obj
 0001:00032078       mbtowc                     0000000180033078 f   libucrt:mbtowc.obj
 0001:00032080       _wctomb_s_l                0000000180033080 f   libucrt:wctomb.obj
 0001:00032220       wctomb_s                   0000000180033220 f   libucrt:wctomb.obj
 0001:00032234       __acrt_update_locale_info  0000000180033234 f   libucrt:locale_update.obj
 0001:00032268       __acrt_update_multibyte_info 0000000180033268 f   libucrt:locale_update.obj
 0001:00032c70       __acrt_fp_format           0000000180033c70 f   libucrt:cvt.obj
 0001:00032ef8       _fputwc_nolock             0000000180033ef8 f   libucrt:fputwc.obj
 0001:00033074       _get_printf_count_output   0000000180034074 f   libucrt:printf_count_output.obj
 0001:000332f4       __acrt_copy_locale_name    00000001800342f4 f   libucrt:wsetlocale.obj
 0001:00033378       __acrt_set_locale_changed  0000000180034378 f   libucrt:wsetlocale.obj
 0001:00033384       __acrt_uninitialize_locale 0000000180034384 f   libucrt:wsetlocale.obj
 0001:000333b4       __lc_lctowcs               00000001800343b4 f   libucrt:wsetlocale.obj
 0001:00033458       __lc_wcstolc               0000000180034458 f   libucrt:wsetlocale.obj
 0001:00033694       _expandlocale              0000000180034694 f   libucrt:wsetlocale.obj
 0001:00033a78       _wcscats                   0000000180034a78 f   libucrt:wsetlocale.obj
 0001:00033ae0       _wsetlocale                0000000180034ae0 f   libucrt:wsetlocale.obj
 0001:00034358       iswctype                   0000000180035358 f   libucrt:iswctype.obj
 0001:000343c8       _isctype_l                 00000001800353c8 f   libucrt:isctype.obj
 0001:000344d8       fegetround                 00000001800354d8 f   libucrt:fegetround.obj
 0001:000344ec       _isleadbyte_l              00000001800354ec f i libucrt:_wctype.obj
 0001:00034850       __acrt_LCMapStringA        0000000180035850 f   libucrt:lcmapstringa.obj
 0001:00034aec       _mbstowcs_s_l              0000000180035aec f   libucrt:mbstowcs.obj
 0001:00034c20       mbstowcs_s                 0000000180035c20 f   libucrt:mbstowcs.obj
 0001:00034fa8       _wcstombs_s_l              0000000180035fa8 f   libucrt:wcstombs.obj
 0001:00035094       ??$__acrt_stdio_parse_mode@D@@YA?AU__acrt_stdio_stream_mode@@QEBD@Z 0000000180036094 f i libucrt:openfile.obj
 0001:00035358       _openfile                  0000000180036358 f   libucrt:openfile.obj
 0001:00035570       __acrt_GetLocaleInfoA      0000000180036570 f   libucrt:getlocaleinfoa.obj
 0001:00035738       __acrt_GetStringTypeA      0000000180036738 f   libucrt:getstringtypea.obj
 0001:000358c8       _realloc_base              00000001800368c8 f   libucrt:realloc_base.obj
 0001:00035944       _raise_exc                 0000000180036944 f   libucrt:fpexcept.obj
 0001:0003596c       _raise_exc_ex              000000018003696c f   libucrt:fpexcept.obj
 0001:00035c7c       _raise_excf                0000000180036c7c f   libucrt:fpexcept.obj
 0001:00035ca8       _set_errno_from_matherr    0000000180036ca8 f   libucrt:fpexcept.obj
 0001:00035cd8       _clrfp                     0000000180036cd8 f   libucrt:fpctrl.obj
 0001:00035cf8       _ctrlfp                    0000000180036cf8 f   libucrt:fpctrl.obj
 0001:00035d74       _set_statfp                0000000180036d74 f   libucrt:fpctrl.obj
 0001:00035d94       _statfp                    0000000180036d94 f   libucrt:fpctrl.obj
 0001:00035db0       __acrt_initialize_fma3     0000000180036db0 f   libucrt:fma3_available.obj
 0001:00035e20       _pow_special               0000000180036e20 f   libucrt:pow_special.obj
 0001:00035f44       _powf_special              0000000180036f44 f   libucrt:pow_special.obj
 0001:000360d0       __acrt_MultiByteToWideChar 00000001800370d0 f   libucrt:multibytetowidechar.obj
 0001:0003612c       __acrt_WideCharToMultiByte 000000018003712c f   libucrt:widechartomultibyte.obj
 0001:000361c4       _wcsicmp                   00000001800371c4 f   libucrt:wcsicmp.obj
 0001:0003625c       _wcsicmp_l                 000000018003725c f   libucrt:wcsicmp.obj
 0001:0003635c       __acrt_initialize_timeset  000000018003735c f   libucrt:timeset.obj
 0001:000363a0       __acrt_get_developer_information_policy 00000001800373a0 f   libucrt:win_policies.obj
 0001:000363f4       __acrt_get_process_end_policy 00000001800373f4 f   libucrt:win_policies.obj
 0001:00036430       __acrt_get_windowing_model_policy 0000000180037430 f   libucrt:win_policies.obj
 0001:000364b0       ??$__acrt_wcs_to_mbs_cp@U__crt_win32_buffer_internal_dynamic_resizing@@@@YAHQEB_WAEAV?$__crt_win32_buffer@DU__crt_win32_buffer_internal_dynamic_resizing@@@@I@Z 00000001800374b0 f i libucrt:argv_wildcards.obj
 0001:00036ce0       __acrt_expand_narrow_argv_wildcards 0000000180037ce0 f   libucrt:argv_wildcards.obj
 0001:00037414       __acrt_initialize_multibyte 0000000180038414 f   libucrt:mbctype.obj
 0001:00037474       __acrt_update_thread_multibyte_data 0000000180038474 f   libucrt:mbctype.obj
 0001:00037490       _setmbcp_nolock            0000000180038490 f   libucrt:mbctype.obj
 0001:000377c4       _ismbblead                 00000001800387c4 f   libucrt:ismbbyte.obj
 0001:000377d8       __acrt_initialize_command_line 00000001800387d8 f   libucrt:argv_data.obj
 0001:00037800       __dcrt_get_narrow_environment_from_os 0000000180038800 f   libucrt:get_environment_from_os.obj
 0001:00037904       _recalloc_base             0000000180038904 f   libucrt:recalloc.obj
 0001:0003799c       __acrt_initialize_heap     000000018003899c f   libucrt:heap_handle.obj
 0001:000379b8       __acrt_uninitialize_heap   00000001800389b8 f   libucrt:heap_handle.obj
 0001:000379c4       __acrt_execute_initializers 00000001800389c4 f   libucrt:shared_initialization.obj
 0001:00037a44       __acrt_execute_uninitializers 0000000180038a44 f   libucrt:shared_initialization.obj
 0001:00037a80       __acrt_has_user_matherr    0000000180038a80 f   libucrt:matherr.obj
 0001:00037aa0       __acrt_initialize_user_matherr 0000000180038aa0 f   libucrt:matherr.obj
 0001:00037aa8       __acrt_invoke_user_matherr 0000000180038aa8 f   libucrt:matherr.obj
 0001:00037ad8       __acrt_lowio_create_handle_array 0000000180038ad8 f   libucrt:osfinfo.obj
 0001:00037b80       __acrt_lowio_destroy_handle_array 0000000180038b80 f   libucrt:osfinfo.obj
 0001:00037bd0       __acrt_lowio_ensure_fh_exists 0000000180038bd0 f   libucrt:osfinfo.obj
 0001:00037c78       __acrt_lowio_lock_fh       0000000180038c78 f   libucrt:osfinfo.obj
 0001:00037ca0       __acrt_lowio_set_os_handle 0000000180038ca0 f   libucrt:osfinfo.obj
 0001:00037d60       __acrt_lowio_unlock_fh     0000000180038d60 f   libucrt:osfinfo.obj
 0001:00037d88       _alloc_osfhnd              0000000180038d88 f   libucrt:osfinfo.obj
 0001:00037ec8       _free_osfhnd               0000000180038ec8 f   libucrt:osfinfo.obj
 0001:00037f84       _get_osfhandle             0000000180038f84 f   libucrt:osfinfo.obj
 0001:00037ffc       _isatty                    0000000180038ffc f   libucrt:isatty.obj
 0001:0003805c       __acrt_add_locale_ref      000000018003905c f   libucrt:locale_refcounting.obj
 0001:000380e8       __acrt_free_locale         00000001800390e8 f   libucrt:locale_refcounting.obj
 0001:00038260       __acrt_locale_add_lc_time_reference 0000000180039260 f   libucrt:locale_refcounting.obj
 0001:00038288       __acrt_locale_free_lc_time_if_unreferenced 0000000180039288 f   libucrt:locale_refcounting.obj
 0001:000382c0       __acrt_locale_release_lc_time_reference 00000001800392c0 f   libucrt:locale_refcounting.obj
 0001:000382e8       __acrt_release_locale_ref  00000001800392e8 f   libucrt:locale_refcounting.obj
 0001:00038390       __acrt_update_thread_locale_data 0000000180039390 f   libucrt:locale_refcounting.obj
 0001:00038400       _updatetlocinfoEx_nolock   0000000180039400 f   libucrt:locale_refcounting.obj
 0001:00038468       ?__mbrtowc_utf8@__crt_mbstring@@YA_KPEA_WPEBD_KPEAU_Mbstatet@@@Z 0000000180039468 f   libucrt:mbrtowc.obj
 0001:000384a4       ?__mbsrtowcs_utf8@__crt_mbstring@@YA_KPEA_WPEAPEBD_KPEAU_Mbstatet@@@Z 00000001800394a4 f   libucrt:mbrtowc.obj
 0001:0003861c       _putwch_nolock             000000018003961c f   libucrt:putwch.obj
 0001:00038658       _query_new_mode            0000000180039658 f   libucrt:new_mode.obj
 0001:00038748       __acrt_DownlevelLCIDToLocaleName 0000000180039748 f   libucrt:lcidtoname_downlevel.obj
 0001:0003883c       __acrt_DownlevelLocaleNameToLCID 000000018003983c f   libucrt:lcidtoname_downlevel.obj
 0001:00038870       wcsncpy_s                  0000000180039870 f   libucrt:wcsncpy_s.obj
 0001:00038954       ?__c32rtomb_utf8@__crt_mbstring@@YA_KPEAD_UPEAU_Mbstatet@@@Z 0000000180039954 f   libucrt:c32rtomb.obj
 0001:00038a0c       c32rtomb                   0000000180039a0c f   libucrt:c32rtomb.obj
 0001:00038a14       __acrt_fp_strflt_to_string 0000000180039a14 f   libucrt:_fptostr.obj
 0001:00038af8       __acrt_fltout              0000000180039af8 f   libucrt:cfout.obj
 0001:00039d2c       __acrt_locale_free_monetary 000000018003ad2c f   libucrt:initmon.obj
 0001:00039e38       __acrt_locale_initialize_monetary 000000018003ae38 f   libucrt:initmon.obj
 0001:0003a36c       __acrt_locale_free_numeric 000000018003b36c f   libucrt:initnum.obj
 0001:0003a3d8       __acrt_locale_initialize_numeric 000000018003b3d8 f   libucrt:initnum.obj
 0001:0003aa58       __acrt_locale_free_time    000000018003ba58 f   libucrt:inittime.obj
 0001:0003ab60       __acrt_locale_initialize_time 000000018003bb60 f   libucrt:inittime.obj
 0001:0003abfc       wcscspn                    000000018003bbfc f   libucrt:wcscspn.obj
 0001:0003ac3c       wcspbrk                    000000018003bc3c f   libucrt:wcspbrk.obj
 0001:0003b424       __acrt_get_qualified_locale 000000018003c424 f   libucrt:get_qualified_locale.obj
 0001:0003be58       __acrt_get_qualified_locale_downlevel 000000018003ce58 f   libucrt:getqloc_downlevel.obj
 0001:0003c0d8       __acrt_GetStringTypeW      000000018003d0d8 f   libucrt:getstringtypew.obj
 0001:0003c0e0       __acrt_fenv_get_common_round_control 000000018003d0e0 f   libucrt:_fenvutils.obj
 0001:0003c0ec       __acrt_fenv_get_control    000000018003d0ec f   libucrt:_fenvutils.obj
 0001:0003c1e0       __acrt_fenv_get_status     000000018003d1e0 f   libucrt:_fenvutils.obj
 0001:0003c234       __acrt_fenv_set_control    000000018003d234 f   libucrt:_fenvutils.obj
 0001:0003c37c       __acrt_fenv_set_status     000000018003d37c f   libucrt:_fenvutils.obj
 0001:0003c400       ?__wcsrtombs_utf8@__crt_mbstring@@YA_KPEADPEAPEB_W_KPEAU_Mbstatet@@@Z 000000018003d400 f   libucrt:wcrtomb.obj
 0001:0003c51c       _wcsnicmp                  000000018003d51c f   libucrt:wcsnicmp.obj
 0001:0003c5c8       _wcsnicmp_l                000000018003d5c8 f   libucrt:wcsnicmp.obj
 0001:0003c6f0       __ascii_strnicmp           000000018003d6f0 f   libucrt:strnicmp.obj
 0001:0003c74c       _strnicmp                  000000018003d74c f   libucrt:strnicmp.obj
 0001:0003c79c       _strnicmp_l                000000018003d79c f   libucrt:strnicmp.obj
 0001:0003cea0       _sopen_nolock              000000018003dea0 f   libucrt:open.obj
 0001:0003cfb8       _sopen_s                   000000018003dfb8 f   libucrt:open.obj
 0001:0003cfec       _wsopen_nolock             000000018003dfec f   libucrt:open.obj
 0001:0003d3d4       strncpy_s                  000000018003e3d4 f   libucrt:strncpy_s.obj
 0001:0003d4c0       _get_fpsr                  000000018003e4c0 f   libucrt:fpsr.obj
 0001:0003d4d0       _set_fpsr                  000000018003e4d0 f   libucrt:fpsr.obj
 0001:0003d4da       _fclrf                     000000018003e4da f   libucrt:fpsr.obj
 0001:0003d4ee       _frnd                      000000018003e4ee f   libucrt:fpsr.obj
 0001:0003d634       _handle_error              000000018003e634 f   libucrt:libm_error.obj
 0001:0003d75c       _handle_errorf             000000018003e75c f   libucrt:libm_error.obj
 0001:0003d890       _handle_nan                000000018003e890 f   libucrt:libm_error.obj
 0001:0003d8ac       _handle_nanf               000000018003e8ac f   libucrt:libm_error.obj
 0001:0003d8bc       _towlower_l                000000018003e8bc f   libucrt:towlower.obj
 0001:0003d980       qsort                      000000018003e980 f   libucrt:qsort.obj
 0001:0003dde0       strpbrk                    000000018003ede0 f   libucrt:strpbrk.obj
 0001:0003e1c0       _mbsdec                    000000018003f1c0 f   libucrt:mbsdec.obj
 0001:0003e1c8       _mbsdec_l                  000000018003f1c8 f   libucrt:mbsdec.obj
 0001:0003e274       _msize_base                000000018003f274 f   libucrt:msize.obj
 0001:0003e2b0       ?__mbrtoc32_utf8@__crt_mbstring@@YA_KPEA_UPEBD_KPEAU_Mbstatet@@@Z 000000018003f2b0 f   libucrt:mbrtoc32.obj
 0001:0003e48c       __dcrt_lowio_ensure_console_output_initialized 000000018003f48c f   libucrt:initcon.obj
 0001:0003e4e0       __dcrt_terminate_console_output 000000018003f4e0 f   libucrt:initcon.obj
 0001:0003e4fc       __dcrt_write_console       000000018003f4fc f   libucrt:initcon.obj
 0001:0003e5bc       fegetenv                   000000018003f5bc f   libucrt:fegetenv.obj
 0001:0003e5dc       fesetenv                   000000018003f5dc f   libucrt:fesetenv.obj
 0001:0003e62c       feholdexcept               000000018003f62c f   libucrt:feholdexcept.obj
 0001:0003e67c       ceil                       000000018003f67c f   libucrt:ceil.obj
 0001:0003e740       log10                      000000018003f740 f   libucrt:log10.obj
 0001:0003ecec       wcscmp                     000000018003fcec f   libucrt:wcscmp.obj
 0001:0003ed24       ?__c16rtomb_utf8@__crt_mbstring@@YA_KPEAD_SPEAU_Mbstatet@@@Z 000000018003fd24 f   libucrt:c16rtomb.obj
 0001:0003edcc       _get_fmode                 000000018003fdcc f   libucrt:setmode.obj
 0001:0003edfc       _setmode_nolock            000000018003fdfc f   libucrt:setmode.obj
 0001:0003eedc       _chsize_nolock             000000018003fedc f   libucrt:chsize.obj
 0001:0003f048       __acrt_LCMapStringW        0000000180040048 f   libucrt:lcmapstringw.obj
 0001:0003f0d0       _clearfp                   00000001800400d0 f   libucrt:ieee.obj
 0001:0003f140       _log10_special             0000000180040140 f   libucrt:log_special.obj
 0001:0003f1f6       IsProcessorFeaturePresent  00000001800401f6 f   kernel32:KERNEL32.dll
 0001:0003f1fc       ?DloadAcquireSectionWriteAccess@@YAXXZ 00000001800401fc f i DelayImp:delayhlp.obj
 0001:0003f2a8       ?DloadGetSRWLockFunctionPointers@@YAEXZ 00000001800402a8 f i DelayImp:delayhlp.obj
 0001:0003f344       ?DloadMakePermanentImageCommit@@YAXPEAX_K@Z 0000000180040344 f i DelayImp:delayhlp.obj
 0001:0003f3dc       ?DloadObtainSection@@YAPEAXPEAK0@Z 00000001800403dc f i DelayImp:delayhlp.obj
 0001:0003f478       ?DloadProtectSection@@YAXKPEAK@Z 0000000180040478 f i DelayImp:delayhlp.obj
 0001:0003f508       ?DloadReleaseSectionWriteAccess@@YAXXZ 0000000180040508 f i DelayImp:delayhlp.obj
 0001:0003f59c       __delayLoadHelper2         000000018004059c f   DelayImp:delayhlp.obj
 0001:0003f860       _FindPESection             0000000180040860 f   LIBCMT:pesect.obj
 0001:0003f8b0       _IsNonwritableInCurrentImage 00000001800408b0 f   LIBCMT:pesect.obj
 0001:0003f900       _ValidateImageBase         0000000180040900 f   LIBCMT:pesect.obj
 0001:0003f930       _local_unwind              0000000180040930 f   libvcruntime:jmpuwind.obj
 0001:0003f95c       strrchr                    000000018004095c f   libvcruntime:strrchr.obj
 0001:0003faa8       wcschr                     0000000180040aa8 f   libvcruntime:wcschr.obj
 0001:0003fb50       strcmp                     0000000180040b50 f   libucrt:strcmp.obj
 0001:0003fbd0       _guard_dispatch_icall_nop  0000000180040bd0 f   LIBCMT:guard_dispatch.obj
 0002:00000000       __imp_GetModuleHandleA     0000000180042000     kernel32:KERNEL32.dll
 0002:00000008       __imp_LoadLibraryExA       0000000180042008     kernel32:KERNEL32.dll
 0002:00000010       __imp_GetLastError         0000000180042010     kernel32:KERNEL32.dll
 0002:00000018       __imp_WideCharToMultiByte  0000000180042018     kernel32:KERNEL32.dll
 0002:00000020       __imp_EnterCriticalSection 0000000180042020     kernel32:KERNEL32.dll
 0002:00000028       __imp_LeaveCriticalSection 0000000180042028     kernel32:KERNEL32.dll
 0002:00000030       __imp_DeleteCriticalSection 0000000180042030     kernel32:KERNEL32.dll
 0002:00000038       __imp_SetLastError         0000000180042038     kernel32:KERNEL32.dll
 0002:00000040       __imp_InitializeCriticalSectionAndSpinCount 0000000180042040     kernel32:KERNEL32.dll
 0002:00000048       __imp_SwitchToThread       0000000180042048     kernel32:KERNEL32.dll
 0002:00000050       __imp_TlsAlloc             0000000180042050     kernel32:KERNEL32.dll
 0002:00000058       __imp_TlsGetValue          0000000180042058     kernel32:KERNEL32.dll
 0002:00000060       __imp_TlsSetValue          0000000180042060     kernel32:KERNEL32.dll
 0002:00000068       __imp_TlsFree              0000000180042068     kernel32:KERNEL32.dll
 0002:00000070       __imp_GetSystemTimeAsFileTime 0000000180042070     kernel32:KERNEL32.dll
 0002:00000078       __imp_GetModuleHandleW     0000000180042078     kernel32:KERNEL32.dll
 0002:00000080       __imp_GetProcAddress       0000000180042080     kernel32:KERNEL32.dll
 0002:00000088       __imp_EncodePointer        0000000180042088     kernel32:KERNEL32.dll
 0002:00000090       __imp_DecodePointer        0000000180042090     kernel32:KERNEL32.dll
 0002:00000098       __imp_MultiByteToWideChar  0000000180042098     kernel32:KERNEL32.dll
 0002:000000a0       __imp_LCMapStringW         00000001800420a0     kernel32:KERNEL32.dll
 0002:000000a8       __imp_GetLocaleInfoW       00000001800420a8     kernel32:KERNEL32.dll
 0002:000000b0       __imp_GetStringTypeW       00000001800420b0     kernel32:KERNEL32.dll
 0002:000000b8       __imp_GetCPInfo            00000001800420b8     kernel32:KERNEL32.dll
 0002:000000c0       __imp_RtlCaptureContext    00000001800420c0     kernel32:KERNEL32.dll
 0002:000000c8       __imp_RtlLookupFunctionEntry 00000001800420c8     kernel32:KERNEL32.dll
 0002:000000d0       __imp_RtlVirtualUnwind     00000001800420d0     kernel32:KERNEL32.dll
 0002:000000d8       __imp_UnhandledExceptionFilter 00000001800420d8     kernel32:KERNEL32.dll
 0002:000000e0       __imp_SetUnhandledExceptionFilter 00000001800420e0     kernel32:KERNEL32.dll
 0002:000000e8       __imp_GetCurrentProcess    00000001800420e8     kernel32:KERNEL32.dll
 0002:000000f0       __imp_TerminateProcess     00000001800420f0     kernel32:KERNEL32.dll
 0002:000000f8       __imp_IsProcessorFeaturePresent 00000001800420f8     kernel32:KERNEL32.dll
 0002:00000100       __imp_IsDebuggerPresent    0000000180042100     kernel32:KERNEL32.dll
 0002:00000108       __imp_GetStartupInfoW      0000000180042108     kernel32:KERNEL32.dll
 0002:00000110       __imp_QueryPerformanceCounter 0000000180042110     kernel32:KERNEL32.dll
 0002:00000118       __imp_GetCurrentProcessId  0000000180042118     kernel32:KERNEL32.dll
 0002:00000120       __imp_GetCurrentThreadId   0000000180042120     kernel32:KERNEL32.dll
 0002:00000128       __imp_InitializeSListHead  0000000180042128     kernel32:KERNEL32.dll
 0002:00000130       __imp_RtlPcToFileHeader    0000000180042130     kernel32:KERNEL32.dll
 0002:00000138       __imp_RaiseException       0000000180042138     kernel32:KERNEL32.dll
 0002:00000140       __imp_RtlUnwindEx          0000000180042140     kernel32:KERNEL32.dll
 0002:00000148       __imp_InterlockedFlushSList 0000000180042148     kernel32:KERNEL32.dll
 0002:00000150       __imp_FreeLibrary          0000000180042150     kernel32:KERNEL32.dll
 0002:00000158       __imp_LoadLibraryExW       0000000180042158     kernel32:KERNEL32.dll
 0002:00000160       __imp_GetStdHandle         0000000180042160     kernel32:KERNEL32.dll
 0002:00000168       __imp_GetFileType          0000000180042168     kernel32:KERNEL32.dll
 0002:00000170       __imp_GetModuleFileNameW   0000000180042170     kernel32:KERNEL32.dll
 0002:00000178       __imp_GetModuleHandleExW   0000000180042178     kernel32:KERNEL32.dll
 0002:00000180       __imp_WriteConsoleW        0000000180042180     kernel32:KERNEL32.dll
 0002:00000188       __imp_ExitProcess          0000000180042188     kernel32:KERNEL32.dll
 0002:00000190       __imp_GetFileSizeEx        0000000180042190     kernel32:KERNEL32.dll
 0002:00000198       __imp_SetFilePointerEx     0000000180042198     kernel32:KERNEL32.dll
 0002:000001a0       __imp_FlushFileBuffers     00000001800421a0     kernel32:KERNEL32.dll
 0002:000001a8       __imp_WriteFile            00000001800421a8     kernel32:KERNEL32.dll
 0002:000001b0       __imp_GetConsoleCP         00000001800421b0     kernel32:KERNEL32.dll
 0002:000001b8       __imp_GetConsoleMode       00000001800421b8     kernel32:KERNEL32.dll
 0002:000001c0       __imp_HeapFree             00000001800421c0     kernel32:KERNEL32.dll
 0002:000001c8       __imp_CloseHandle          00000001800421c8     kernel32:KERNEL32.dll
 0002:000001d0       __imp_HeapAlloc            00000001800421d0     kernel32:KERNEL32.dll
 0002:000001d8       __imp_IsValidLocale        00000001800421d8     kernel32:KERNEL32.dll
 0002:000001e0       __imp_GetUserDefaultLCID   00000001800421e0     kernel32:KERNEL32.dll
 0002:000001e8       __imp_EnumSystemLocalesW   00000001800421e8     kernel32:KERNEL32.dll
 0002:000001f0       __imp_ReadFile             00000001800421f0     kernel32:KERNEL32.dll
 0002:000001f8       __imp_ReadConsoleW         00000001800421f8     kernel32:KERNEL32.dll
 0002:00000200       __imp_OutputDebugStringW   0000000180042200     kernel32:KERNEL32.dll
 0002:00000208       __imp_HeapReAlloc          0000000180042208     kernel32:KERNEL32.dll
 0002:00000210       __imp_FindClose            0000000180042210     kernel32:KERNEL32.dll
 0002:00000218       __imp_FindFirstFileExW     0000000180042218     kernel32:KERNEL32.dll
 0002:00000220       __imp_FindNextFileW        0000000180042220     kernel32:KERNEL32.dll
 0002:00000228       __imp_IsValidCodePage      0000000180042228     kernel32:KERNEL32.dll
 0002:00000230       __imp_GetACP               0000000180042230     kernel32:KERNEL32.dll
 0002:00000238       __imp_GetOEMCP             0000000180042238     kernel32:KERNEL32.dll
 0002:00000240       __imp_GetCommandLineA      0000000180042240     kernel32:KERNEL32.dll
 0002:00000248       __imp_GetCommandLineW      0000000180042248     kernel32:KERNEL32.dll
 0002:00000250       __imp_GetEnvironmentStringsW 0000000180042250     kernel32:KERNEL32.dll
 0002:00000258       __imp_FreeEnvironmentStringsW 0000000180042258     kernel32:KERNEL32.dll
 0002:00000260       __imp_GetProcessHeap       0000000180042260     kernel32:KERNEL32.dll
 0002:00000268       __imp_SetStdHandle         0000000180042268     kernel32:KERNEL32.dll
 0002:00000270       __imp_CreateFileW          0000000180042270     kernel32:KERNEL32.dll
 0002:00000278       __imp_HeapSize             0000000180042278     kernel32:KERNEL32.dll
 0002:00000280       __imp_SetEndOfFile         0000000180042280     kernel32:KERNEL32.dll
 0002:00000288       __imp_GetSystemInfo        0000000180042288     kernel32:KERNEL32.dll
 0002:00000290       __imp_VirtualProtect       0000000180042290     kernel32:KERNEL32.dll
 0002:00000298       __imp_VirtualQuery         0000000180042298     kernel32:KERNEL32.dll
 0002:000002a0       __imp_RtlUnwind            00000001800422a0     kernel32:KERNEL32.dll
 0002:000002a8       \177KERNEL32_NULL_THUNK_DATA 00000001800422a8     kernel32:KERNEL32.dll
 0002:000002b0       __guard_check_icall_fptr   00000001800422b0     LIBCMT:guard_support.obj
 0002:000002b8       __guard_dispatch_icall_fptr 00000001800422b8     LIBCMT:guard_support.obj
 0002:000002c0       __xc_a                     00000001800422c0     LIBCMT:initializers.obj
 0002:00000310       _register_ad_block_        0000000180042310     addon.obj
 0002:00000368       __xc_z                     0000000180042368     LIBCMT:initializers.obj
 0002:00000370       __xi_a                     0000000180042370     LIBCMT:initializers.obj
 0002:00000380       __acrt_stdio_initializer   0000000180042380     libucrt:stdio_initializer.obj
 0002:00000388       __acrt_tran_fma3_initializer 0000000180042388     libucrt:fma3_initializer.obj
 0002:00000390       __acrt_timeset_initializer 0000000180042390     libucrt:timeset_initializer.obj
 0002:00000398       __acrt_multibyte_initializer 0000000180042398     libucrt:multibyte_initializer.obj
 0002:000003a0       __xi_z                     00000001800423a0     LIBCMT:initializers.obj
 0002:000003a8       __xp_a                     00000001800423a8     LIBCMT:initializers.obj
 0002:000003b0       __acrt_locale_terminator   00000001800423b0     libucrt:locale_initializer.obj
 0002:000003b8       __dcrt_console_output_terminator 00000001800423b8     libucrt:console_output_initializer.obj
 0002:000003c0       __acrt_stdio_terminator    00000001800423c0     libucrt:stdio_initializer.obj
 0002:000003c8       __xp_z                     00000001800423c8     LIBCMT:initializers.obj
 0002:000003d0       __xt_a                     00000001800423d0     LIBCMT:initializers.obj
 0002:000003d8       __xt_z                     00000001800423d8     LIBCMT:initializers.obj
 0002:000003e0       __sz_node_exe              00000001800423e0     node:node.exe
 0002:000003f8       ??_7exception@std@@6B@     00000001800423f8     libcpmt:xonce.obj
 0002:00000408       ??_C@_0BC@EOODALEL@Unknown?5exception@ 0000000180042408     libcpmt:xonce.obj
 0002:00000428       ??_7runtime_error@std@@6B@ 0000000180042428     libcpmt:xonce.obj
 0002:00000440       ??_7_System_error@std@@6B@ 0000000180042440     libcpmt:xonce.obj
 0002:00000450       ??_C@_0O@BFJCFAAK@unknown?5error@ 0000000180042450     libcpmt:xonce.obj
 0002:00000530       ??_7_Facet_base@std@@6B@   0000000180042530     libcpmt:locale0.obj
 0002:00000550       ??_7_Locimp@locale@std@@6B@ 0000000180042550     libcpmt:locale0.obj
 0002:00000568       ??_C@_01NBENCBCI@?$CK@     0000000180042568     libcpmt:locale0.obj
 0002:0000056c       ??_C@_01GFHCPBMG@C@        000000018004256c     libcpmt:locale0.obj
 0002:00000578       ??_7bad_alloc@std@@6B@     0000000180042578     libcpmt:xthrow.obj
 0002:00000588       ??_C@_0P@GHFPNOJB@bad?5allocation@ 0000000180042588     libcpmt:xthrow.obj
 0002:000005a0       ??_7logic_error@std@@6B@   00000001800425a0     libcpmt:xthrow.obj
 0002:000005b8       ??_7length_error@std@@6B@  00000001800425b8     libcpmt:xthrow.obj
 0002:000005c8       ?_BADOFF@std@@3_JB         00000001800425c8     libcpmt:ios.obj
 0002:00000678       ??_C@_01KDCPPGHE@r@        0000000180042678     libcpmt:fiopen.obj
 0002:0000067c       ??_C@_01NOFIACDB@w@        000000018004267c     libcpmt:fiopen.obj
 0002:00000680       ??_C@_01MCMALHOG@a@        0000000180042680     libcpmt:fiopen.obj
 0002:00000684       ??_C@_02JDPG@rb@           0000000180042684     libcpmt:fiopen.obj
 0002:00000688       ??_C@_02GMLFBBN@wb@        0000000180042688     libcpmt:fiopen.obj
 0002:0000068c       ??_C@_02BOGAIONP@ab@       000000018004268c     libcpmt:fiopen.obj
 0002:00000690       ??_C@_02CBLLGHLK@r?$CL@    0000000180042690     libcpmt:fiopen.obj
 0002:00000694       ??_C@_02CHHAKFFB@w?$CL@    0000000180042694     libcpmt:fiopen.obj
 0002:00000698       ??_C@_02DPNLHKJD@a?$CL@    0000000180042698     libcpmt:fiopen.obj
 0002:0000069c       ??_C@_03HMFOOINA@r?$CLb@   000000018004269c     libcpmt:fiopen.obj
 0002:000006a0       ??_C@_03ELIABIOC@w?$CLb@   00000001800426a0     libcpmt:fiopen.obj
 0002:000006a4       ??_C@_03DOPCBAKB@a?$CLb@   00000001800426a4     libcpmt:fiopen.obj
 0002:000006a8       ?valid@?1???$_Xfiopen@D@std@@YAPEAU_iobuf@@PEBDHH@Z@4QBHB 00000001800426a8     libcpmt:fiopen.obj
 0002:00000e40       ??_C@_0BN@LKKBCCDB@address?5family?5not?5supported@ 0000000180042e40     libcpmt:syserror.obj
 0002:00000e60       ??_C@_0P@LDMLAFHI@address?5in?5use@ 0000000180042e60     libcpmt:syserror.obj
 0002:00000e70       ??_C@_0BG@DHPCNBJB@address?5not?5available@ 0000000180042e70     libcpmt:syserror.obj
 0002:00000e88       ??_C@_0BC@DFIBIBIL@already?5connected@ 0000000180042e88     libcpmt:syserror.obj
 0002:00000ea0       ??_C@_0BH@CAKOHOMI@argument?5list?5too?5long@ 0000000180042ea0     libcpmt:syserror.obj
 0002:00000eb8       ??_C@_0BH@CGIMPKIM@argument?5out?5of?5domain@ 0000000180042eb8     libcpmt:syserror.obj
 0002:00000ed0       ??_C@_0M@KGHGGJGL@bad?5address@ 0000000180042ed0     libcpmt:syserror.obj
 0002:00000ee0       ??_C@_0BE@MPJPGCEO@bad?5file?5descriptor@ 0000000180042ee0     libcpmt:syserror.obj
 0002:00000ef8       ??_C@_0M@PMMIEFCP@bad?5message@ 0000000180042ef8     libcpmt:syserror.obj
 0002:00000f08       ??_C@_0M@KPHOFDBE@broken?5pipe@ 0000000180042f08     libcpmt:syserror.obj
 0002:00000f18       ??_C@_0BD@MGNDDEGM@connection?5aborted@ 0000000180042f18     libcpmt:syserror.obj
 0002:00000f30       ??_C@_0BP@KAIHPOGN@connection?5already?5in?5progress@ 0000000180042f30     libcpmt:syserror.obj
 0002:00000f50       ??_C@_0BD@PJLIIJEL@connection?5refused@ 0000000180042f50     libcpmt:syserror.obj
 0002:00000f68       ??_C@_0BB@IECNJNOI@connection?5reset@ 0000000180042f68     libcpmt:syserror.obj
 0002:00000f80       ??_C@_0BC@PPHBOELF@cross?5device?5link@ 0000000180042f80     libcpmt:syserror.obj
 0002:00000f98       ??_C@_0BN@KDMIFEIP@destination?5address?5required@ 0000000180042f98     libcpmt:syserror.obj
 0002:00000fb8       ??_C@_0BI@NGCEHDD@device?5or?5resource?5busy@ 0000000180042fb8     libcpmt:syserror.obj
 0002:00000fd0       ??_C@_0BE@JIDOCPHM@directory?5not?5empty@ 0000000180042fd0     libcpmt:syserror.obj
 0002:00000fe8       ??_C@_0BI@BNCLIGPB@executable?5format?5error@ 0000000180042fe8     libcpmt:syserror.obj
 0002:00001000       ??_C@_0M@MIDIAGJP@file?5exists@ 0000000180043000     libcpmt:syserror.obj
 0002:00001010       ??_C@_0P@DNAJLBJK@file?5too?5large@ 0000000180043010     libcpmt:syserror.obj
 0002:00001020       ??_C@_0BC@EJHOMAAK@filename?5too?5long@ 0000000180043020     libcpmt:syserror.obj
 0002:00001038       ??_C@_0BH@KEFGLDAF@function?5not?5supported@ 0000000180043038     libcpmt:syserror.obj
 0002:00001050       ??_C@_0BB@DHFDFGDM@host?5unreachable@ 0000000180043050     libcpmt:syserror.obj
 0002:00001068       ??_C@_0BD@JPHBMONG@identifier?5removed@ 0000000180043068     libcpmt:syserror.obj
 0002:00001080       ??_C@_0BG@CDNPAGJK@illegal?5byte?5sequence@ 0000000180043080     libcpmt:syserror.obj
 0002:00001098       ??_C@_0CD@BNPLBMNA@inappropriate?5io?5control?5operat@ 0000000180043098     libcpmt:syserror.obj
 0002:000010c0       ??_C@_0M@EGEKIIMP@interrupted@ 00000001800430c0     libcpmt:syserror.obj
 0002:000010d0       ??_C@_0BB@FCMFBGOM@invalid?5argument@ 00000001800430d0     libcpmt:syserror.obj
 0002:000010e8       ??_C@_0N@OHAFKDEK@invalid?5seek@ 00000001800430e8     libcpmt:syserror.obj
 0002:000010f8       ??_C@_08GLNPIFBN@io?5error@ 00000001800430f8     libcpmt:syserror.obj
 0002:00001108       ??_C@_0P@FLLDBIDK@is?5a?5directory@ 0000000180043108     libcpmt:syserror.obj
 0002:00001118       ??_C@_0N@IFLPBIOP@message?5size@ 0000000180043118     libcpmt:syserror.obj
 0002:00001128       ??_C@_0N@KIIEAAIO@network?5down@ 0000000180043128     libcpmt:syserror.obj
 0002:00001138       ??_C@_0O@FNPDBHEE@network?5reset@ 0000000180043138     libcpmt:syserror.obj
 0002:00001148       ??_C@_0BE@IFNCKGE@network?5unreachable@ 0000000180043148     libcpmt:syserror.obj
 0002:00001160       ??_C@_0BA@PFFCAOFK@no?5buffer?5space@ 0000000180043160     libcpmt:syserror.obj
 0002:00001170       ??_C@_0BB@IEPBLJHK@no?5child?5process@ 0000000180043170     libcpmt:syserror.obj
 0002:00001188       ??_C@_07PLECNNKG@no?5link@ 0000000180043188     libcpmt:syserror.obj
 0002:00001190       ??_C@_0BC@NJECKMKE@no?5lock?5available@ 0000000180043190     libcpmt:syserror.obj
 0002:000011a8       ??_C@_0BF@PBGGPKKE@no?5message?5available@ 00000001800431a8     libcpmt:syserror.obj
 0002:000011c0       ??_C@_0L@EDOLMPAK@no?5message@ 00000001800431c0     libcpmt:syserror.obj
 0002:000011d0       ??_C@_0BD@EAMBFIDF@no?5protocol?5option@ 00000001800431d0     libcpmt:syserror.obj
 0002:000011e8       ??_C@_0BD@IJDJKDEA@no?5space?5on?5device@ 00000001800431e8     libcpmt:syserror.obj
 0002:00001200       ??_C@_0BE@MKFDAFMP@no?5stream?5resources@ 0000000180043200     libcpmt:syserror.obj
 0002:00001218       ??_C@_0BK@IMCPHCBI@no?5such?5device?5or?5address@ 0000000180043218     libcpmt:syserror.obj
 0002:00001238       ??_C@_0P@FDINDDOK@no?5such?5device@ 0000000180043238     libcpmt:syserror.obj
 0002:00001248       ??_C@_0BK@NDOCBPGE@no?5such?5file?5or?5directory@ 0000000180043248     libcpmt:syserror.obj
 0002:00001268       ??_C@_0BA@ENLPPKBN@no?5such?5process@ 0000000180043268     libcpmt:syserror.obj
 0002:00001278       ??_C@_0BA@DOCPFFJG@not?5a?5directory@ 0000000180043278     libcpmt:syserror.obj
 0002:00001288       ??_C@_0N@POEIPGGF@not?5a?5socket@ 0000000180043288     libcpmt:syserror.obj
 0002:00001298       ??_C@_0N@LGAPMMPI@not?5a?5stream@ 0000000180043298     libcpmt:syserror.obj
 0002:000012a8       ??_C@_0O@GLMIBBEG@not?5connected@ 00000001800432a8     libcpmt:syserror.obj
 0002:000012b8       ??_C@_0BC@ENOOLCNF@not?5enough?5memory@ 00000001800432b8     libcpmt:syserror.obj
 0002:000012d0       ??_C@_0O@NHEDABJP@not?5supported@ 00000001800432d0     libcpmt:syserror.obj
 0002:000012e0       ??_C@_0BD@MOLBPMEA@operation?5canceled@ 00000001800432e0     libcpmt:syserror.obj
 0002:000012f8       ??_C@_0BG@KDKHOPCO@operation?5in?5progress@ 00000001800432f8     libcpmt:syserror.obj
 0002:00001310       ??_C@_0BI@OHIEJAAB@operation?5not?5permitted@ 0000000180043310     libcpmt:syserror.obj
 0002:00001328       ??_C@_0BI@LNEGIFLN@operation?5not?5supported@ 0000000180043328     libcpmt:syserror.obj
 0002:00001340       ??_C@_0BG@OEMDKMEE@operation?5would?5block@ 0000000180043340     libcpmt:syserror.obj
 0002:00001358       ??_C@_0L@BLPOFLNJ@owner?5dead@ 0000000180043358     libcpmt:syserror.obj
 0002:00001368       ??_C@_0BC@CIJDGCDI@permission?5denied@ 0000000180043368     libcpmt:syserror.obj
 0002:00001380       ??_C@_0P@FNPOCJBE@protocol?5error@ 0000000180043380     libcpmt:syserror.obj
 0002:00001390       ??_C@_0BH@JPPPLHJB@protocol?5not?5supported@ 0000000180043390     libcpmt:syserror.obj
 0002:000013a8       ??_C@_0BG@EICBIHDP@read?5only?5file?5system@ 00000001800433a8     libcpmt:syserror.obj
 0002:000013c0       ??_C@_0BO@BJBOMOEJ@resource?5deadlock?5would?5occur@ 00000001800433c0     libcpmt:syserror.obj
 0002:000013e0       ??_C@_0BP@LKNGHENJ@resource?5unavailable?5try?5again@ 00000001800433e0     libcpmt:syserror.obj
 0002:00001400       ??_C@_0BE@GOIPJJHG@result?5out?5of?5range@ 0000000180043400     libcpmt:syserror.obj
 0002:00001418       ??_C@_0BG@MPLKFPAE@state?5not?5recoverable@ 0000000180043418     libcpmt:syserror.obj
 0002:00001430       ??_C@_0P@DIIFGFCG@stream?5timeout@ 0000000180043430     libcpmt:syserror.obj
 0002:00001440       ??_C@_0P@IPFDMIFL@text?5file?5busy@ 0000000180043440     libcpmt:syserror.obj
 0002:00001450       ??_C@_09KJPPMAOI@timed?5out@ 0000000180043450     libcpmt:syserror.obj
 0002:00001460       ??_C@_0BO@HACHBEKI@too?5many?5files?5open?5in?5system@ 0000000180043460     libcpmt:syserror.obj
 0002:00001480       ??_C@_0BE@GHAFMPAH@too?5many?5files?5open@ 0000000180043480     libcpmt:syserror.obj
 0002:00001498       ??_C@_0P@HCOMKFCC@too?5many?5links@ 0000000180043498     libcpmt:syserror.obj
 0002:000014a8       ??_C@_0BO@EFGOJEF@too?5many?5symbolic?5link?5levels@ 00000001800434a8     libcpmt:syserror.obj
 0002:000014c8       ??_C@_0BA@KGKGOOJA@value?5too?5large@ 00000001800434c8     libcpmt:syserror.obj
 0002:000014d8       ??_C@_0BE@MIEJDDNH@wrong?5protocol?5type@ 00000001800434d8     libcpmt:syserror.obj
 0002:00001520       ??_7?$ctype@D@std@@6B@     0000000180043520     libcpmt:cout.obj
 0002:00001580       ??_7_Iostream_error_category@std@@6B@ 0000000180043580     libcpmt:cout.obj
 0002:000015b8       ??_7failure@ios_base@std@@6B@ 00000001800435b8     libcpmt:cout.obj
 0002:000015d0       ??_7ios_base@std@@6B@      00000001800435d0     libcpmt:cout.obj
 0002:000015e0       ??_7?$basic_streambuf@DU?$char_traits@D@std@@@std@@6B@ 00000001800435e0     libcpmt:cout.obj
 0002:00001660       ??_7?$basic_filebuf@DU?$char_traits@D@std@@@std@@6B@ 0000000180043660     libcpmt:cout.obj
 0002:000016e0       ??_7?$basic_ios@DU?$char_traits@D@std@@@std@@6B@ 00000001800436e0     libcpmt:cout.obj
 0002:000016f0       ??_7?$basic_ostream@DU?$char_traits@D@std@@@std@@6B@ 00000001800436f0     libcpmt:cout.obj
 0002:00001700       ??_7?$codecvt@DDU_Mbstatet@@@std@@6B@ 0000000180043700     libcpmt:cout.obj
 0002:00001750       ??_C@_1BK@MGMFAEKH@?$AAk?$AAe?$AAr?$AAn?$AAe?$AAl?$AA3?$AA2?$AA?4?$AAd?$AAl?$AAl@ 0000000180043750     libcpmt:winapisupp.obj
 0002:00001770       ??_C@_08KNHFBNJ@FlsAlloc@  0000000180043770     libcpmt:winapisupp.obj
 0002:00001780       ??_C@_07PEJMOBNF@FlsFree@  0000000180043780     libcpmt:winapisupp.obj
 0002:00001788       ??_C@_0M@GDNOONDI@FlsGetValue@ 0000000180043788     libcpmt:winapisupp.obj
 0002:00001798       ??_C@_0M@JCPCPOEF@FlsSetValue@ 0000000180043798     libcpmt:winapisupp.obj
 0002:000017a8       ??_C@_0BM@HCFOFFN@InitializeCriticalSectionEx@ 00000001800437a8     libcpmt:winapisupp.obj
 0002:000017c8       ??_C@_0BE@GPLMMCMH@InitOnceExecuteOnce@ 00000001800437c8     libcpmt:winapisupp.obj
 0002:000017e0       ??_C@_0P@DLHPPCNH@CreateEventExW@ 00000001800437e0     libcpmt:winapisupp.obj
 0002:000017f0       ??_C@_0BB@MEFPJLHN@CreateSemaphoreW@ 00000001800437f0     libcpmt:winapisupp.obj
 0002:00001808       ??_C@_0BD@KIEEOEEH@CreateSemaphoreExW@ 0000000180043808     libcpmt:winapisupp.obj
 0002:00001820       ??_C@_0BG@OGFAJCKC@CreateThreadpoolTimer@ 0000000180043820     libcpmt:winapisupp.obj
 0002:00001838       ??_C@_0BD@LPLEMMDI@SetThreadpoolTimer@ 0000000180043838     libcpmt:winapisupp.obj
 0002:00001850       ??_C@_0CA@FMNJENH@WaitForThreadpoolTimerCallbacks@ 0000000180043850     libcpmt:winapisupp.obj
 0002:00001870       ??_C@_0BF@DCFCCNOC@CloseThreadpoolTimer@ 0000000180043870     libcpmt:winapisupp.obj
 0002:00001888       ??_C@_0BF@FLABGKKM@CreateThreadpoolWait@ 0000000180043888     libcpmt:winapisupp.obj
 0002:000018a0       ??_C@_0BC@MGCOHNA@SetThreadpoolWait@ 00000001800438a0     libcpmt:winapisupp.obj
 0002:000018b8       ??_C@_0BE@OCIOMIMP@CloseThreadpoolWait@ 00000001800438b8     libcpmt:winapisupp.obj
 0002:000018d0       ??_C@_0BJ@LKGHFHBO@FlushProcessWriteBuffers@ 00000001800438d0     libcpmt:winapisupp.obj
 0002:000018f0       ??_C@_0BP@KALKKPMO@FreeLibraryWhenCallbackReturns@ 00000001800438f0     libcpmt:winapisupp.obj
 0002:00001910       ??_C@_0BK@DFNBACLA@GetCurrentProcessorNumber@ 0000000180043910     libcpmt:winapisupp.obj
 0002:00001930       ??_C@_0BE@FKKLLFLM@CreateSymbolicLinkW@ 0000000180043930     libcpmt:winapisupp.obj
 0002:00001948       ??_C@_0BE@JOGNEJCI@GetCurrentPackageId@ 0000000180043948     libcpmt:winapisupp.obj
 0002:00001960       ??_C@_0P@CDHHOHKP@GetTickCount64@ 0000000180043960     libcpmt:winapisupp.obj
 0002:00001970       ??_C@_0BN@NEEHBBPO@GetFileInformationByHandleEx@ 0000000180043970     libcpmt:winapisupp.obj
 0002:00001990       ??_C@_0BL@KBBHGKCM@SetFileInformationByHandle@ 0000000180043990     libcpmt:winapisupp.obj
 0002:000019b0       ??_C@_0BP@FPNJPEJC@GetSystemTimePreciseAsFileTime@ 00000001800439b0     libcpmt:winapisupp.obj
 0002:000019d0       ??_C@_0BM@HLJJNPAH@InitializeConditionVariable@ 00000001800439d0     libcpmt:winapisupp.obj
 0002:000019f0       ??_C@_0BG@BFNILBLN@WakeConditionVariable@ 00000001800439f0     libcpmt:winapisupp.obj
 0002:00001a08       ??_C@_0BJ@PGPPEPCC@WakeAllConditionVariable@ 0000000180043a08     libcpmt:winapisupp.obj
 0002:00001a28       ??_C@_0BJ@JEBJOJFJ@SleepConditionVariableCS@ 0000000180043a28     libcpmt:winapisupp.obj
 0002:00001a48       ??_C@_0BC@MMLHEBPB@InitializeSRWLock@ 0000000180043a48     libcpmt:winapisupp.obj
 0002:00001a60       ??_C@_0BI@OMNLIJDB@AcquireSRWLockExclusive@ 0000000180043a60     libcpmt:winapisupp.obj
 0002:00001a78       ??_C@_0BL@OGHFEMNA@TryAcquireSRWLockExclusive@ 0000000180043a78     libcpmt:winapisupp.obj
 0002:00001a98       ??_C@_0BI@HMIEPCNJ@ReleaseSRWLockExclusive@ 0000000180043a98     libcpmt:winapisupp.obj
 0002:00001ab0       ??_C@_0BK@LGACAGIC@SleepConditionVariableSRW@ 0000000180043ab0     libcpmt:winapisupp.obj
 0002:00001ad0       ??_C@_0BF@GGPHFPJA@CreateThreadpoolWork@ 0000000180043ad0     libcpmt:winapisupp.obj
 0002:00001ae8       ??_C@_0BF@NHDAIMMO@SubmitThreadpoolWork@ 0000000180043ae8     libcpmt:winapisupp.obj
 0002:00001b00       ??_C@_0BE@NPHIPNPD@CloseThreadpoolWork@ 0000000180043b00     libcpmt:winapisupp.obj
 0002:00001b18       ??_C@_0BA@IHGNDAEB@CompareStringEx@ 0000000180043b18     libcpmt:winapisupp.obj
 0002:00001b28       ??_C@_0BA@ONOKGCMP@GetLocaleInfoEx@ 0000000180043b28     libcpmt:winapisupp.obj
 0002:00001b38       ??_C@_0O@KKBNKAPF@LCMapStringEx@ 0000000180043b38     libcpmt:winapisupp.obj
 0002:00001b70       ??_C@_11LOCGONAA@@         0000000180043b70     libcpmt:wlocale.obj
 0002:00001b74       ??_C@_01JOAMLHOP@?9@       0000000180043b74     libcpmt:wlocale.obj
 0002:000038a0       ??_C@_15EMKDOKLE@?$AAa?$AAr@ 00000001800458a0     libcpmt:winapinls.obj
 0002:000038a8       ??_C@_15KNPADPLH@?$AAb?$AAg@ 00000001800458a8     libcpmt:winapinls.obj
 0002:000038b0       ??_C@_15EDMHLDMO@?$AAc?$AAa@ 00000001800458b0     libcpmt:winapinls.obj
 0002:000038b8       ??_C@_1O@BPEAJADD@?$AAz?$AAh?$AA?9?$AAC?$AAH?$AAS@ 00000001800458b8     libcpmt:winapinls.obj
 0002:000038c8       ??_C@_15LJNHCMNK@?$AAc?$AAs@ 00000001800458c8     libcpmt:winapinls.obj
 0002:000038d0       ??_C@_15FOMCIDHG@?$AAd?$AAa@ 00000001800458d0     libcpmt:winapinls.obj
 0002:000038d8       ??_C@_15NBKABECB@?$AAd?$AAe@ 00000001800458d8     libcpmt:winapinls.obj
 0002:000038e0       ??_C@_15GHPEIIAO@?$AAe?$AAl@ 00000001800458e0     libcpmt:winapinls.obj
 0002:000038e8       ??_C@_15MNPNEAIF@?$AAe?$AAn@ 00000001800458e8     libcpmt:winapinls.obj
 0002:000038f0       ??_C@_15GPIOMPMH@?$AAe?$AAs@ 00000001800458f0     libcpmt:winapinls.obj
 0002:000038f8       ??_C@_15NGLOAKJC@?$AAf?$AAi@ 00000001800458f8     libcpmt:winapinls.obj
 0002:00003900       ??_C@_15FBKGNKAM@?$AAf?$AAr@ 0000000180045900     libcpmt:winapinls.obj
 0002:00003908       ??_C@_15KGGCNEFK@?$AAh?$AAe@ 0000000180045908     libcpmt:winapinls.obj
 0002:00003910       ??_C@_15PGHLIDMF@?$AAh?$AAu@ 0000000180045910     libcpmt:winapinls.obj
 0002:00003918       ??_C@_15BIEMAPLM@?$AAi?$AAs@ 0000000180045918     libcpmt:winapinls.obj
 0002:00003920       ??_C@_15IFJLDHAF@?$AAi?$AAt@ 0000000180045920     libcpmt:winapinls.obj
 0002:00003928       ??_C@_15GEMIOCAG@?$AAj?$AAa@ 0000000180045928     libcpmt:winapinls.obj
 0002:00003930       ??_C@_15EPELEGJA@?$AAk?$AAo@ 0000000180045930     libcpmt:winapinls.obj
 0002:00003938       ??_C@_15NDDHIMN@?$AAn?$AAl@ 0000000180045938     libcpmt:winapinls.obj
 0002:00003940       ??_C@_15BPIGNHCD@?$AAn?$AAo@ 0000000180045940     libcpmt:winapinls.obj
 0002:00003948       ??_C@_15DEOPBLCG@?$AAp?$AAl@ 0000000180045948     libcpmt:winapinls.obj
 0002:00003950       ??_C@_15KBECGEFG@?$AAp?$AAt@ 0000000180045950     libcpmt:winapinls.obj
 0002:00003958       ??_C@_15GLJCBFMD@?$AAr?$AAo@ 0000000180045958     libcpmt:winapinls.obj
 0002:00003960       ??_C@_15FEDGKCDI@?$AAr?$AAu@ 0000000180045960     libcpmt:winapinls.obj
 0002:00003968       ??_C@_15GLKMLLHM@?$AAh?$AAr@ 0000000180045968     libcpmt:winapinls.obj
 0002:00003970       ??_C@_15CPKMFBDB@?$AAs?$AAk@ 0000000180045970     libcpmt:winapinls.obj
 0002:00003978       ??_C@_15BAAIOGMK@?$AAs?$AAq@ 0000000180045978     libcpmt:winapinls.obj
 0002:00003980       ??_C@_15INNPNOHD@?$AAs?$AAv@ 0000000180045980     libcpmt:winapinls.obj
 0002:00003988       ??_C@_15CABMMOGH@?$AAt?$AAh@ 0000000180045988     libcpmt:winapinls.obj
 0002:00003990       ??_C@_15BPLIHJJM@?$AAt?$AAr@ 0000000180045990     libcpmt:winapinls.obj
 0002:00003998       ??_C@_15NEOEKKDJ@?$AAu?$AAr@ 0000000180045998     libcpmt:winapinls.obj
 0002:000039a0       ??_C@_15NFICGAJK@?$AAi?$AAd@ 00000001800459a0     libcpmt:winapinls.obj
 0002:000039a8       ??_C@_15PJPFLCCM@?$AAu?$AAk@ 00000001800459a8     libcpmt:winapinls.obj
 0002:000039b0       ??_C@_15HPJPHDM@?$AAb?$AAe@ 00000001800459b0     libcpmt:winapinls.obj
 0002:000039b8       ??_C@_15LCHLGJII@?$AAs?$AAl@ 00000001800459b8     libcpmt:winapinls.obj
 0002:000039c0       ??_C@_15PCFJPHHO@?$AAe?$AAt@ 00000001800459c0     libcpmt:winapinls.obj
 0002:000039c8       ??_C@_15HPFPGODN@?$AAl?$AAv@ 00000001800459c8     libcpmt:winapinls.obj
 0002:000039d0       ??_C@_15NFFGKGLG@?$AAl?$AAt@ 00000001800459d0     libcpmt:winapinls.obj
 0002:000039d8       ??_C@_15BDAKCCHN@?$AAf?$AAa@ 00000001800459d8     libcpmt:winapinls.obj
 0002:000039e0       ??_C@_15NFGIAIAJ@?$AAv?$AAi@ 00000001800459e0     libcpmt:winapinls.obj
 0002:000039e8       ??_C@_15LMKNDMHN@?$AAh?$AAy@ 00000001800459e8     libcpmt:winapinls.obj
 0002:000039f0       ??_C@_15IJBHMCFL@?$AAa?$AAz@ 00000001800459f0     libcpmt:winapinls.obj
 0002:000039f8       ??_C@_15EKOFJABL@?$AAe?$AAu@ 00000001800459f8     libcpmt:winapinls.obj
 0002:00003a00       ??_C@_15BGHADCNK@?$AAm?$AAk@ 0000000180045a00     libcpmt:winapinls.obj
 0002:00003a08       ??_C@_15JDNICKHM@?$AAa?$AAf@ 0000000180045a08     libcpmt:winapinls.obj
 0002:00003a10       ??_C@_15KPJEDBKD@?$AAk?$AAa@ 0000000180045a10     libcpmt:winapinls.obj
 0002:00003a18       ??_C@_15PDNFFFEO@?$AAf?$AAo@ 0000000180045a18     libcpmt:winapinls.obj
 0002:00003a20       ??_C@_15OMLEGLOC@?$AAh?$AAi@ 0000000180045a20     libcpmt:winapinls.obj
 0002:00003a28       ??_C@_15IDNNENKK@?$AAm?$AAs@ 0000000180045a28     libcpmt:winapinls.obj
 0002:00003a30       ??_C@_15MACJNBMH@?$AAk?$AAk@ 0000000180045a30     libcpmt:winapinls.obj
 0002:00003a38       ??_C@_15DKDJEOND@?$AAk?$AAy@ 0000000180045a38     libcpmt:winapinls.obj
 0002:00003a40       ??_C@_15DFGDLJBG@?$AAs?$AAw@ 0000000180045a40     libcpmt:winapinls.obj
 0002:00003a48       ??_C@_15BBFAICNG@?$AAu?$AAz@ 0000000180045a48     libcpmt:winapinls.obj
 0002:00003a50       ??_C@_15DKNDCGEA@?$AAt?$AAt@ 0000000180045a50     libcpmt:winapinls.obj
 0002:00003a58       ??_C@_15MGIFMDPL@?$AAp?$AAa@ 0000000180045a58     libcpmt:winapinls.obj
 0002:00003a60       ??_C@_15HCNDBBA@?$AAg?$AAu@ 0000000180045a60     libcpmt:winapinls.obj
 0002:00003a68       ??_C@_15FNBEIBON@?$AAt?$AAa@ 0000000180045a68     libcpmt:winapinls.obj
 0002:00003a70       ??_C@_15NCHGBGLK@?$AAt?$AAe@ 0000000180045a70     libcpmt:winapinls.obj
 0002:00003a78       ??_C@_15PHPHCBPF@?$AAk?$AAn@ 0000000180045a78     libcpmt:winapinls.obj
 0002:00003a80       ??_C@_15DLGBCKMP@?$AAm?$AAr@ 0000000180045a80     libcpmt:winapinls.obj
 0002:00003a88       ??_C@_15EABBLBFF@?$AAs?$AAa@ 0000000180045a88     libcpmt:winapinls.obj
 0002:00003a90       ??_C@_15CBKOMCOI@?$AAm?$AAn@ 0000000180045a90     libcpmt:winapinls.obj
 0002:00003a98       ??_C@_15CKDMCJAF@?$AAg?$AAl@ 0000000180045a98     libcpmt:winapinls.obj
 0002:00003aa0       ??_C@_17CNJFBPG@?$AAk?$AAo?$AAk@ 0000000180045aa0     libcpmt:winapinls.obj
 0002:00003aa8       ??_C@_17FFBJICPL@?$AAs?$AAy?$AAr@ 0000000180045aa8     libcpmt:winapinls.obj
 0002:00003ab0       ??_C@_17KPNDCPAF@?$AAd?$AAi?$AAv@ 0000000180045ab0     libcpmt:winapinls.obj
 0002:00003ab8       ??_C@_1M@OKAHONE@?$AAa?$AAr?$AA?9?$AAS?$AAA@ 0000000180045ab8     libcpmt:winapinls.obj
 0002:00003ac8       ??_C@_1M@FFFIGIGK@?$AAb?$AAg?$AA?9?$AAB?$AAG@ 0000000180045ac8     libcpmt:winapinls.obj
 0002:00003ad8       ??_C@_1M@BJNKEDC@?$AAc?$AAa?$AA?9?$AAE?$AAS@ 0000000180045ad8     libcpmt:winapinls.obj
 0002:00003ae8       ??_C@_1M@CLNBBOPM@?$AAz?$AAh?$AA?9?$AAT?$AAW@ 0000000180045ae8     libcpmt:winapinls.obj
 0002:00003af8       ??_C@_1M@IJJHFJHA@?$AAc?$AAs?$AA?9?$AAC?$AAZ@ 0000000180045af8     libcpmt:winapinls.obj
 0002:00003b08       ??_C@_1M@CLPEOBGI@?$AAd?$AAa?$AA?9?$AAD?$AAK@ 0000000180045b08     libcpmt:winapinls.obj
 0002:00003b18       ??_C@_1M@MCMADGCB@?$AAd?$AAe?$AA?9?$AAD?$AAE@ 0000000180045b18     libcpmt:winapinls.obj
 0002:00003b28       ??_C@_1M@OOCKEMAM@?$AAe?$AAl?$AA?9?$AAG?$AAR@ 0000000180045b28     libcpmt:winapinls.obj
 0002:00003b38       ??_C@_1M@BMHNFIME@?$AAe?$AAn?$AA?9?$AAU?$AAS@ 0000000180045b38     libcpmt:winapinls.obj
 0002:00003b48       ??_C@_1M@DDNJFGID@?$AAf?$AAi?$AA?9?$AAF?$AAI@ 0000000180045b48     libcpmt:winapinls.obj
 0002:00003b58       ??_C@_1M@GLIPPMAC@?$AAf?$AAr?$AA?9?$AAF?$AAR@ 0000000180045b58     libcpmt:winapinls.obj
 0002:00003b68       ??_C@_1M@GFMCHPE@?$AAh?$AAe?$AA?9?$AAI?$AAL@ 0000000180045b68     libcpmt:winapinls.obj
 0002:00003b78       ??_C@_1M@MHLPGNKM@?$AAh?$AAu?$AA?9?$AAH?$AAU@ 0000000180045b78     libcpmt:winapinls.obj
 0002:00003b88       ??_C@_1M@LPDDNNPN@?$AAi?$AAs?$AA?9?$AAI?$AAS@ 0000000180045b88     libcpmt:winapinls.obj
 0002:00003b98       ??_C@_1M@MADIPODN@?$AAi?$AAt?$AA?9?$AAI?$AAT@ 0000000180045b98     libcpmt:winapinls.obj
 0002:00003ba8       ??_C@_1M@HPNHIDJI@?$AAj?$AAa?$AA?9?$AAJ?$AAP@ 0000000180045ba8     libcpmt:winapinls.obj
 0002:00003bb8       ??_C@_1M@JLOOOEGK@?$AAk?$AAo?$AA?9?$AAK?$AAR@ 0000000180045bb8     libcpmt:winapinls.obj
 0002:00003bc8       ??_C@_1M@IHBJJGG@?$AAn?$AAl?$AA?9?$AAN?$AAL@ 0000000180045bc8     libcpmt:winapinls.obj
 0002:00003bd8       ??_C@_1M@EANAGDL@?$AAn?$AAb?$AA?9?$AAN?$AAO@ 0000000180045bd8     libcpmt:winapinls.obj
 0002:00003be8       ??_C@_1M@NEIEMEGP@?$AAp?$AAl?$AA?9?$AAP?$AAL@ 0000000180045be8     libcpmt:winapinls.obj
 0002:00003bf8       ??_C@_1M@BOCFIGEP@?$AAp?$AAt?$AA?9?$AAB?$AAR@ 0000000180045bf8     libcpmt:winapinls.obj
 0002:00003c08       ??_C@_1M@IMPFOPBG@?$AAr?$AAo?$AA?9?$AAR?$AAO@ 0000000180045c08     libcpmt:winapinls.obj
 0002:00003c18       ??_C@_1M@IDNNEJMM@?$AAr?$AAu?$AA?9?$AAR?$AAU@ 0000000180045c18     libcpmt:winapinls.obj
 0002:00003c28       ??_C@_1M@LILEEOGM@?$AAh?$AAr?$AA?9?$AAH?$AAR@ 0000000180045c28     libcpmt:winapinls.obj
 0002:00003c38       ??_C@_1M@FKIFEHPB@?$AAs?$AAk?$AA?9?$AAS?$AAK@ 0000000180045c38     libcpmt:winapinls.obj
 0002:00003c48       ??_C@_1M@LJMAMNPJ@?$AAs?$AAq?$AA?9?$AAA?$AAL@ 0000000180045c48     libcpmt:winapinls.obj
 0002:00003c58       ??_C@_1M@GIAKDKJK@?$AAs?$AAv?$AA?9?$AAS?$AAE@ 0000000180045c58     libcpmt:winapinls.obj
 0002:00003c68       ??_C@_1M@MKJKIKCL@?$AAt?$AAh?$AA?9?$AAT?$AAH@ 0000000180045c68     libcpmt:winapinls.obj
 0002:00003c78       ??_C@_1M@MFLCCMPB@?$AAt?$AAr?$AA?9?$AAT?$AAR@ 0000000180045c78     libcpmt:winapinls.obj
 0002:00003c88       ??_C@_1M@OIJHDKJN@?$AAu?$AAr?$AA?9?$AAP?$AAK@ 0000000180045c88     libcpmt:winapinls.obj
 0002:00003c98       ??_C@_1M@LHIPCIEK@?$AAi?$AAd?$AA?9?$AAI?$AAD@ 0000000180045c98     libcpmt:winapinls.obj
 0002:00003ca8       ??_C@_1M@MFMOBGI@?$AAu?$AAk?$AA?9?$AAU?$AAA@ 0000000180045ca8     libcpmt:winapinls.obj
 0002:00003cb8       ??_C@_1M@OBGLJIPL@?$AAb?$AAe?$AA?9?$AAB?$AAY@ 0000000180045cb8     libcpmt:winapinls.obj
 0002:00003cc8       ??_C@_1M@BCFAJEAD@?$AAs?$AAl?$AA?9?$AAS?$AAI@ 0000000180045cc8     libcpmt:winapinls.obj
 0002:00003cd8       ??_C@_1M@FKFFEDDN@?$AAe?$AAt?$AA?9?$AAE?$AAE@ 0000000180045cd8     libcpmt:winapinls.obj
 0002:00003ce8       ??_C@_1M@KGKKAACI@?$AAl?$AAv?$AA?9?$AAL?$AAV@ 0000000180045ce8     libcpmt:winapinls.obj
 0002:00003cf8       ??_C@_1M@IFGBIJO@?$AAl?$AAt?$AA?9?$AAL?$AAT@ 0000000180045cf8     libcpmt:winapinls.obj
 0002:00003d08       ??_C@_1M@FGEAHEDM@?$AAf?$AAa?$AA?9?$AAI?$AAR@ 0000000180045d08     libcpmt:winapinls.obj
 0002:00003d18       ??_C@_1M@KBMAIBFN@?$AAv?$AAi?$AA?9?$AAV?$AAN@ 0000000180045d18     libcpmt:winapinls.obj
 0002:00003d28       ??_C@_1M@GPCBKDJK@?$AAh?$AAy?$AA?9?$AAA?$AAM@ 0000000180045d28     libcpmt:winapinls.obj
 0002:00003d38       ??_C@_1BG@BECMDDJB@?$AAa?$AAz?$AA?9?$AAA?$AAZ?$AA?9?$AAL?$AAa?$AAt?$AAn@ 0000000180045d38     libcpmt:winapinls.obj
 0002:00003d50       ??_C@_1M@MAOFCAEA@?$AAe?$AAu?$AA?9?$AAE?$AAS@ 0000000180045d50     libcpmt:winapinls.obj
 0002:00003d60       ??_C@_1M@IGHABKPI@?$AAm?$AAk?$AA?9?$AAM?$AAK@ 0000000180045d60     libcpmt:winapinls.obj
 0002:00003d70       ??_C@_1M@IAIGNEJG@?$AAt?$AAn?$AA?9?$AAZ?$AAA@ 0000000180045d70     libcpmt:winapinls.obj
 0002:00003d80       ??_C@_1M@IIJCOJFA@?$AAx?$AAh?$AA?9?$AAZ?$AAA@ 0000000180045d80     libcpmt:winapinls.obj
 0002:00003d90       ??_C@_1M@LGPJHNJH@?$AAz?$AAu?$AA?9?$AAZ?$AAA@ 0000000180045d90     libcpmt:winapinls.obj
 0002:00003da0       ??_C@_1M@HOKAOIO@?$AAa?$AAf?$AA?9?$AAZ?$AAA@ 0000000180045da0     libcpmt:winapinls.obj
 0002:00003db0       ??_C@_1M@DPCLHLIE@?$AAk?$AAa?$AA?9?$AAG?$AAE@ 0000000180045db0     libcpmt:winapinls.obj
 0002:00003dc0       ??_C@_1M@BLKMHJBI@?$AAf?$AAo?$AA?9?$AAF?$AAO@ 0000000180045dc0     libcpmt:winapinls.obj
 0002:00003dd0       ??_C@_1M@LGGJAPPB@?$AAh?$AAi?$AA?9?$AAI?$AAN@ 0000000180045dd0     libcpmt:winapinls.obj
 0002:00003de0       ??_C@_1M@FIKPIHFE@?$AAm?$AAt?$AA?9?$AAM?$AAT@ 0000000180045de0     libcpmt:winapinls.obj
 0002:00003df0       ??_C@_1M@HEGGPBFA@?$AAs?$AAe?$AA?9?$AAN?$AAO@ 0000000180045df0     libcpmt:winapinls.obj
 0002:00003e00       ??_C@_1M@EIBJEEPA@?$AAm?$AAs?$AA?9?$AAM?$AAY@ 0000000180045e00     libcpmt:winapinls.obj
 0002:00003e10       ??_C@_1M@FHLBGMPP@?$AAk?$AAk?$AA?9?$AAK?$AAZ@ 0000000180045e10     libcpmt:winapinls.obj
 0002:00003e20       ??_C@_1M@NGJJLCGI@?$AAk?$AAy?$AA?9?$AAK?$AAG@ 0000000180045e20     libcpmt:winapinls.obj
 0002:00003e30       ??_C@_1M@GIENNBFC@?$AAs?$AAw?$AA?9?$AAK?$AAE@ 0000000180045e30     libcpmt:winapinls.obj
 0002:00003e40       ??_C@_1BG@NDGMJIMJ@?$AAu?$AAz?$AA?9?$AAU?$AAZ?$AA?9?$AAL?$AAa?$AAt?$AAn@ 0000000180045e40     libcpmt:winapinls.obj
 0002:00003e58       ??_C@_1M@IDCCIHBC@?$AAt?$AAt?$AA?9?$AAR?$AAU@ 0000000180045e58     libcpmt:winapinls.obj
 0002:00003e68       ??_C@_1M@LOICPMOJ@?$AAb?$AAn?$AA?9?$AAI?$AAN@ 0000000180045e68     libcpmt:winapinls.obj
 0002:00003e78       ??_C@_1M@KPKKNEAH@?$AAp?$AAa?$AA?9?$AAI?$AAN@ 0000000180045e78     libcpmt:winapinls.obj
 0002:00003e88       ??_C@_1M@PJGPPBOG@?$AAg?$AAu?$AA?9?$AAI?$AAN@ 0000000180045e88     libcpmt:winapinls.obj
 0002:00003e98       ??_C@_1M@KMKMOPHI@?$AAt?$AAa?$AA?9?$AAI?$AAN@ 0000000180045e98     libcpmt:winapinls.obj
 0002:00003ea8       ??_C@_1M@KFEHEPAC@?$AAt?$AAe?$AA?9?$AAI?$AAN@ 0000000180045ea8     libcpmt:winapinls.obj
 0002:00003eb8       ??_C@_1M@CDCLMGHI@?$AAk?$AAn?$AA?9?$AAI?$AAN@ 0000000180045eb8     libcpmt:winapinls.obj
 0002:00003ec8       ??_C@_1M@MIODLDKF@?$AAm?$AAl?$AA?9?$AAI?$AAN@ 0000000180045ec8     libcpmt:winapinls.obj
 0002:00003ed8       ??_C@_1M@PBIEACPO@?$AAm?$AAr?$AA?9?$AAI?$AAN@ 0000000180045ed8     libcpmt:winapinls.obj
 0002:00003ee8       ??_C@_1M@NIDEAGPH@?$AAs?$AAa?$AA?9?$AAI?$AAN@ 0000000180045ee8     libcpmt:winapinls.obj
 0002:00003ef8       ??_C@_1M@FHIHCBIO@?$AAm?$AAn?$AA?9?$AAM?$AAN@ 0000000180045ef8     libcpmt:winapinls.obj
 0002:00003f08       ??_C@_1M@JAIJPENP@?$AAc?$AAy?$AA?9?$AAG?$AAB@ 0000000180045f08     libcpmt:winapinls.obj
 0002:00003f18       ??_C@_1M@PHGFBEPN@?$AAg?$AAl?$AA?9?$AAE?$AAS@ 0000000180045f18     libcpmt:winapinls.obj
 0002:00003f28       ??_C@_1O@KPIPDNCP@?$AAk?$AAo?$AAk?$AA?9?$AAI?$AAN@ 0000000180045f28     libcpmt:winapinls.obj
 0002:00003f38       ??_C@_1O@KNHJLDJA@?$AAs?$AAy?$AAr?$AA?9?$AAS?$AAY@ 0000000180045f38     libcpmt:winapinls.obj
 0002:00003f48       ??_C@_1O@MKEKBLAH@?$AAd?$AAi?$AAv?$AA?9?$AAM?$AAV@ 0000000180045f48     libcpmt:winapinls.obj
 0002:00003f58       ??_C@_1O@OHDCKDDF@?$AAq?$AAu?$AAz?$AA?9?$AAB?$AAO@ 0000000180045f58     libcpmt:winapinls.obj
 0002:00003f68       ??_C@_1M@LEPJNLFD@?$AAn?$AAs?$AA?9?$AAZ?$AAA@ 0000000180045f68     libcpmt:winapinls.obj
 0002:00003f78       ??_C@_1M@OMLEIIJB@?$AAm?$AAi?$AA?9?$AAN?$AAZ@ 0000000180045f78     libcpmt:winapinls.obj
 0002:00003f88       ??_C@_1M@PMPEAILG@?$AAa?$AAr?$AA?9?$AAI?$AAQ@ 0000000180045f88     libcpmt:winapinls.obj
 0002:00003f98       ??_C@_1M@BIBDDEMK@?$AAz?$AAh?$AA?9?$AAC?$AAN@ 0000000180045f98     libcpmt:winapinls.obj
 0002:00003fa8       ??_C@_1M@CNKPNOEE@?$AAd?$AAe?$AA?9?$AAC?$AAH@ 0000000180045fa8     libcpmt:winapinls.obj
 0002:00003fb8       ??_C@_1M@LKMGMLKO@?$AAe?$AAn?$AA?9?$AAG?$AAB@ 0000000180045fb8     libcpmt:winapinls.obj
 0002:00003fc8       ??_C@_1M@PGKJFFGL@?$AAe?$AAs?$AA?9?$AAM?$AAX@ 0000000180045fc8     libcpmt:winapinls.obj
 0002:00003fd8       ??_C@_1M@DNNANBDC@?$AAf?$AAr?$AA?9?$AAB?$AAE@ 0000000180045fd8     libcpmt:winapinls.obj
 0002:00003fe8       ??_C@_1M@HLGMDFHM@?$AAi?$AAt?$AA?9?$AAC?$AAH@ 0000000180045fe8     libcpmt:winapinls.obj
 0002:00003ff8       ??_C@_1M@CLLBGJH@?$AAn?$AAl?$AA?9?$AAB?$AAE@ 0000000180045ff8     libcpmt:winapinls.obj
 0002:00004008       ??_C@_1M@BODBOGLF@?$AAn?$AAn?$AA?9?$AAN?$AAO@ 0000000180046008     libcpmt:winapinls.obj
 0002:00004018       ??_C@_1M@HFFAHKAD@?$AAp?$AAt?$AA?9?$AAP?$AAT@ 0000000180046018     libcpmt:winapinls.obj
 0002:00004028       ??_C@_1BG@LNOAKHIE@?$AAs?$AAr?$AA?9?$AAS?$AAP?$AA?9?$AAL?$AAa?$AAt?$AAn@ 0000000180046028     libcpmt:winapinls.obj
 0002:00004040       ??_C@_1M@HBMHBGAK@?$AAs?$AAv?$AA?9?$AAF?$AAI@ 0000000180046040     libcpmt:winapinls.obj
 0002:00004050       ??_C@_1BG@DGCJGJBE@?$AAa?$AAz?$AA?9?$AAA?$AAZ?$AA?9?$AAC?$AAy?$AAr?$AAl@ 0000000180046050     libcpmt:winapinls.obj
 0002:00004068       ??_C@_1M@KEJDAAHB@?$AAs?$AAe?$AA?9?$AAS?$AAE@ 0000000180046068     libcpmt:winapinls.obj
 0002:00004078       ??_C@_1M@HEIBJJAD@?$AAm?$AAs?$AA?9?$AAB?$AAN@ 0000000180046078     libcpmt:winapinls.obj
 0002:00004088       ??_C@_1BG@PBGJMCEM@?$AAu?$AAz?$AA?9?$AAU?$AAZ?$AA?9?$AAC?$AAy?$AAr?$AAl@ 0000000180046088     libcpmt:winapinls.obj
 0002:000040a0       ??_C@_1O@LAOBCMDF@?$AAq?$AAu?$AAz?$AA?9?$AAE?$AAC@ 00000001800460a0     libcpmt:winapinls.obj
 0002:000040b0       ??_C@_1M@POEEMAIO@?$AAa?$AAr?$AA?9?$AAE?$AAG@ 00000001800460b0     libcpmt:winapinls.obj
 0002:000040c0       ??_C@_1M@EFAKDEDL@?$AAz?$AAh?$AA?9?$AAH?$AAK@ 00000001800460c0     libcpmt:winapinls.obj
 0002:000040d0       ??_C@_1M@HKKIJHGI@?$AAd?$AAe?$AA?9?$AAA?$AAT@ 00000001800460d0     libcpmt:winapinls.obj
 0002:000040e0       ??_C@_1M@KBFBEHJF@?$AAe?$AAn?$AA?9?$AAA?$AAU@ 00000001800460e0     libcpmt:winapinls.obj
 0002:000040f0       ??_C@_1M@MNPLFAAH@?$AAe?$AAs?$AA?9?$AAE?$AAS@ 00000001800460f0     libcpmt:winapinls.obj
 0002:00004100       ??_C@_1M@HJOOJFMA@?$AAf?$AAr?$AA?9?$AAC?$AAA@ 0000000180046100     libcpmt:winapinls.obj
 0002:00004110       ??_C@_1BG@JPOFPNAB@?$AAs?$AAr?$AA?9?$AAS?$AAP?$AA?9?$AAC?$AAy?$AAr?$AAl@ 0000000180046110     libcpmt:winapinls.obj
 0002:00004128       ??_C@_1M@LNFOCMOB@?$AAs?$AAe?$AA?9?$AAF?$AAI@ 0000000180046128     libcpmt:winapinls.obj
 0002:00004138       ??_C@_1O@MGJBOAMB@?$AAq?$AAu?$AAz?$AA?9?$AAP?$AAE@ 0000000180046138     libcpmt:winapinls.obj
 0002:00004148       ??_C@_1M@GJINLBOK@?$AAa?$AAr?$AA?9?$AAL?$AAY@ 0000000180046148     libcpmt:winapinls.obj
 0002:00004158       ??_C@_1M@GGMNHJNL@?$AAz?$AAh?$AA?9?$AAS?$AAG@ 0000000180046158     libcpmt:winapinls.obj
 0002:00004168       ??_C@_1M@HOIKODND@?$AAd?$AAe?$AA?9?$AAL?$AAU@ 0000000180046168     libcpmt:winapinls.obj
 0002:00004178       ??_C@_1M@DDOCCGFG@?$AAe?$AAn?$AA?9?$AAC?$AAA@ 0000000180046178     libcpmt:winapinls.obj
 0002:00004188       ??_C@_1M@BNOEMJLF@?$AAe?$AAs?$AA?9?$AAG?$AAT@ 0000000180046188     libcpmt:winapinls.obj
 0002:00004198       ??_C@_1M@EOGNKEK@?$AAf?$AAr?$AA?9?$AAC?$AAH@ 0000000180046198     libcpmt:winapinls.obj
 0002:000041a8       ??_C@_1M@FLIDJFHL@?$AAh?$AAr?$AA?9?$AAB?$AAA@ 00000001800461a8     libcpmt:winapinls.obj
 0002:000041b8       ??_C@_1O@FMCELNAJ@?$AAs?$AAm?$AAj?$AA?9?$AAN?$AAO@ 00000001800461b8     libcpmt:winapinls.obj
 0002:000041c8       ??_C@_1M@JHGLJMGJ@?$AAa?$AAr?$AA?9?$AAD?$AAZ@ 00000001800461c8     libcpmt:winapinls.obj
 0002:000041d8       ??_C@_1M@JKKFDCNP@?$AAz?$AAh?$AA?9?$AAM?$AAO@ 00000001800461d8     libcpmt:winapinls.obj
 0002:000041e8       ??_C@_1M@GEEFALPE@?$AAd?$AAe?$AA?9?$AAL?$AAI@ 00000001800461e8     libcpmt:winapinls.obj
 0002:000041f8       ??_C@_1M@IGEOFBG@?$AAe?$AAn?$AA?9?$AAN?$AAZ@ 00000001800461f8     libcpmt:winapinls.obj
 0002:00004208       ??_C@_1M@KDBONEHP@?$AAe?$AAs?$AA?9?$AAC?$AAR@ 0000000180046208     libcpmt:winapinls.obj
 0002:00004218       ??_C@_1M@FHMDOHNN@?$AAf?$AAr?$AA?9?$AAL?$AAU@ 0000000180046218     libcpmt:winapinls.obj
 0002:00004228       ??_C@_1BG@NFKKMAFG@?$AAb?$AAs?$AA?9?$AAB?$AAA?$AA?9?$AAL?$AAa?$AAt?$AAn@ 0000000180046228     libcpmt:winapinls.obj
 0002:00004240       ??_C@_1O@IMNBEMCI@?$AAs?$AAm?$AAj?$AA?9?$AAS?$AAE@ 0000000180046240     libcpmt:winapinls.obj
 0002:00004250       ??_C@_1M@DHHMBNDP@?$AAa?$AAr?$AA?9?$AAM?$AAA@ 0000000180046250     libcpmt:winapinls.obj
 0002:00004260       ??_C@_1M@BNBLJCGH@?$AAe?$AAn?$AA?9?$AAI?$AAE@ 0000000180046260     libcpmt:winapinls.obj
 0002:00004270       ??_C@_1M@GEPAFMDL@?$AAe?$AAs?$AA?9?$AAP?$AAA@ 0000000180046270     libcpmt:winapinls.obj
 0002:00004280       ??_C@_1M@OJONDMDL@?$AAf?$AAr?$AA?9?$AAM?$AAC@ 0000000180046280     libcpmt:winapinls.obj
 0002:00004290       ??_C@_1BG@OBCNFJB@?$AAs?$AAr?$AA?9?$AAB?$AAA?$AA?9?$AAL?$AAa?$AAt?$AAn@ 0000000180046290     libcpmt:winapinls.obj
 0002:000042a8       ??_C@_1O@KEMEEGPO@?$AAs?$AAm?$AAa?$AA?9?$AAN?$AAO@ 00000001800462a8     libcpmt:winapinls.obj
 0002:000042b8       ??_C@_1M@ELMGFODK@?$AAa?$AAr?$AA?9?$AAT?$AAN@ 00000001800462b8     libcpmt:winapinls.obj
 0002:000042c8       ??_C@_1M@BHDLHFAF@?$AAe?$AAn?$AA?9?$AAZ?$AAA@ 00000001800462c8     libcpmt:winapinls.obj
 0002:000042d8       ??_C@_1M@BMGIGLIF@?$AAe?$AAs?$AA?9?$AAD?$AAO@ 00000001800462d8     libcpmt:winapinls.obj
 0002:000042e8       ??_C@_1BG@CMBHIPBE@?$AAs?$AAr?$AA?9?$AAB?$AAA?$AA?9?$AAC?$AAy?$AAr?$AAl@ 00000001800462e8     libcpmt:winapinls.obj
 0002:00004300       ??_C@_1O@HEDBLHNP@?$AAs?$AAm?$AAa?$AA?9?$AAS?$AAE@ 0000000180046300     libcpmt:winapinls.obj
 0002:00004310       ??_C@_1M@DAGCADIM@?$AAa?$AAr?$AA?9?$AAO?$AAM@ 0000000180046310     libcpmt:winapinls.obj
 0002:00004320       ??_C@_1M@FODLMICG@?$AAe?$AAn?$AA?9?$AAJ?$AAM@ 0000000180046320     libcpmt:winapinls.obj
 0002:00004330       ??_C@_1M@DNMLCIHB@?$AAe?$AAs?$AA?9?$AAV?$AAE@ 0000000180046330     libcpmt:winapinls.obj
 0002:00004340       ??_C@_1O@EOKHMKJK@?$AAs?$AAm?$AAs?$AA?9?$AAF?$AAI@ 0000000180046340     libcpmt:winapinls.obj
 0002:00004350       ??_C@_1M@CAFJMKOF@?$AAa?$AAr?$AA?9?$AAY?$AAE@ 0000000180046350     libcpmt:winapinls.obj
 0002:00004360       ??_C@_1M@CBFHIJLI@?$AAe?$AAn?$AA?9?$AAC?$AAB@ 0000000180046360     libcpmt:winapinls.obj
 0002:00004370       ??_C@_1M@BGNFLDN@?$AAe?$AAs?$AA?9?$AAC?$AAO@ 0000000180046370     libcpmt:winapinls.obj
 0002:00004380       ??_C@_1O@JMPHMAMC@?$AAs?$AAm?$AAn?$AA?9?$AAF?$AAI@ 0000000180046380     libcpmt:winapinls.obj
 0002:00004390       ??_C@_1M@JLANABKE@?$AAa?$AAr?$AA?9?$AAS?$AAY@ 0000000180046390     libcpmt:winapinls.obj
 0002:000043a0       ??_C@_1M@HPKGCFGN@?$AAe?$AAn?$AA?9?$AAB?$AAZ@ 00000001800463a0     libcpmt:winapinls.obj
 0002:000043b0       ??_C@_1M@OLJCMLGM@?$AAe?$AAs?$AA?9?$AAP?$AAE@ 00000001800463b0     libcpmt:winapinls.obj
 0002:000043c0       ??_C@_1M@MKKGFKLE@?$AAa?$AAr?$AA?9?$AAJ?$AAO@ 00000001800463c0     libcpmt:winapinls.obj
 0002:000043d0       ??_C@_1M@EKPGLDNI@?$AAe?$AAn?$AA?9?$AAT?$AAT@ 00000001800463d0     libcpmt:winapinls.obj
 0002:000043e0       ??_C@_1M@OONGHFHE@?$AAe?$AAs?$AA?9?$AAA?$AAR@ 00000001800463e0     libcpmt:winapinls.obj
 0002:000043f0       ??_C@_1M@OOJFGBHE@?$AAa?$AAr?$AA?9?$AAL?$AAB@ 00000001800463f0     libcpmt:winapinls.obj
 0002:00004400       ??_C@_1M@GCEJHNEG@?$AAe?$AAn?$AA?9?$AAZ?$AAW@ 0000000180046400     libcpmt:winapinls.obj
 0002:00004410       ??_C@_1M@JNOCAHJI@?$AAe?$AAs?$AA?9?$AAE?$AAC@ 0000000180046410     libcpmt:winapinls.obj
 0002:00004420       ??_C@_1M@JEFHPGGB@?$AAa?$AAr?$AA?9?$AAK?$AAW@ 0000000180046420     libcpmt:winapinls.obj
 0002:00004430       ??_C@_1M@MLKIBJOJ@?$AAe?$AAn?$AA?9?$AAP?$AAH@ 0000000180046430     libcpmt:winapinls.obj
 0002:00004440       ??_C@_1M@BDNIPEND@?$AAe?$AAs?$AA?9?$AAC?$AAL@ 0000000180046440     libcpmt:winapinls.obj
 0002:00004450       ??_C@_1M@MPNMEKBD@?$AAa?$AAr?$AA?9?$AAA?$AAE@ 0000000180046450     libcpmt:winapinls.obj
 0002:00004460       ??_C@_1M@KBJALCPI@?$AAe?$AAs?$AA?9?$AAU?$AAY@ 0000000180046460     libcpmt:winapinls.obj
 0002:00004470       ??_C@_1M@LLCCOAGA@?$AAa?$AAr?$AA?9?$AAB?$AAH@ 0000000180046470     libcpmt:winapinls.obj
 0002:00004480       ??_C@_1M@PBFNCDEL@?$AAe?$AAs?$AA?9?$AAP?$AAY@ 0000000180046480     libcpmt:winapinls.obj
 0002:00004490       ??_C@_1M@EDGINPNP@?$AAa?$AAr?$AA?9?$AAQ?$AAA@ 0000000180046490     libcpmt:winapinls.obj
 0002:000044a0       ??_C@_1M@MKDBIIJI@?$AAe?$AAs?$AA?9?$AAB?$AAO@ 00000001800464a0     libcpmt:winapinls.obj
 0002:000044b0       ??_C@_1M@CPKKEBLD@?$AAe?$AAs?$AA?9?$AAS?$AAV@ 00000001800464b0     libcpmt:winapinls.obj
 0002:000044c0       ??_C@_1M@NDBGMMJL@?$AAe?$AAs?$AA?9?$AAH?$AAN@ 00000001800464c0     libcpmt:winapinls.obj
 0002:000044d0       ??_C@_1M@JIJIBHDP@?$AAe?$AAs?$AA?9?$AAN?$AAI@ 00000001800464d0     libcpmt:winapinls.obj
 0002:000044e0       ??_C@_1M@CGFMKEEK@?$AAe?$AAs?$AA?9?$AAP?$AAR@ 00000001800464e0     libcpmt:winapinls.obj
 0002:000044f0       ??_C@_1O@ICJHKIIK@?$AAz?$AAh?$AA?9?$AAC?$AAH?$AAT@ 00000001800464f0     libcpmt:winapinls.obj
 0002:00004500       ??_C@_15CLNEJCE@?$AAs?$AAr@ 0000000180046500     libcpmt:winapinls.obj
 0002:00004508       ??_C@_1M@KAHEKEIG@?$AAa?$AAf?$AA?9?$AAz?$AAa@ 0000000180046508     libcpmt:winapinls.obj
 0002:00004518       ??_C@_1M@GIECOABL@?$AAa?$AAr?$AA?9?$AAa?$AAe@ 0000000180046518     libcpmt:winapinls.obj
 0002:00004528       ??_C@_1M@BMLMEKGI@?$AAa?$AAr?$AA?9?$AAb?$AAh@ 0000000180046528     libcpmt:winapinls.obj
 0002:00004538       ??_C@_1M@DAPFDGGB@?$AAa?$AAr?$AA?9?$AAd?$AAz@ 0000000180046538     libcpmt:winapinls.obj
 0002:00004548       ??_C@_1M@FJNKGKIG@?$AAa?$AAr?$AA?9?$AAe?$AAg@ 0000000180046548     libcpmt:winapinls.obj
 0002:00004558       ??_C@_1M@FLGKKCLO@?$AAa?$AAr?$AA?9?$AAi?$AAq@ 0000000180046558     libcpmt:winapinls.obj
 0002:00004568       ??_C@_1M@GNDIPALM@?$AAa?$AAr?$AA?9?$AAj?$AAo@ 0000000180046568     libcpmt:winapinls.obj
 0002:00004578       ??_C@_1M@DDMJFMGJ@?$AAa?$AAr?$AA?9?$AAk?$AAw@ 0000000180046578     libcpmt:winapinls.obj
 0002:00004588       ??_C@_1M@EJALMLHM@?$AAa?$AAr?$AA?9?$AAl?$AAb@ 0000000180046588     libcpmt:winapinls.obj
 0002:00004598       ??_C@_1M@MOBDBLOC@?$AAa?$AAr?$AA?9?$AAl?$AAy@ 0000000180046598     libcpmt:winapinls.obj
 0002:000045a8       ??_C@_1M@JAOCLHDH@?$AAa?$AAr?$AA?9?$AAm?$AAa@ 00000001800465a8     libcpmt:winapinls.obj
 0002:000045b8       ??_C@_1M@JHPMKJIE@?$AAa?$AAr?$AA?9?$AAo?$AAm@ 00000001800465b8     libcpmt:winapinls.obj
 0002:000045c8       ??_C@_1M@OEPGHFNH@?$AAa?$AAr?$AA?9?$AAq?$AAa@ 00000001800465c8     libcpmt:winapinls.obj
 0002:000045d8       ??_C@_1M@KJDONENM@?$AAa?$AAr?$AA?9?$AAs?$AAa@ 00000001800465d8     libcpmt:winapinls.obj
 0002:000045e8       ??_C@_1M@DMJDKLKM@?$AAa?$AAr?$AA?9?$AAs?$AAy@ 00000001800465e8     libcpmt:winapinls.obj
 0002:000045f8       ??_C@_1M@OMFIPEDC@?$AAa?$AAr?$AA?9?$AAt?$AAn@ 00000001800465f8     libcpmt:winapinls.obj
 0002:00004608       ??_C@_1M@IHMHGAON@?$AAa?$AAr?$AA?9?$AAy?$AAe@ 0000000180046608     libcpmt:winapinls.obj
 0002:00004618       ??_C@_1BG@KDCPGJGB@?$AAa?$AAz?$AA?9?$AAa?$AAz?$AA?9?$AAc?$AAy?$AAr?$AAl@ 0000000180046618     libcpmt:winapinls.obj
 0002:00004630       ??_C@_1BG@IBCKDDOE@?$AAa?$AAz?$AA?9?$AAa?$AAz?$AA?9?$AAl?$AAa?$AAt?$AAn@ 0000000180046630     libcpmt:winapinls.obj
 0002:00004648       ??_C@_1M@EGPFDCPD@?$AAb?$AAe?$AA?9?$AAb?$AAy@ 0000000180046648     libcpmt:winapinls.obj
 0002:00004658       ??_C@_1M@PCMGMCGC@?$AAb?$AAg?$AA?9?$AAb?$AAg@ 0000000180046658     libcpmt:winapinls.obj
 0002:00004668       ??_C@_1M@BJBMFGOB@?$AAb?$AAn?$AA?9?$AAi?$AAn@ 0000000180046668     libcpmt:winapinls.obj
 0002:00004678       ??_C@_1BG@EAKMMACD@?$AAb?$AAs?$AA?9?$AAb?$AAa?$AA?9?$AAl?$AAa?$AAt?$AAn@ 0000000180046678     libcpmt:winapinls.obj
 0002:00004690       ??_C@_1M@KGADAODK@?$AAc?$AAa?$AA?9?$AAe?$AAs@ 0000000180046690     libcpmt:winapinls.obj
 0002:000046a0       ??_C@_1M@COAJPDHI@?$AAc?$AAs?$AA?9?$AAc?$AAz@ 00000001800466a0     libcpmt:winapinls.obj
 0002:000046b0       ??_C@_1M@DHBHFONH@?$AAc?$AAy?$AA?9?$AAg?$AAb@ 00000001800466b0     libcpmt:winapinls.obj
 0002:000046c0       ??_C@_1M@IMGKELGA@?$AAd?$AAa?$AA?9?$AAd?$AAk@ 00000001800466c0     libcpmt:winapinls.obj
 0002:000046d0       ??_C@_1M@NNDGDNGA@?$AAd?$AAe?$AA?9?$AAa?$AAt@ 00000001800466d0     libcpmt:winapinls.obj
 0002:000046e0       ??_C@_1M@IKDBHEEM@?$AAd?$AAe?$AA?9?$AAc?$AAh@ 00000001800466e0     libcpmt:winapinls.obj
 0002:000046f0       ??_C@_1M@GFFOJMCJ@?$AAd?$AAe?$AA?9?$AAd?$AAe@ 00000001800466f0     libcpmt:winapinls.obj
 0002:00004700       ??_C@_1M@MDNLKBPM@?$AAd?$AAe?$AA?9?$AAl?$AAi@ 0000000180046700     libcpmt:winapinls.obj
 0002:00004710       ??_C@_1M@NJBEEJNL@?$AAd?$AAe?$AA?9?$AAl?$AAu@ 0000000180046710     libcpmt:winapinls.obj
 0002:00004720       ??_C@_1O@GNNELBAP@?$AAd?$AAi?$AAv?$AA?9?$AAm?$AAv@ 0000000180046720     libcpmt:winapinls.obj
 0002:00004730       ??_C@_1M@EJLEOGAE@?$AAe?$AAl?$AA?9?$AAg?$AAr@ 0000000180046730     libcpmt:winapinls.obj
 0002:00004740       ??_C@_1M@GMPONJN@?$AAe?$AAn?$AA?9?$AAa?$AAu@ 0000000180046740     libcpmt:winapinls.obj
 0002:00004750       ??_C@_1M@NIDIIPGF@?$AAe?$AAn?$AA?9?$AAb?$AAz@ 0000000180046750     libcpmt:winapinls.obj
 0002:00004760       ??_C@_1M@JEHMIMFO@?$AAe?$AAn?$AA?9?$AAc?$AAa@ 0000000180046760     libcpmt:winapinls.obj
 0002:00004770       ??_C@_1M@IGMJCDLA@?$AAe?$AAn?$AA?9?$AAc?$AAb@ 0000000180046770     libcpmt:winapinls.obj
 0002:00004780       ??_C@_1M@BNFIGBKG@?$AAe?$AAn?$AA?9?$AAg?$AAb@ 0000000180046780     libcpmt:winapinls.obj
 0002:00004790       ??_C@_1M@LKIFDIGP@?$AAe?$AAn?$AA?9?$AAi?$AAe@ 0000000180046790     libcpmt:winapinls.obj
 0002:000047a0       ??_C@_1M@PJKFGCCO@?$AAe?$AAn?$AA?9?$AAj?$AAm@ 00000001800467a0     libcpmt:winapinls.obj
 0002:000047b0       ??_C@_1M@KPPKEPBO@?$AAe?$AAn?$AA?9?$AAn?$AAz@ 00000001800467b0     libcpmt:winapinls.obj
 0002:000047c0       ??_C@_1M@GMDGLDOB@?$AAe?$AAn?$AA?9?$AAp?$AAh@ 00000001800467c0     libcpmt:winapinls.obj
 0002:000047d0       ??_C@_1M@ONGIBJNA@?$AAe?$AAn?$AA?9?$AAt?$AAt@ 00000001800467d0     libcpmt:winapinls.obj
 0002:000047e0       ??_C@_1M@LLODPCMM@?$AAe?$AAn?$AA?9?$AAu?$AAs@ 00000001800467e0     libcpmt:winapinls.obj
 0002:000047f0       ??_C@_1M@LAKFNPAN@?$AAe?$AAn?$AA?9?$AAz?$AAa@ 00000001800467f0     libcpmt:winapinls.obj
 0002:00004800       ??_C@_1M@MFNHNHEO@?$AAe?$AAn?$AA?9?$AAz?$AAw@ 0000000180046800     libcpmt:winapinls.obj
 0002:00004810       ??_C@_1M@EJEINPHM@?$AAe?$AAs?$AA?9?$AAa?$AAr@ 0000000180046810     libcpmt:winapinls.obj
 0002:00004820       ??_C@_1M@GNKPCCJA@?$AAe?$AAs?$AA?9?$AAb?$AAo@ 0000000180046820     libcpmt:winapinls.obj
 0002:00004830       ??_C@_1M@LEEGFONL@?$AAe?$AAs?$AA?9?$AAc?$AAl@ 0000000180046830     libcpmt:winapinls.obj
 0002:00004840       ??_C@_1M@KGPDPBDF@?$AAe?$AAs?$AA?9?$AAc?$AAo@ 0000000180046840     libcpmt:winapinls.obj
 0002:00004850       ??_C@_1M@EIAHOHH@?$AAe?$AAs?$AA?9?$AAc?$AAr@ 0000000180046850     libcpmt:winapinls.obj
 0002:00004860       ??_C@_1M@LLPGMBIN@?$AAe?$AAs?$AA?9?$AAd?$AAo@ 0000000180046860     libcpmt:winapinls.obj
 0002:00004870       ??_C@_1M@DKHMKNJA@?$AAe?$AAs?$AA?9?$AAe?$AAc@ 0000000180046870     libcpmt:winapinls.obj
 0002:00004880       ??_C@_1M@GKGFPKAP@?$AAe?$AAs?$AA?9?$AAe?$AAs@ 0000000180046880     libcpmt:winapinls.obj
 0002:00004890       ??_C@_1M@LKHKGDLN@?$AAe?$AAs?$AA?9?$AAg?$AAt@ 0000000180046890     libcpmt:winapinls.obj
 0002:000048a0       ??_C@_1M@HEIIGGJD@?$AAe?$AAs?$AA?9?$AAh?$AAn@ 00000001800468a0     libcpmt:winapinls.obj
 0002:000048b0       ??_C@_1M@FBDHPPGD@?$AAe?$AAs?$AA?9?$AAm?$AAx@ 00000001800468b0     libcpmt:winapinls.obj
 0002:000048c0       ??_C@_1M@DPAGLNDH@?$AAe?$AAs?$AA?9?$AAn?$AAi@ 00000001800468c0     libcpmt:winapinls.obj
 0002:000048d0       ??_C@_1M@MDGOPGDD@?$AAe?$AAs?$AA?9?$AAp?$AAa@ 00000001800468d0     libcpmt:winapinls.obj
 0002:000048e0       ??_C@_1M@EMAMGBGE@?$AAe?$AAs?$AA?9?$AAp?$AAe@ 00000001800468e0     libcpmt:winapinls.obj
 0002:000048f0       ??_C@_1M@IBMCAOEC@?$AAe?$AAs?$AA?9?$AAp?$AAr@ 00000001800468f0     libcpmt:winapinls.obj
 0002:00004900       ??_C@_1M@FGMDIJED@?$AAe?$AAs?$AA?9?$AAp?$AAy@ 0000000180046900     libcpmt:winapinls.obj
 0002:00004910       ??_C@_1M@IIDEOLLL@?$AAe?$AAs?$AA?9?$AAs?$AAv@ 0000000180046910     libcpmt:winapinls.obj
 0002:00004920       ??_C@_1M@GAOBIPA@?$AAe?$AAs?$AA?9?$AAu?$AAy@ 0000000180046920     libcpmt:winapinls.obj
 0002:00004930       ??_C@_1M@JKFFICHJ@?$AAe?$AAs?$AA?9?$AAv?$AAe@ 0000000180046930     libcpmt:winapinls.obj
 0002:00004940       ??_C@_1M@PNMLOJDF@?$AAe?$AAt?$AA?9?$AAe?$AAe@ 0000000180046940     libcpmt:winapinls.obj
 0002:00004950       ??_C@_1M@GHHLIKEI@?$AAe?$AAu?$AA?9?$AAe?$AAs@ 0000000180046950     libcpmt:winapinls.obj
 0002:00004960       ??_C@_1M@PBNONODE@?$AAf?$AAa?$AA?9?$AAi?$AAr@ 0000000180046960     libcpmt:winapinls.obj
 0002:00004970       ??_C@_1M@JEEHPMIL@?$AAf?$AAi?$AA?9?$AAf?$AAi@ 0000000180046970     libcpmt:winapinls.obj
 0002:00004980       ??_C@_1M@LMDCNDBA@?$AAf?$AAo?$AA?9?$AAf?$AAo@ 0000000180046980     libcpmt:winapinls.obj
 0002:00004990       ??_C@_1M@JKEOHLDK@?$AAf?$AAr?$AA?9?$AAb?$AAe@ 0000000180046990     libcpmt:winapinls.obj
 0002:000049a0       ??_C@_1M@NOHADPMI@?$AAf?$AAr?$AA?9?$AAc?$AAa@ 00000001800469a0     libcpmt:winapinls.obj
 0002:000049b0       ??_C@_1M@KDHIHAEC@?$AAf?$AAr?$AA?9?$AAc?$AAh@ 00000001800469b0     libcpmt:winapinls.obj
 0002:000049c0       ??_C@_1M@MMBBFGAK@?$AAf?$AAr?$AA?9?$AAf?$AAr@ 00000001800469c0     libcpmt:winapinls.obj
 0002:000049d0       ??_C@_1M@PAFNENNF@?$AAf?$AAr?$AA?9?$AAl?$AAu@ 00000001800469d0     libcpmt:winapinls.obj
 0002:000049e0       ??_C@_1M@EOHDJGDD@?$AAf?$AAr?$AA?9?$AAm?$AAc@ 00000001800469e0     libcpmt:winapinls.obj
 0002:000049f0       ??_C@_1M@FAPLLOPF@?$AAg?$AAl?$AA?9?$AAe?$AAs@ 00000001800469f0     libcpmt:winapinls.obj
 0002:00004a00       ??_C@_1M@FOPBFLOO@?$AAg?$AAu?$AA?9?$AAi?$AAn@ 0000000180046a00     libcpmt:winapinls.obj
 0002:00004a10       ??_C@_1M@KBMCINPM@?$AAh?$AAe?$AA?9?$AAi?$AAl@ 0000000180046a10     libcpmt:winapinls.obj
 0002:00004a20       ??_C@_1M@BBPHKFPJ@?$AAh?$AAi?$AA?9?$AAi?$AAn@ 0000000180046a20     libcpmt:winapinls.obj
 0002:00004a30       ??_C@_1M@PMBNDPHD@?$AAh?$AAr?$AA?9?$AAb?$AAa@ 0000000180046a30     libcpmt:winapinls.obj
 0002:00004a40       ??_C@_1M@BPCKOEGE@?$AAh?$AAr?$AA?9?$AAh?$AAr@ 0000000180046a40     libcpmt:winapinls.obj
 0002:00004a50       ??_C@_1M@GACBMHKE@?$AAh?$AAu?$AA?9?$AAh?$AAu@ 0000000180046a50     libcpmt:winapinls.obj
 0002:00004a60       ??_C@_1M@MILPAJJC@?$AAh?$AAy?$AA?9?$AAa?$AAm@ 0000000180046a60     libcpmt:winapinls.obj
 0002:00004a70       ??_C@_1M@BABBICEC@?$AAi?$AAd?$AA?9?$AAi?$AAd@ 0000000180046a70     libcpmt:winapinls.obj
 0002:00004a80       ??_C@_1M@BIKNHHPF@?$AAi?$AAs?$AA?9?$AAi?$AAs@ 0000000180046a80     libcpmt:winapinls.obj
 0002:00004a90       ??_C@_1M@NMPCJPHE@?$AAi?$AAt?$AA?9?$AAc?$AAh@ 0000000180046a90     libcpmt:winapinls.obj
 0002:00004aa0       ??_C@_1M@GHKGFEDF@?$AAi?$AAt?$AA?9?$AAi?$AAt@ 0000000180046aa0     libcpmt:winapinls.obj
 0002:00004ab0       ??_C@_1M@NIEJCJJA@?$AAj?$AAa?$AA?9?$AAj?$AAp@ 0000000180046ab0     libcpmt:winapinls.obj
 0002:00004ac0       ??_C@_1M@JILFNBIM@?$AAk?$AAa?$AA?9?$AAg?$AAe@ 0000000180046ac0     libcpmt:winapinls.obj
 0002:00004ad0       ??_C@_1M@PACPMGPH@?$AAk?$AAk?$AA?9?$AAk?$AAz@ 0000000180046ad0     libcpmt:winapinls.obj
 0002:00004ae0       ??_C@_1M@IELFGMHA@?$AAk?$AAn?$AA?9?$AAi?$AAn@ 0000000180046ae0     libcpmt:winapinls.obj
 0002:00004af0       ??_C@_1M@DMHAEOGC@?$AAk?$AAo?$AA?9?$AAk?$AAr@ 0000000180046af0     libcpmt:winapinls.obj
 0002:00004b00       ??_C@_1O@IBBJHCH@?$AAk?$AAo?$AAk?$AA?9?$AAi?$AAn@ 0000000180046b00     libcpmt:winapinls.obj
 0002:00004b10       ??_C@_1M@HBAHBIGA@?$AAk?$AAy?$AA?9?$AAk?$AAg@ 0000000180046b10     libcpmt:winapinls.obj
 0002:00004b20       ??_C@_1M@KPMILCJG@?$AAl?$AAt?$AA?9?$AAl?$AAt@ 0000000180046b20     libcpmt:winapinls.obj
 0002:00004b30       ??_C@_1M@BDEKKCA@?$AAl?$AAv?$AA?9?$AAl?$AAv@ 0000000180046b30     libcpmt:winapinls.obj
 0002:00004b40       ??_C@_1M@ELCKCCJJ@?$AAm?$AAi?$AA?9?$AAn?$AAz@ 0000000180046b40     libcpmt:winapinls.obj
 0002:00004b50       ??_C@_1M@CBOOLAPA@?$AAm?$AAk?$AA?9?$AAm?$AAk@ 0000000180046b50     libcpmt:winapinls.obj
 0002:00004b60       ??_C@_1M@GPHNBJKN@?$AAm?$AAl?$AA?9?$AAi?$AAn@ 0000000180046b60     libcpmt:winapinls.obj
 0002:00004b70       ??_C@_1M@PABJILIG@?$AAm?$AAn?$AA?9?$AAm?$AAn@ 0000000180046b70     libcpmt:winapinls.obj
 0002:00004b80       ??_C@_1M@FGBKKIPG@?$AAm?$AAr?$AA?9?$AAi?$AAn@ 0000000180046b80     libcpmt:winapinls.obj
 0002:00004b90       ??_C@_1M@NDBPDDAL@?$AAm?$AAs?$AA?9?$AAb?$AAn@ 0000000180046b90     libcpmt:winapinls.obj
 0002:00004ba0       ??_C@_1M@OPIHOOPI@?$AAm?$AAs?$AA?9?$AAm?$AAy@ 0000000180046ba0     libcpmt:winapinls.obj
 0002:00004bb0       ??_C@_1M@PPDBCNFM@?$AAm?$AAt?$AA?9?$AAm?$AAt@ 0000000180046bb0     libcpmt:winapinls.obj
 0002:00004bc0       ??_C@_1M@KDJDKMDD@?$AAn?$AAb?$AA?9?$AAn?$AAo@ 0000000180046bc0     libcpmt:winapinls.obj
 0002:00004bd0       ??_C@_1M@KFCFLMJP@?$AAn?$AAl?$AA?9?$AAb?$AAe@ 0000000180046bd0     libcpmt:winapinls.obj
 0002:00004be0       ??_C@_1M@KPOPDDGO@?$AAn?$AAl?$AA?9?$AAn?$AAl@ 0000000180046be0     libcpmt:winapinls.obj
 0002:00004bf0       ??_C@_1M@LJKPEMLN@?$AAn?$AAn?$AA?9?$AAn?$AAo@ 0000000180046bf0     libcpmt:winapinls.obj
 0002:00004c00       ??_C@_1M@BDGHHBFL@?$AAn?$AAs?$AA?9?$AAz?$AAa@ 0000000180046c00     libcpmt:winapinls.obj
 0002:00004c10       ??_C@_1M@IDEHOAP@?$AAp?$AAa?$AA?9?$AAi?$AAn@ 0000000180046c10     libcpmt:winapinls.obj
 0002:00004c20       ??_C@_1M@HDBKGOGH@?$AAp?$AAl?$AA?9?$AAp?$AAl@ 0000000180046c20     libcpmt:winapinls.obj
 0002:00004c30       ??_C@_1M@LJLLCMEH@?$AAp?$AAt?$AA?9?$AAb?$AAr@ 0000000180046c30     libcpmt:winapinls.obj
 0002:00004c40       ??_C@_1M@NCMONAAL@?$AAp?$AAt?$AA?9?$AAp?$AAt@ 0000000180046c40     libcpmt:winapinls.obj
 0002:00004c50       ??_C@_1O@EAKMAJDN@?$AAq?$AAu?$AAz?$AA?9?$AAb?$AAo@ 0000000180046c50     libcpmt:winapinls.obj
 0002:00004c60       ??_C@_1O@BHHPIGDN@?$AAq?$AAu?$AAz?$AA?9?$AAe?$AAc@ 0000000180046c60     libcpmt:winapinls.obj
 0002:00004c70       ??_C@_1O@GBAPEKMJ@?$AAq?$AAu?$AAz?$AA?9?$AAp?$AAe@ 0000000180046c70     libcpmt:winapinls.obj
 0002:00004c80       ??_C@_1M@CLGLEFBO@?$AAr?$AAo?$AA?9?$AAr?$AAo@ 0000000180046c80     libcpmt:winapinls.obj
 0002:00004c90       ??_C@_1M@CEEDODME@?$AAr?$AAu?$AA?9?$AAr?$AAu@ 0000000180046c90     libcpmt:winapinls.obj
 0002:00004ca0       ??_C@_1M@HPKKKMPP@?$AAs?$AAa?$AA?9?$AAi?$AAn@ 0000000180046ca0     libcpmt:winapinls.obj
 0002:00004cb0       ??_C@_1M@BKMAIGOJ@?$AAs?$AAe?$AA?9?$AAf?$AAi@ 0000000180046cb0     libcpmt:winapinls.obj
 0002:00004cc0       ??_C@_1M@NDPIFLFI@?$AAs?$AAe?$AA?9?$AAn?$AAo@ 0000000180046cc0     libcpmt:winapinls.obj
 0002:00004cd0       ??_C@_1M@DANKKHJ@?$AAs?$AAe?$AA?9?$AAs?$AAe@ 0000000180046cd0     libcpmt:winapinls.obj
 0002:00004ce0       ??_C@_1M@PNBLONPJ@?$AAs?$AAk?$AA?9?$AAs?$AAk@ 0000000180046ce0     libcpmt:winapinls.obj
 0002:00004cf0       ??_C@_1M@LFMODOAL@?$AAs?$AAl?$AA?9?$AAs?$AAi@ 0000000180046cf0     libcpmt:winapinls.obj
 0002:00004d00       ??_C@_1O@DFKOMPG@?$AAs?$AAm?$AAa?$AA?9?$AAn?$AAo@ 0000000180046d00     libcpmt:winapinls.obj
 0002:00004d10       ??_C@_1O@NDKPBNNH@?$AAs?$AAm?$AAa?$AA?9?$AAs?$AAe@ 0000000180046d10     libcpmt:winapinls.obj
 0002:00004d20       ??_C@_1O@PLLKBHAB@?$AAs?$AAm?$AAj?$AA?9?$AAn?$AAo@ 0000000180046d20     libcpmt:winapinls.obj
 0002:00004d30       ??_C@_1O@CLEPOGCA@?$AAs?$AAm?$AAj?$AA?9?$AAs?$AAe@ 0000000180046d30     libcpmt:winapinls.obj
 0002:00004d40       ??_C@_1O@DLGJGKMK@?$AAs?$AAm?$AAn?$AA?9?$AAf?$AAi@ 0000000180046d40     libcpmt:winapinls.obj
 0002:00004d50       ??_C@_1O@OJDJGAJC@?$AAs?$AAm?$AAs?$AA?9?$AAf?$AAi@ 0000000180046d50     libcpmt:winapinls.obj
 0002:00004d60       ??_C@_1M@BOFOGHPB@?$AAs?$AAq?$AA?9?$AAa?$AAl@ 0000000180046d60     libcpmt:winapinls.obj
 0002:00004d70       ??_C@_1BG@LJBBIPGB@?$AAs?$AAr?$AA?9?$AAb?$AAa?$AA?9?$AAc?$AAy?$AAr?$AAl@ 0000000180046d70     libcpmt:winapinls.obj
 0002:00004d88       ??_C@_1BG@JLBENFOE@?$AAs?$AAr?$AA?9?$AAb?$AAa?$AA?9?$AAl?$AAa?$AAt?$AAn@ 0000000180046d88     libcpmt:winapinls.obj
 0002:00004da0       ??_C@_1BG@KODPNHE@?$AAs?$AAr?$AA?9?$AAs?$AAp?$AA?9?$AAc?$AAy?$AAr?$AAl@ 0000000180046da0     libcpmt:winapinls.obj
 0002:00004db8       ??_C@_1BG@CIOGKHPB@?$AAs?$AAr?$AA?9?$AAs?$AAp?$AA?9?$AAl?$AAa?$AAt?$AAn@ 0000000180046db8     libcpmt:winapinls.obj
 0002:00004dd0       ??_C@_1M@NGFJLMAC@?$AAs?$AAv?$AA?9?$AAf?$AAi@ 0000000180046dd0     libcpmt:winapinls.obj
 0002:00004de0       ??_C@_1M@MPJEJAJC@?$AAs?$AAv?$AA?9?$AAs?$AAe@ 0000000180046de0     libcpmt:winapinls.obj
 0002:00004df0       ??_C@_1M@MPNDHLFK@?$AAs?$AAw?$AA?9?$AAk?$AAe@ 0000000180046df0     libcpmt:winapinls.obj
 0002:00004e00       ??_C@_1O@KOHBJJI@?$AAs?$AAy?$AAr?$AA?9?$AAs?$AAy@ 0000000180046e00     libcpmt:winapinls.obj
 0002:00004e10       ??_C@_1M@LDCEFHA@?$AAt?$AAa?$AA?9?$AAi?$AAn@ 0000000180046e10     libcpmt:winapinls.obj
 0002:00004e20       ??_C@_1M@CNJOFAK@?$AAt?$AAe?$AA?9?$AAi?$AAn@ 0000000180046e20     libcpmt:winapinls.obj
 0002:00004e30       ??_C@_1M@GNAECACD@?$AAt?$AAh?$AA?9?$AAt?$AAh@ 0000000180046e30     libcpmt:winapinls.obj
 0002:00004e40       ??_C@_1M@CHBIHOJO@?$AAt?$AAn?$AA?9?$AAz?$AAa@ 0000000180046e40     libcpmt:winapinls.obj
 0002:00004e50       ??_C@_1M@GCCMIGPJ@?$AAt?$AAr?$AA?9?$AAt?$AAr@ 0000000180046e50     libcpmt:winapinls.obj
 0002:00004e60       ??_C@_1M@CELMCNBK@?$AAt?$AAt?$AA?9?$AAr?$AAu@ 0000000180046e60     libcpmt:winapinls.obj
 0002:00004e70       ??_C@_1M@KLMCELGA@?$AAu?$AAk?$AA?9?$AAu?$AAa@ 0000000180046e70     libcpmt:winapinls.obj
 0002:00004e80       ??_C@_1M@EPAJJAJF@?$AAu?$AAr?$AA?9?$AAp?$AAk@ 0000000180046e80     libcpmt:winapinls.obj
 0002:00004e90       ??_C@_1BG@GEGPMCDJ@?$AAu?$AAz?$AA?9?$AAu?$AAz?$AA?9?$AAc?$AAy?$AAr?$AAl@ 0000000180046e90     libcpmt:winapinls.obj
 0002:00004ea8       ??_C@_1BG@EGGKJILM@?$AAu?$AAz?$AA?9?$AAu?$AAz?$AA?9?$AAl?$AAa?$AAt?$AAn@ 0000000180046ea8     libcpmt:winapinls.obj
 0002:00004ec0       ??_C@_1M@GFOCLFF@?$AAv?$AAi?$AA?9?$AAv?$AAn@ 0000000180046ec0     libcpmt:winapinls.obj
 0002:00004ed0       ??_C@_1M@CPAMEDFI@?$AAx?$AAh?$AA?9?$AAz?$AAa@ 0000000180046ed0     libcpmt:winapinls.obj
 0002:00004ee0       ??_C@_1O@EBKIFIGN@?$AAz?$AAh?$AA?9?$AAc?$AAh?$AAs@ 0000000180046ee0     libcpmt:winapinls.obj
 0002:00004ef0       ??_C@_1O@NMHPGANE@?$AAz?$AAh?$AA?9?$AAc?$AAh?$AAt@ 0000000180046ef0     libcpmt:winapinls.obj
 0002:00004f00       ??_C@_1M@LPINJOMC@?$AAz?$AAh?$AA?9?$AAc?$AAn@ 0000000180046f00     libcpmt:winapinls.obj
 0002:00004f10       ??_C@_1M@OCJEJODD@?$AAz?$AAh?$AA?9?$AAh?$AAk@ 0000000180046f10     libcpmt:winapinls.obj
 0002:00004f20       ??_C@_1M@DNDLJINH@?$AAz?$AAh?$AA?9?$AAm?$AAo@ 0000000180046f20     libcpmt:winapinls.obj
 0002:00004f30       ??_C@_1M@MBFDNDND@?$AAz?$AAh?$AA?9?$AAs?$AAg@ 0000000180046f30     libcpmt:winapinls.obj
 0002:00004f40       ??_C@_1M@IMEPLEPE@?$AAz?$AAh?$AA?9?$AAt?$AAw@ 0000000180046f40     libcpmt:winapinls.obj
 0002:00004f50       ??_C@_1M@BBGHNHJP@?$AAz?$AAu?$AA?9?$AAz?$AAa@ 0000000180046f50     libcpmt:winapinls.obj
 0002:00004f70       _pRawDllMain               0000000180046f70     LIBCMT:dll_dllmain.obj
 0002:00004f70       _pDefaultRawDllMain        0000000180046f70     LIBCMT:dll_dllmain.obj
 0002:00004f80       ??_7type_info@@6B@         0000000180046f80     LIBCMT:std_type_info_static.obj
 0002:00004f90       ??_7bad_array_new_length@std@@6B@ 0000000180046f90     LIBCMT:throw_bad_alloc.obj
 0002:00004fa0       ??_C@_0BF@KINCDENJ@bad?5array?5new?5length@ 0000000180046fa0     LIBCMT:throw_bad_alloc.obj
 0002:00005098       _pDestructExceptionObject  0000000180047098     libvcruntime:ehhelpers.obj
 0002:000050a8       ??_7bad_exception@std@@6B@ 00000001800470a8     libvcruntime:frame.obj
 0002:000050b8       ??_C@_0O@DPKOEFFH@bad?5exception@ 00000001800470b8     libvcruntime:frame.obj
 0002:000050e0       ??_C@_1DM@KHCHBNEB@?$AAa?$AAp?$AAi?$AA?9?$AAm?$AAs?$AA?9?$AAw?$AAi?$AAn?$AA?9?$AAc?$AAo?$AAr?$AAe@ 00000001800470e0     libvcruntime:winapi_downlevel.obj
 0002:00005120       ??_C@_1DK@LPPGFMPP@?$AAa?$AAp?$AAi?$AA?9?$AAm?$AAs?$AA?9?$AAw?$AAi?$AAn?$AA?9?$AAc?$AAo?$AAr?$AAe@ 0000000180047120     libvcruntime:winapi_downlevel.obj
 0002:00005160       ??_C@_1BC@GDMECMAK@?$AAk?$AAe?$AAr?$AAn?$AAe?$AAl?$AA3?$AA2@ 0000000180047160     libvcruntime:winapi_downlevel.obj
 0002:00005178       ??_C@_1BA@PFFKHIOG@?$AAa?$AAp?$AAi?$AA?9?$AAm?$AAs?$AA?9@ 0000000180047178     libvcruntime:winapi_downlevel.obj
 0002:00005188       ??_C@_1BA@IAIFMGEF@?$AAe?$AAx?$AAt?$AA?9?$AAm?$AAs?$AA?9@ 0000000180047188     libvcruntime:winapi_downlevel.obj
 0002:000054f8       ??_C@_08EHJDFFNH@__based?$CI@ 00000001800474f8     libvcruntime:undname.obj
 0002:00005508       ??_C@_07KOLFKCDI@__cdecl@  0000000180047508     libvcruntime:undname.obj
 0002:00005510       ??_C@_08GHMPAG@__pascal@   0000000180047510     libvcruntime:undname.obj
 0002:00005520       ??_C@_09IFJBGAPI@__stdcall@ 0000000180047520     libvcruntime:undname.obj
 0002:00005530       ??_C@_0L@NPHFGOKO@__thiscall@ 0000000180047530     libvcruntime:undname.obj
 0002:00005540       ??_C@_0L@JMKHOMEK@__fastcall@ 0000000180047540     libvcruntime:undname.obj
 0002:00005550       ??_C@_0N@BCKKPABJ@__vectorcall@ 0000000180047550     libvcruntime:undname.obj
 0002:00005560       ??_C@_09HIJEGCPM@__clrcall@ 0000000180047560     libvcruntime:undname.obj
 0002:0000556c       ??_C@_06GHPCKEAG@__eabi@   000000018004756c     libvcruntime:undname.obj
 0002:00005578       ??_C@_09IOPIDJLG@__swift_1@ 0000000180047578     libvcruntime:undname.obj
 0002:00005588       ??_C@_09KFNFGKHF@__swift_2@ 0000000180047588     libvcruntime:undname.obj
 0002:00005598       ??_C@_07JOMMBBKO@__ptr64@  0000000180047598     libvcruntime:undname.obj
 0002:000055a0       ??_C@_0L@PILCLIHE@__restrict@ 00000001800475a0     libvcruntime:undname.obj
 0002:000055b0       ??_C@_0M@GFIIJFMG@__unaligned@ 00000001800475b0     libvcruntime:undname.obj
 0002:000055c0       ??_C@_09DHDLOLLB@restrict?$CI@ 00000001800475c0     libvcruntime:undname.obj
 0002:000055cc       ??_C@_04NIHEBCM@?5new@     00000001800475cc     libvcruntime:undname.obj
 0002:000055d8       ??_C@_07FPCDHGMM@?5delete@ 00000001800475d8     libvcruntime:undname.obj
 0002:000055e0       ??_C@_01NEMOKFLO@?$DN@     00000001800475e0     libvcruntime:undname.obj
 0002:000055e4       ??_C@_02GPIOPFAK@?$DO?$DO@ 00000001800475e4     libvcruntime:undname.obj
 0002:000055e8       ??_C@_02FODMEDOG@?$DM?$DM@ 00000001800475e8     libvcruntime:undname.obj
 0002:000055ec       ??_C@_01DCLJPIOD@?$CB@     00000001800475ec     libvcruntime:undname.obj
 0002:000055f0       ??_C@_02EGOFBIJA@?$DN?$DN@ 00000001800475f0     libvcruntime:undname.obj
 0002:000055f4       ??_C@_02FDNJECIE@?$CB?$DN@ 00000001800475f4     libvcruntime:undname.obj
 0002:000055f8       ??_C@_02GPECMEKF@?$FL?$FN@ 00000001800475f8     libvcruntime:undname.obj
 0002:00005600       ??_C@_08LHJFAFGD@operator@ 0000000180047600     libvcruntime:undname.obj
 0002:0000560c       ??_C@_02HBOOOICD@?9?$DO@   000000018004760c     libvcruntime:undname.obj
 0002:00005610       ??_C@_02ECNGHCIF@?$CL?$CL@ 0000000180047610     libvcruntime:undname.obj
 0002:00005614       ??_C@_02BAABKJLB@?9?9@     0000000180047614     libvcruntime:undname.obj
 0002:00005618       ??_C@_01MIFGBAGJ@?$CL@     0000000180047618     libvcruntime:undname.obj
 0002:0000561c       ??_C@_01HNPIGOCE@?$CG@     000000018004761c     libvcruntime:undname.obj
 0002:00005620       ??_C@_03MNHNFDLC@?9?$DO?$CK@ 0000000180047620     libvcruntime:undname.obj
 0002:00005624       ??_C@_01FGNFDNOH@?$CF@     0000000180047624     libvcruntime:undname.obj
 0002:00005628       ??_C@_01MNNFJEPP@?$DM@     0000000180047628     libvcruntime:undname.obj
 0002:0000562c       ??_C@_02EHCHHCKH@?$DM?$DN@ 000000018004762c     libvcruntime:undname.obj
 0002:00005630       ??_C@_01PPODPGHN@?$DO@     0000000180047630     libvcruntime:undname.obj
 0002:00005634       ??_C@_02EEKDKGMJ@?$DO?$DN@ 0000000180047634     libvcruntime:undname.obj
 0002:00005638       ??_C@_01IHBHIGKO@?0@       0000000180047638     libvcruntime:undname.obj
 0002:0000563c       ??_C@_02HCKGKOFO@?$CI?$CJ@ 000000018004763c     libvcruntime:undname.obj
 0002:00005640       ??_C@_01PJKLJHI@?$HO@      0000000180047640     libvcruntime:undname.obj
 0002:00005644       ??_C@_01JKBOJNNK@?$FO@     0000000180047644     libvcruntime:undname.obj
 0002:00005648       ??_C@_01DNKMNLPK@?$HM@     0000000180047648     libvcruntime:undname.obj
 0002:0000564c       ??_C@_02PPKAJPJL@?$CG?$CG@ 000000018004764c     libvcruntime:undname.obj
 0002:00005650       ??_C@_02NONPIBCD@?$HM?$HM@ 0000000180047650     libvcruntime:undname.obj
 0002:00005654       ??_C@_02FPIMKNGF@?$CK?$DN@ 0000000180047654     libvcruntime:undname.obj
 0002:00005658       ??_C@_02FOEOMHFC@?$CL?$DN@ 0000000180047658     libvcruntime:undname.obj
 0002:0000565c       ??_C@_02FKMDLLOA@?9?$DN@   000000018004765c     libvcruntime:undname.obj
 0002:00005660       ??_C@_02FJEHGPIO@?1?$DN@   0000000180047660     libvcruntime:undname.obj
 0002:00005664       ??_C@_02FENAOKFI@?$CF?$DN@ 0000000180047664     libvcruntime:undname.obj
 0002:00005668       ??_C@_03IKFCCPFF@?$DO?$DO?$DN@ 0000000180047668     libvcruntime:undname.obj
 0002:0000566c       ??_C@_03CDNPDDLA@?$DM?$DM?$DN@ 000000018004766c     libvcruntime:undname.obj
 0002:00005670       ??_C@_02FGJGFEAB@?$CG?$DN@ 0000000180047670     libvcruntime:undname.obj
 0002:00005674       ??_C@_02DHLNPPGH@?$HM?$DN@ 0000000180047674     libvcruntime:undname.obj
 0002:00005678       ??_C@_02MHEGNOJ@?$FO?$DN@  0000000180047678     libvcruntime:undname.obj
 0002:00005680       ??_C@_09IFPLHPGF@?$GAvftable?8@ 0000000180047680     libvcruntime:undname.obj
 0002:00005690       ??_C@_09BLBHBJP@?$GAvbtable?8@ 0000000180047690     libvcruntime:undname.obj
 0002:000056a0       ??_C@_07FEEIOKP@?$GAvcall?8@ 00000001800476a0     libvcruntime:undname.obj
 0002:000056a8       ??_C@_08LLFFHHDJ@?$GAtypeof?8@ 00000001800476a8     libvcruntime:undname.obj
 0002:000056b8       ??_C@_0BF@KDPPACIK@?$GAlocal?5static?5guard?8@ 00000001800476b8     libvcruntime:undname.obj
 0002:000056d0       ??_C@_08OBABFOLI@?$GAstring?8@ 00000001800476d0     libvcruntime:undname.obj
 0002:000056e0       ??_C@_0BD@JDLKDPAB@?$GAvbase?5destructor?8@ 00000001800476e0     libvcruntime:undname.obj
 0002:000056f8       ??_C@_0BN@DEGPLNFK@?$GAvector?5deleting?5destructor?8@ 00000001800476f8     libvcruntime:undname.obj
 0002:00005718       ??_C@_0BO@OBMKPJIG@?$GAdefault?5constructor?5closure?8@ 0000000180047718     libvcruntime:undname.obj
 0002:00005738       ??_C@_0BN@IMDCHIKM@?$GAscalar?5deleting?5destructor?8@ 0000000180047738     libvcruntime:undname.obj
 0002:00005758       ??_C@_0BO@PFGOCPJJ@?$GAvector?5constructor?5iterator?8@ 0000000180047758     libvcruntime:undname.obj
 0002:00005778       ??_C@_0BN@LFPFMEDL@?$GAvector?5destructor?5iterator?8@ 0000000180047778     libvcruntime:undname.obj
 0002:00005798       ??_C@_0CE@IKBNEHA@?$GAvector?5vbase?5constructor?5itera@ 0000000180047798     libvcruntime:undname.obj
 0002:000057c0       ??_C@_0BL@NILFHHPC@?$GAvirtual?5displacement?5map?8@ 00000001800477c0     libvcruntime:undname.obj
 0002:000057e0       ??_C@_0CB@JONCMFFK@?$GAeh?5vector?5constructor?5iterator@ 00000001800477e0     libvcruntime:undname.obj
 0002:00005808       ??_C@_0CA@GCEOPDGL@?$GAeh?5vector?5destructor?5iterator?8@ 0000000180047808     libvcruntime:undname.obj
 0002:00005828       ??_C@_0CH@OOJPLCPH@?$GAeh?5vector?5vbase?5constructor?5it@ 0000000180047828     libvcruntime:undname.obj
 0002:00005850       ??_C@_0BL@LLKPOHJI@?$GAcopy?5constructor?5closure?8@ 0000000180047850     libvcruntime:undname.obj
 0002:00005870       ??_C@_0BA@KBCDOMBN@?$GAudt?5returning?8@ 0000000180047870     libvcruntime:undname.obj
 0002:00005880       ??_C@_03KLGMFNMG@?$GAEH@   0000000180047880     libvcruntime:undname.obj
 0002:00005884       ??_C@_05KHLCHHI@?$GARTTI@  0000000180047884     libvcruntime:undname.obj
 0002:00005890       ??_C@_0BA@KKLDJDLB@?$GAlocal?5vftable?8@ 0000000180047890     libvcruntime:undname.obj
 0002:000058a0       ??_C@_0CE@IIHCMGGL@?$GAlocal?5vftable?5constructor?5clos@ 00000001800478a0     libvcruntime:undname.obj
 0002:000058c4       ??_C@_06FHBGPFGH@?5new?$FL?$FN@ 00000001800478c4     libvcruntime:undname.obj
 0002:000058d0       ??_C@_09LBNFPBCA@?5delete?$FL?$FN@ 00000001800478d0     libvcruntime:undname.obj
 0002:000058e0       ??_C@_0P@HJKNJFNN@?$GAomni?5callsig?8@ 00000001800478e0     libvcruntime:undname.obj
 0002:000058f0       ??_C@_0BL@CNOONJFP@?$GAplacement?5delete?5closure?8@ 00000001800478f0     libvcruntime:undname.obj
 0002:00005910       ??_C@_0BN@CKNJLHMB@?$GAplacement?5delete?$FL?$FN?5closure?8@ 0000000180047910     libvcruntime:undname.obj
 0002:00005930       ??_C@_0CG@CFDHKGGD@?$GAmanaged?5vector?5constructor?5ite@ 0000000180047930     libvcruntime:undname.obj
 0002:00005958       ??_C@_0CF@IMGKMJNO@?$GAmanaged?5vector?5destructor?5iter@ 0000000180047958     libvcruntime:undname.obj
 0002:00005980       ??_C@_0CG@HLDDJMAG@?$GAeh?5vector?5copy?5constructor?5ite@ 0000000180047980     libvcruntime:undname.obj
 0002:000059a8       ??_C@_0CM@FCBBDIGB@?$GAeh?5vector?5vbase?5copy?5construct@ 00000001800479a8     libvcruntime:undname.obj
 0002:000059d8       ??_C@_0BL@CLIPGLGB@?$GAdynamic?5initializer?5for?5?8@ 00000001800479d8     libvcruntime:undname.obj
 0002:000059f8       ??_C@_0CB@PDBIFEP@?$GAdynamic?5atexit?5destructor?5for?5@ 00000001800479f8     libvcruntime:undname.obj
 0002:00005a20       ??_C@_0CD@CGAJBKEJ@?$GAvector?5copy?5constructor?5iterat@ 0000000180047a20     libvcruntime:undname.obj
 0002:00005a48       ??_C@_0CJ@GJELGAMM@?$GAvector?5vbase?5copy?5constructor?5@ 0000000180047a48     libvcruntime:undname.obj
 0002:00005a78       ??_C@_0CL@FGIJHLCE@?$GAmanaged?5vector?5copy?5constructo@ 0000000180047a78     libvcruntime:undname.obj
 0002:00005aa8       ??_C@_0BM@PMGGMLDN@?$GAlocal?5static?5thread?5guard?8@ 0000000180047aa8     libvcruntime:undname.obj
 0002:00005ac8       ??_C@_0N@BDNMDMOL@operator?5?$CC?$CC?5@ 0000000180047ac8     libvcruntime:undname.obj
 0002:00005ad8       ??_C@_0BC@GGEBGALA@operator?5co_await@ 0000000180047ad8     libvcruntime:undname.obj
 0002:00005af0       ??_C@_0BC@DAFEJGAK@?5Type?5Descriptor?8@ 0000000180047af0     libvcruntime:undname.obj
 0002:00005b08       ??_C@_0BM@LDKODKLH@?5Base?5Class?5Descriptor?5at?5?$CI@ 0000000180047b08     libvcruntime:undname.obj
 0002:00005b28       ??_C@_0BD@LGICGFMM@?5Base?5Class?5Array?8@ 0000000180047b28     libvcruntime:undname.obj
 0002:00005b40       ??_C@_0BN@MECKDCOJ@?5Class?5Hierarchy?5Descriptor?8@ 0000000180047b40     libvcruntime:undname.obj
 0002:00005b60       ??_C@_0BK@CFCOFLF@?5Complete?5Object?5Locator?8@ 0000000180047b60     libvcruntime:undname.obj
 0002:00005b80       ??_C@_1FE@LHBLIKM@?$AAA?$AAs?$AAs?$AAe?$AAr?$AAt?$AAi?$AAo?$AAn?$AA?5?$AAf?$AAa?$AAi?$AAl?$AAe?$AAd?$AA?3?$AA?5?$AA?$CF?$AAT?$AAs?$AA?0?$AA?5?$AAf?$AAi?$AAl?$AAe?$AA?5?$AA?$CF?$AAT?$AAs?$AA?0@ 0000000180047b80     libucrt:assert.obj
 0002:00005be0       ??_C@_1EK@MBDPDCGA@?$AAM?$AAi?$AAc?$AAr?$AAo?$AAs?$AAo?$AAf?$AAt?$AA?5?$AAV?$AAi?$AAs?$AAu?$AAa?$AAl?$AA?5?$AAC?$AA?$CL?$AA?$CL?$AA?5?$AAR?$AAu?$AAn?$AAt?$AAi?$AAm?$AAe?$AA?5?$AAL?$AAi?$AAb@ 0000000180047be0     libucrt:assert.obj
 0002:00005c30       ??_C@_1CE@OJBNHDMO@?$AAA?$AAs?$AAs?$AAe?$AAr?$AAt?$AAi?$AAo?$AAn?$AA?5?$AAf?$AAa?$AAi?$AAl?$AAe?$AAd?$AA?$CB?$AA?$AA@ 0000000180047c30     libucrt:assert.obj
 0002:00005c58       ??_C@_1BE@PHKBBGE@?$AAP?$AAr?$AAo?$AAg?$AAr?$AAa?$AAm?$AA?3?$AA?5?$AA?$AA@ 0000000180047c58     libucrt:assert.obj
 0002:00005c70       ??_C@_1O@HEMHKNDC@?$AAF?$AAi?$AAl?$AAe?$AA?3?$AA?5?$AA?$AA@ 0000000180047c70     libucrt:assert.obj
 0002:00005c80       ??_C@_1O@KCAFKHJE@?$AAL?$AAi?$AAn?$AAe?$AA?3?$AA?5?$AA?$AA@ 0000000180047c80     libucrt:assert.obj
 0002:00005c90       ??_C@_1BK@PEDCIPMA@?$AAE?$AAx?$AAp?$AAr?$AAe?$AAs?$AAs?$AAi?$AAo?$AAn?$AA?3?$AA?5?$AA?$AA@ 0000000180047c90     libucrt:assert.obj
 0002:00005cb0       ??_C@_1OA@EGMLFBHJ@?$AAF?$AAo?$AAr?$AA?5?$AAi?$AAn?$AAf?$AAo?$AAr?$AAm?$AAa?$AAt?$AAi?$AAo?$AAn?$AA?5?$AAo?$AAn?$AA?5?$AAh?$AAo?$AAw?$AA?5?$AAy?$AAo?$AAu?$AAr?$AA?5?$AAp?$AAr?$AAo?$AAg@ 0000000180047cb0     libucrt:assert.obj
 0002:00005d90       ??_C@_1HK@POCJMFGK@?$AA?$CI?$AAP?$AAr?$AAe?$AAs?$AAs?$AA?5?$AAR?$AAe?$AAt?$AAr?$AAy?$AA?5?$AAt?$AAo?$AA?5?$AAd?$AAe?$AAb?$AAu?$AAg?$AA?5?$AAt?$AAh?$AAe?$AA?5?$AAa?$AAp?$AAp?$AAl?$AAi?$AAc@ 0000000180047d90     libucrt:assert.obj
 0002:00005e10       ??_C@_17LGKOMLJ@?$AA?4?$AA?4?$AA?4?$AA?$AA@ 0000000180047e10     libucrt:assert.obj
 0002:00005e18       ??_C@_13LBAGMAIH@?$AA?6?$AA?$AA@ 0000000180047e18     libucrt:assert.obj
 0002:00005e1c       ??_C@_15IABLJNFO@?$AA?6?$AA?6?$AA?$AA@ 0000000180047e1c     libucrt:assert.obj
 0002:00005e28       ??_C@_1CO@EAEJAADC@?$AA?$DM?$AAp?$AAr?$AAo?$AAg?$AAr?$AAa?$AAm?$AA?5?$AAn?$AAa?$AAm?$AAe?$AA?5?$AAu?$AAn?$AAk?$AAn?$AAo?$AAw?$AAn?$AA?$DO?$AA?$AA@ 0000000180047e28     libucrt:assert.obj
 0002:00005e60       standard_lookup_table      0000000180047e60     libucrt:output.obj
 0002:00005ec0       ??_C@_1O@CEDCILHN@?$AA?$CI?$AAn?$AAu?$AAl?$AAl?$AA?$CJ?$AA?$AA@ 0000000180047ec0     libucrt:output.obj
 0002:00005ed0       ??_C@_06OJHGLDPL@?$CInull?$CJ?$AA@ 0000000180047ed0     libucrt:output.obj
 0002:00005ee0       ?large_power_data@?1??multiply_by_power_of_ten@__crt_strtox@@YA_NAEAUbig_integer@2@I@Z@4QBIB 0000000180047ee0     libucrt:input.obj
 0002:000067f0       ?large_power_indices@?1??multiply_by_power_of_ten@__crt_strtox@@YA_NAEAUbig_integer@2@I@Z@4QBUunpack_index@?1??12@YA_N0I@Z@B 00000001800487f0     libucrt:input.obj
 0002:00006888       ?small_powers_of_ten@?1??multiply_by_power_of_ten@__crt_strtox@@YA_NAEAUbig_integer@2@I@Z@4QBIB 0000000180048888     libucrt:input.obj
 0002:000068b0       ??_C@_1GE@DPGDJKLM@?$AAm?$AAi?$AAn?$AAk?$AAe?$AAr?$AAn?$AAe?$AAl?$AA?2?$AAc?$AAr?$AAt?$AAs?$AA?2?$AAu?$AAc?$AAr?$AAt?$AA?2?$AAi?$AAn?$AAc?$AA?2?$AAc?$AAo?$AAr?$AAe?$AAc?$AAr?$AAt?$AA_@ 00000001800488b0     libucrt:input.obj
 0002:00006920       ??_C@_1FM@FELNCOBF@?$AA_?$AA_?$AAc?$AAr?$AAt?$AA_?$AAs?$AAt?$AAr?$AAt?$AAo?$AAx?$AA?3?$AA?3?$AAf?$AAl?$AAo?$AAa?$AAt?$AAi?$AAn?$AAg?$AA_?$AAp?$AAo?$AAi?$AAn?$AAt?$AA_?$AAv?$AAa?$AAl@ 0000000180048920     libucrt:input.obj
 0002:00006980       ??_C@_1BG@GEMHBGAF@?$AA_?$AAi?$AAs?$AA_?$AAd?$AAo?$AAu?$AAb?$AAl?$AAe?$AA?$AA@ 0000000180048980     libucrt:input.obj
 0002:000069a0       ??_C@_1FK@JOJELFFO@?$AA_?$AA_?$AAc?$AAr?$AAt?$AA_?$AAs?$AAt?$AAr?$AAt?$AAo?$AAx?$AA?3?$AA?3?$AAf?$AAl?$AAo?$AAa?$AAt?$AAi?$AAn?$AAg?$AA_?$AAp?$AAo?$AAi?$AAn?$AAt?$AA_?$AAv?$AAa?$AAl@ 00000001800489a0     libucrt:input.obj
 0002:00006a00       ??_C@_1BI@BANMPGJI@?$AA?$CB?$AA_?$AAi?$AAs?$AA_?$AAd?$AAo?$AAu?$AAb?$AAl?$AAe?$AA?$AA@ 0000000180048a00     libucrt:input.obj
 0002:00006a20       ?constraints@?1??is_length_valid@__crt_stdio_input@@YA_NW4conversion_mode@2@W4length_modifier@2@@Z@4QAY0M@$$CBEA 0000000180048a20     libucrt:input.obj
 0002:00006a98       ?inf_uppercase@?1???$parse_floating_point_possible_infinity@DV?$input_adapter_character_source@V?$string_input_adapter@D@__crt_stdio_input@@@__crt_strtox@@_K@__crt_strtox@@YA?AW4floating_point_parse_result@1@AEADAEAV?$input_adapter_character_source@V?$string_input_adapter@D@__crt_stdio_input@@@1@_K@Z@4QBDB 0000000180048a98     libucrt:input.obj
 0002:00006a9c       ?inf_lowercase@?1???$parse_floating_point_possible_infinity@DV?$input_adapter_character_source@V?$string_input_adapter@D@__crt_stdio_input@@@__crt_strtox@@_K@__crt_strtox@@YA?AW4floating_point_parse_result@1@AEADAEAV?$input_adapter_character_source@V?$string_input_adapter@D@__crt_stdio_input@@@1@_K@Z@4QBDB 0000000180048a9c     libucrt:input.obj
 0002:00006aa0       ?inity_uppercase@?1???$parse_floating_point_possible_infinity@DV?$input_adapter_character_source@V?$string_input_adapter@D@__crt_stdio_input@@@__crt_strtox@@_K@__crt_strtox@@YA?AW4floating_point_parse_result@1@AEADAEAV?$input_adapter_character_source@V?$string_input_adapter@D@__crt_stdio_input@@@1@_K@Z@4QBDB 0000000180048aa0     libucrt:input.obj
 0002:00006aa8       ?inity_lowercase@?1???$parse_floating_point_possible_infinity@DV?$input_adapter_character_source@V?$string_input_adapter@D@__crt_stdio_input@@@__crt_strtox@@_K@__crt_strtox@@YA?AW4floating_point_parse_result@1@AEADAEAV?$input_adapter_character_source@V?$string_input_adapter@D@__crt_stdio_input@@@1@_K@Z@4QBDB 0000000180048aa8     libucrt:input.obj
 0002:00006ab0       ?uppercase@?1???$parse_floating_point_possible_nan@DV?$input_adapter_character_source@V?$string_input_adapter@D@__crt_stdio_input@@@__crt_strtox@@_K@__crt_strtox@@YA?AW4floating_point_parse_result@1@AEADAEAV?$input_adapter_character_source@V?$string_input_adapter@D@__crt_stdio_input@@@1@_K@Z@4QBDB 0000000180048ab0     libucrt:input.obj
 0002:00006ab4       ?lowercase@?1???$parse_floating_point_possible_nan@DV?$input_adapter_character_source@V?$string_input_adapter@D@__crt_stdio_input@@@__crt_strtox@@_K@__crt_strtox@@YA?AW4floating_point_parse_result@1@AEADAEAV?$input_adapter_character_source@V?$string_input_adapter@D@__crt_stdio_input@@@1@_K@Z@4QBDB 0000000180048ab4     libucrt:input.obj
 0002:00006ab8       ?uppercase@?1???$parse_floating_point_possible_nan_is_snan@DV?$input_adapter_character_source@V?$string_input_adapter@D@__crt_stdio_input@@@__crt_strtox@@@__crt_strtox@@YA_NAEADAEAV?$input_adapter_character_source@V?$string_input_adapter@D@__crt_stdio_input@@@1@@Z@4QBDB 0000000180048ab8     libucrt:input.obj
 0002:00006ac0       ?lowercase@?1???$parse_floating_point_possible_nan_is_snan@DV?$input_adapter_character_source@V?$string_input_adapter@D@__crt_stdio_input@@@__crt_strtox@@@__crt_strtox@@YA_NAEADAEAV?$input_adapter_character_source@V?$string_input_adapter@D@__crt_stdio_input@@@1@@Z@4QBDB 0000000180048ac0     libucrt:input.obj
 0002:00006ac8       ?uppercase@?1???$parse_floating_point_possible_nan_is_ind@DV?$input_adapter_character_source@V?$string_input_adapter@D@__crt_stdio_input@@@__crt_strtox@@@__crt_strtox@@YA_NAEADAEAV?$input_adapter_character_source@V?$string_input_adapter@D@__crt_stdio_input@@@1@@Z@4QBDB 0000000180048ac8     libucrt:input.obj
 0002:00006acc       ?lowercase@?1???$parse_floating_point_possible_nan_is_ind@DV?$input_adapter_character_source@V?$string_input_adapter@D@__crt_stdio_input@@@__crt_strtox@@@__crt_strtox@@YA_NAEADAEAV?$input_adapter_character_source@V?$string_input_adapter@D@__crt_stdio_input@@@1@@Z@4QBDB 0000000180048acc     libucrt:input.obj
 0002:00006ad0       __newctype                 0000000180048ad0     libucrt:ctype.obj
 0002:00006dd0       __newclmap                 0000000180048dd0     libucrt:ctype.obj
 0002:00006f50       __newcumap                 0000000180048f50     libucrt:ctype.obj
 0002:000070d0       _wctype                    00000001800490d0     libucrt:ctype.obj
 0002:00007448       __real@3ff0000000000000    0000000180049448     libucrt:frexp.obj
 0002:00009100       __acrt_exception_action_table 000000018004b100     libucrt:exception_filter.obj
 0002:000091c0       __acrt_signal_action_table_count 000000018004b1c0     libucrt:exception_filter.obj
 0002:000091c8       __acrt_signal_action_first_fpe_index 000000018004b1c8     libucrt:exception_filter.obj
 0002:000091d0       __acrt_signal_action_fpe_count 000000018004b1d0     libucrt:exception_filter.obj
 0002:000091d8       ??_C@_1BI@BGOHAHKC@?$AAm?$AAs?$AAc?$AAo?$AAr?$AAe?$AAe?$AA?4?$AAd?$AAl?$AAl?$AA?$AA@ 000000018004b1d8     libucrt:exit.obj
 0002:000091f0       ??_C@_0P@MIGLKIOC@CorExitProcess?$AA@ 000000018004b1f0     libucrt:exit.obj
 0002:000093a0       ??_C@_1EA@JGEFHKEI@?$AAa?$AAp?$AAi?$AA?9?$AAm?$AAs?$AA?9?$AAw?$AAi?$AAn?$AA?9?$AAc?$AAo?$AAr?$AAe?$AA?9?$AAd?$AAa?$AAt?$AAe?$AAt?$AAi?$AAm?$AAe?$AA?9?$AAl?$AA1?$AA?9?$AA1?$AA?9?$AA1?$AA?$AA@ 000000018004b3a0     libucrt:winapi_thunks.obj
 0002:000093e0       ??_C@_1DM@KHCHBNEB@?$AAa?$AAp?$AAi?$AA?9?$AAm?$AAs?$AA?9?$AAw?$AAi?$AAn?$AA?9?$AAc?$AAo?$AAr?$AAe?$AA?9?$AAf?$AAi?$AAb?$AAe?$AAr?$AAs?$AA?9?$AAl?$AA1?$AA?9?$AA1?$AA?9?$AA1?$AA?$AA@ 000000018004b3e0     libucrt:winapi_thunks.obj
 0002:00009420       ??_C@_1DI@IJCEHOCB@?$AAa?$AAp?$AAi?$AA?9?$AAm?$AAs?$AA?9?$AAw?$AAi?$AAn?$AA?9?$AAc?$AAo?$AAr?$AAe?$AA?9?$AAf?$AAi?$AAl?$AAe?$AA?9?$AAl?$AA1?$AA?9?$AA2?$AA?9?$AA2?$AA?$AA@ 000000018004b420     libucrt:winapi_thunks.obj
 0002:00009460       ??_C@_1EI@MPIAOHOC@?$AAa?$AAp?$AAi?$AA?9?$AAm?$AAs?$AA?9?$AAw?$AAi?$AAn?$AA?9?$AAc?$AAo?$AAr?$AAe?$AA?9?$AAl?$AAo?$AAc?$AAa?$AAl?$AAi?$AAz?$AAa?$AAt?$AAi?$AAo?$AAn?$AA?9?$AAl?$AA1?$AA?9@ 000000018004b460     libucrt:winapi_thunks.obj
 0002:000094b0       ??_C@_1FK@FPHCKFIE@?$AAa?$AAp?$AAi?$AA?9?$AAm?$AAs?$AA?9?$AAw?$AAi?$AAn?$AA?9?$AAc?$AAo?$AAr?$AAe?$AA?9?$AAl?$AAo?$AAc?$AAa?$AAl?$AAi?$AAz?$AAa?$AAt?$AAi?$AAo?$AAn?$AA?9?$AAo?$AAb?$AAs@ 000000018004b4b0     libucrt:winapi_thunks.obj
 0002:00009510       ??_C@_1EM@DILCGIIO@?$AAa?$AAp?$AAi?$AA?9?$AAm?$AAs?$AA?9?$AAw?$AAi?$AAn?$AA?9?$AAc?$AAo?$AAr?$AAe?$AA?9?$AAp?$AAr?$AAo?$AAc?$AAe?$AAs?$AAs?$AAt?$AAh?$AAr?$AAe?$AAa?$AAd?$AAs?$AA?9?$AAl@ 000000018004b510     libucrt:winapi_thunks.obj
 0002:00009560       ??_C@_1DM@LNCGDDPN@?$AAa?$AAp?$AAi?$AA?9?$AAm?$AAs?$AA?9?$AAw?$AAi?$AAn?$AA?9?$AAc?$AAo?$AAr?$AAe?$AA?9?$AAs?$AAt?$AAr?$AAi?$AAn?$AAg?$AA?9?$AAl?$AA1?$AA?9?$AA1?$AA?9?$AA0?$AA?$AA@ 000000018004b560     libucrt:winapi_thunks.obj
 0002:000095a0       ??_C@_1DK@LPPGFMPP@?$AAa?$AAp?$AAi?$AA?9?$AAm?$AAs?$AA?9?$AAw?$AAi?$AAn?$AA?9?$AAc?$AAo?$AAr?$AAe?$AA?9?$AAs?$AAy?$AAn?$AAc?$AAh?$AA?9?$AAl?$AA1?$AA?9?$AA2?$AA?9?$AA0?$AA?$AA@ 000000018004b5a0     libucrt:winapi_thunks.obj
 0002:000095e0       ??_C@_1DO@FPAPJEMD@?$AAa?$AAp?$AAi?$AA?9?$AAm?$AAs?$AA?9?$AAw?$AAi?$AAn?$AA?9?$AAc?$AAo?$AAr?$AAe?$AA?9?$AAs?$AAy?$AAs?$AAi?$AAn?$AAf?$AAo?$AA?9?$AAl?$AA1?$AA?9?$AA2?$AA?9?$AA1?$AA?$AA@ 000000018004b5e0     libucrt:winapi_thunks.obj
 0002:00009620       ??_C@_1DK@NDHNAHIO@?$AAa?$AAp?$AAi?$AA?9?$AAm?$AAs?$AA?9?$AAw?$AAi?$AAn?$AA?9?$AAc?$AAo?$AAr?$AAe?$AA?9?$AAw?$AAi?$AAn?$AAr?$AAt?$AA?9?$AAl?$AA1?$AA?9?$AA1?$AA?9?$AA0?$AA?$AA@ 000000018004b620     libucrt:winapi_thunks.obj
 0002:00009660       ??_C@_1DM@KGHDGBCM@?$AAa?$AAp?$AAi?$AA?9?$AAm?$AAs?$AA?9?$AAw?$AAi?$AAn?$AA?9?$AAc?$AAo?$AAr?$AAe?$AA?9?$AAx?$AAs?$AAt?$AAa?$AAt?$AAe?$AA?9?$AAl?$AA2?$AA?9?$AA1?$AA?9?$AA0?$AA?$AA@ 000000018004b660     libucrt:winapi_thunks.obj
 0002:000096a0       ??_C@_1EO@IJIOEFOH@?$AAa?$AAp?$AAi?$AA?9?$AAm?$AAs?$AA?9?$AAw?$AAi?$AAn?$AA?9?$AAr?$AAt?$AAc?$AAo?$AAr?$AAe?$AA?9?$AAn?$AAt?$AAu?$AAs?$AAe?$AAr?$AA?9?$AAw?$AAi?$AAn?$AAd?$AAo?$AAw?$AA?9@ 000000018004b6a0     libucrt:winapi_thunks.obj
 0002:000096f0       ??_C@_1FG@HHGEKANL@?$AAa?$AAp?$AAi?$AA?9?$AAm?$AAs?$AA?9?$AAw?$AAi?$AAn?$AA?9?$AAs?$AAe?$AAc?$AAu?$AAr?$AAi?$AAt?$AAy?$AA?9?$AAs?$AAy?$AAs?$AAt?$AAe?$AAm?$AAf?$AAu?$AAn?$AAc?$AAt?$AAi@ 000000018004b6f0     libucrt:winapi_thunks.obj
 0002:00009750       ??_C@_1EG@DBIOJECG@?$AAe?$AAx?$AAt?$AA?9?$AAm?$AAs?$AA?9?$AAw?$AAi?$AAn?$AA?9?$AAn?$AAt?$AAu?$AAs?$AAe?$AAr?$AA?9?$AAd?$AAi?$AAa?$AAl?$AAo?$AAg?$AAb?$AAo?$AAx?$AA?9?$AAl?$AA1?$AA?9?$AA1@ 000000018004b750     libucrt:winapi_thunks.obj
 0002:000097a0       ??_C@_1EO@FIHMJCLF@?$AAe?$AAx?$AAt?$AA?9?$AAm?$AAs?$AA?9?$AAw?$AAi?$AAn?$AA?9?$AAn?$AAt?$AAu?$AAs?$AAe?$AAr?$AA?9?$AAw?$AAi?$AAn?$AAd?$AAo?$AAw?$AAs?$AAt?$AAa?$AAt?$AAi?$AAo?$AAn?$AA?9@ 000000018004b7a0     libucrt:winapi_thunks.obj
 0002:000097f0       ??_C@_1BC@DNHGCMLG@?$AAa?$AAd?$AAv?$AAa?$AAp?$AAi?$AA3?$AA2?$AA?$AA@ 000000018004b7f0     libucrt:winapi_thunks.obj
 0002:00009808       ??_C@_1BC@GDMECMAK@?$AAk?$AAe?$AAr?$AAn?$AAe?$AAl?$AA3?$AA2?$AA?$AA@ 000000018004b808     libucrt:winapi_thunks.obj
 0002:00009820       ??_C@_1M@OAIMIKLP@?$AAn?$AAt?$AAd?$AAl?$AAl?$AA?$AA@ 000000018004b820     libucrt:winapi_thunks.obj
 0002:00009830       ??_C@_1EG@DPGNFKGC@?$AAa?$AAp?$AAi?$AA?9?$AAm?$AAs?$AA?9?$AAw?$AAi?$AAn?$AA?9?$AAa?$AAp?$AAp?$AAm?$AAo?$AAd?$AAe?$AAl?$AA?9?$AAr?$AAu?$AAn?$AAt?$AAi?$AAm?$AAe?$AA?9?$AAl?$AA1?$AA?9?$AA1@ 000000018004b830     libucrt:winapi_thunks.obj
 0002:00009878       ??_C@_1O@BCCLBEOE@?$AAu?$AAs?$AAe?$AAr?$AA3?$AA2?$AA?$AA@ 000000018004b878     libucrt:winapi_thunks.obj
 0002:00009888       ??_C@_1BA@PFFKHIOG@?$AAa?$AAp?$AAi?$AA?9?$AAm?$AAs?$AA?9?$AA?$AA@ 000000018004b888     libucrt:winapi_thunks.obj
 0002:00009898       ??_C@_1BA@IAIFMGEF@?$AAe?$AAx?$AAt?$AA?9?$AAm?$AAs?$AA?9?$AA?$AA@ 000000018004b898     libucrt:winapi_thunks.obj
 0002:000098b0       ??_C@_0BA@FHFNEAED@AreFileApisANSI?$AA@ 000000018004b8b0     libucrt:winapi_thunks.obj
 0002:000098c8       ??_C@_0BA@IHGNDAEB@CompareStringEx?$AA@ 000000018004b8c8     libucrt:winapi_thunks.obj
 0002:000098e0       ??_C@_0BE@LJANKFHF@EnumSystemLocalesEx?$AA@ 000000018004b8e0     libucrt:winapi_thunks.obj
 0002:00009900       ??_C@_08KNHFBNJ@FlsAlloc?$AA@ 000000018004b900     libucrt:winapi_thunks.obj
 0002:00009918       ??_C@_07PEJMOBNF@FlsFree?$AA@ 000000018004b918     libucrt:winapi_thunks.obj
 0002:00009928       ??_C@_0M@GDNOONDI@FlsGetValue?$AA@ 000000018004b928     libucrt:winapi_thunks.obj
 0002:00009940       ??_C@_0M@JCPCPOEF@FlsSetValue?$AA@ 000000018004b940     libucrt:winapi_thunks.obj
 0002:00009958       ??_C@_0BA@HNOPNCHB@GetActiveWindow?$AA@ 000000018004b958     libucrt:winapi_thunks.obj
 0002:00009970       ??_C@_0BA@EPCJIIPD@GetDateFormatEx?$AA@ 000000018004b970     libucrt:winapi_thunks.obj
 0002:00009988       ??_C@_0BD@HHGDFDBJ@GetLastActivePopup?$AA@ 000000018004b988     libucrt:winapi_thunks.obj
 0002:000099a8       ??_C@_0BA@ONOKGCMP@GetLocaleInfoEx?$AA@ 000000018004b9a8     libucrt:winapi_thunks.obj
 0002:000099c0       ??_C@_0BI@DFKBFLJE@GetProcessWindowStation?$AA@ 000000018004b9c0     libucrt:winapi_thunks.obj
 0002:000099e0       ??_C@_0BA@CIJJKCJJ@GetTimeFormatEx?$AA@ 000000018004b9e0     libucrt:winapi_thunks.obj
 0002:000099f8       ??_C@_0BJ@PBCCBIPI@GetUserDefaultLocaleName?$AA@ 000000018004b9f8     libucrt:winapi_thunks.obj
 0002:00009a20       ??_C@_0BK@DEKFELLI@GetUserObjectInformationW?$AA@ 000000018004ba20     libucrt:winapi_thunks.obj
 0002:00009a48       ??_C@_0BM@HCFOFFN@InitializeCriticalSectionEx?$AA@ 000000018004ba48     libucrt:winapi_thunks.obj
 0002:00009a70       ??_C@_0BC@CELBKLLA@IsValidLocaleName?$AA@ 000000018004ba70     libucrt:winapi_thunks.obj
 0002:00009a90       ??_C@_0O@KKBNKAPF@LCMapStringEx?$AA@ 000000018004ba90     libucrt:winapi_thunks.obj
 0002:00009aa8       ??_C@_0BB@CDHDDLLP@LCIDToLocaleName?$AA@ 000000018004baa8     libucrt:winapi_thunks.obj
 0002:00009ac8       ??_C@_0BB@HBDEELFH@LocaleNameToLCID?$AA@ 000000018004bac8     libucrt:winapi_thunks.obj
 0002:00009ae8       ??_C@_0M@CHKKJDAI@MessageBoxA?$AA@ 000000018004bae8     libucrt:winapi_thunks.obj
 0002:00009b00       ??_C@_0M@DLDCCGNP@MessageBoxW?$AA@ 000000018004bb00     libucrt:winapi_thunks.obj
 0002:00009b10       ??_C@_0CF@OJOFEIGO@AppPolicyGetProcessTerminationMe@ 000000018004bb10     libucrt:winapi_thunks.obj
 0002:00009b40       ??_C@_0CE@OICFMIKE@AppPolicyGetShowDeveloperDiagnos@ 000000018004bb40     libucrt:winapi_thunks.obj
 0002:00009b68       ??_C@_0BL@ODDJNEDA@AppPolicyGetWindowingModel?$AA@ 000000018004bb68     libucrt:winapi_thunks.obj
 0002:00009b84       ??_C@_03OEIAHPBN@INF?$AA@  000000018004bb84     libucrt:cvt.obj
 0002:00009b88       ??_C@_03OJHLLCGB@inf?$AA@  000000018004bb88     libucrt:cvt.obj
 0002:00009b8c       ??_C@_03LKNCIKJB@NAN?$AA@  000000018004bb8c     libucrt:cvt.obj
 0002:00009b90       ??_C@_03LHCJEHON@nan?$AA@  000000018004bb90     libucrt:cvt.obj
 0002:00009b98       ??_C@_09OFJJIMPC@NAN?$CISNAN?$CJ?$AA@ 000000018004bb98     libucrt:cvt.obj
 0002:00009ba8       ??_C@_09IPFBKMDL@nan?$CIsnan?$CJ?$AA@ 000000018004bba8     libucrt:cvt.obj
 0002:00009bb8       ??_C@_08IKHNHAJ@NAN?$CIIND?$CJ?$AA@ 000000018004bbb8     libucrt:cvt.obj
 0002:00009bc8       ??_C@_08OFCDMILK@nan?$CIind?$CJ?$AA@ 000000018004bbc8     libucrt:cvt.obj
 0002:00009bd4       ??_C@_05KLBDPFGC@e?$CL000?$AA@ 000000018004bbd4     libucrt:cvt.obj
 0002:00009c60       __lc_category              000000018004bc60     libucrt:wsetlocale.obj
 0002:00009cf0       ??_C@_1O@GIFLHMA@?$AAL?$AAC?$AA_?$AAA?$AAL?$AAL?$AA?$AA@ 000000018004bcf0     libucrt:wsetlocale.obj
 0002:00009d00       ??_C@_1BG@PPOMIBNJ@?$AAL?$AAC?$AA_?$AAC?$AAO?$AAL?$AAL?$AAA?$AAT?$AAE?$AA?$AA@ 000000018004bd00     libucrt:wsetlocale.obj
 0002:00009d18       ??_C@_1BC@FFJGAPJM@?$AAL?$AAC?$AA_?$AAC?$AAT?$AAY?$AAP?$AAE?$AA?$AA@ 000000018004bd18     libucrt:wsetlocale.obj
 0002:00009d30       ??_C@_1BI@PCKFNJFB@?$AAL?$AAC?$AA_?$AAM?$AAO?$AAN?$AAE?$AAT?$AAA?$AAR?$AAY?$AA?$AA@ 000000018004bd30     libucrt:wsetlocale.obj
 0002:00009d48       ??_C@_1BG@ENIEDKID@?$AAL?$AAC?$AA_?$AAN?$AAU?$AAM?$AAE?$AAR?$AAI?$AAC?$AA?$AA@ 000000018004bd48     libucrt:wsetlocale.obj
 0002:00009d60       ??_C@_1BA@HAAOMIIG@?$AAL?$AAC?$AA_?$AAT?$AAI?$AAM?$AAE?$AA?$AA@ 000000018004bd60     libucrt:wsetlocale.obj
 0002:00009d70       ??_C@_15NBPDDFIP@?$AA?$DN?$AA?$DL?$AA?$AA@ 000000018004bd70     libucrt:wsetlocale.obj
 0002:00009d78       ??_C@_13PJJBFPED@?$AA?$DL?$AA?$AA@ 000000018004bd78     libucrt:wsetlocale.obj
 0002:00009d7c       ??_C@_13NMPKAAJP@?$AA?$DN?$AA?$AA@ 000000018004bd7c     libucrt:wsetlocale.obj
 0002:00009d80       ??_C@_13FHBKNHDA@?$AAC?$AA?$AA@ 000000018004bd80     libucrt:wsetlocale.obj
 0002:00009d88       ??_C@_19MPDNHKDG@?$AAu?$AAt?$AAf?$AA8?$AA?$AA@ 000000018004bd88     libucrt:wsetlocale.obj
 0002:00009d98       ??_C@_1M@FPEIIFAM@?$AAu?$AAt?$AAf?$AA?9?$AA8?$AA?$AA@ 000000018004bd98     libucrt:wsetlocale.obj
 0002:00009da8       ??_C@_17MBJJLFDM@?$AA_?$AA?4?$AA?0?$AA?$AA@ 000000018004bda8     libucrt:wsetlocale.obj
 0002:00009db0       ??_C@_13ENNFDPBH@?$AA_?$AA?$AA@ 000000018004bdb0     libucrt:wsetlocale.obj
 0002:00009db4       ??_C@_13JOFGPIOO@?$AA?4?$AA?$AA@ 000000018004bdb4     libucrt:wsetlocale.obj
 0002:00009dc0       __lc_time_c                000000018004bdc0     libucrt:nlsdata.obj
 0002:0000a080       ??_C@_03KOEHGMDN@Sun?$AA@  000000018004c080     libucrt:nlsdata.obj
 0002:0000a084       ??_C@_03PDAGKDH@Mon?$AA@   000000018004c084     libucrt:nlsdata.obj
 0002:0000a088       ??_C@_03NAGEINEP@Tue?$AA@  000000018004c088     libucrt:nlsdata.obj
 0002:0000a08c       ??_C@_03MHOMLAJA@Wed?$AA@  000000018004c08c     libucrt:nlsdata.obj
 0002:0000a090       ??_C@_03IOFIKPDN@Thu?$AA@  000000018004c090     libucrt:nlsdata.obj
 0002:0000a094       ??_C@_03IDIOELNC@Fri?$AA@  000000018004c094     libucrt:nlsdata.obj
 0002:0000a098       ??_C@_03FEFJNEK@Sat?$AA@   000000018004c098     libucrt:nlsdata.obj
 0002:0000a09c       ??_C@_06OOPIFAJ@Sunday?$AA@ 000000018004c09c     libucrt:nlsdata.obj
 0002:0000a0a4       ??_C@_06JLEDEDGH@Monday?$AA@ 000000018004c0a4     libucrt:nlsdata.obj
 0002:0000a0b0       ??_C@_07BAAGCFCM@Tuesday?$AA@ 000000018004c0b0     libucrt:nlsdata.obj
 0002:0000a0b8       ??_C@_09DLIGFAKA@Wednesday?$AA@ 000000018004c0b8     libucrt:nlsdata.obj
 0002:0000a0c8       ??_C@_08HACCIKIA@Thursday?$AA@ 000000018004c0c8     libucrt:nlsdata.obj
 0002:0000a0d4       ??_C@_06JECMNKMI@Friday?$AA@ 000000018004c0d4     libucrt:nlsdata.obj
 0002:0000a0e0       ??_C@_08INBOOONO@Saturday?$AA@ 000000018004c0e0     libucrt:nlsdata.obj
 0002:0000a0ec       ??_C@_03JIHJHPIE@Jan?$AA@  000000018004c0ec     libucrt:nlsdata.obj
 0002:0000a0f0       ??_C@_03HJBDCHOM@Feb?$AA@  000000018004c0f0     libucrt:nlsdata.obj
 0002:0000a0f4       ??_C@_03ODNJBKGA@Mar?$AA@  000000018004c0f4     libucrt:nlsdata.obj
 0002:0000a0f8       ??_C@_03LEOLGMJP@Apr?$AA@  000000018004c0f8     libucrt:nlsdata.obj
 0002:0000a0fc       ??_C@_03CNMDKL@May?$AA@    000000018004c0fc     libucrt:nlsdata.obj
 0002:0000a100       ??_C@_03IDFGHECI@Jun?$AA@  000000018004c100     libucrt:nlsdata.obj
 0002:0000a104       ??_C@_03LBGABGKK@Jul?$AA@  000000018004c104     libucrt:nlsdata.obj
 0002:0000a108       ??_C@_03IFJFEIGA@Aug?$AA@  000000018004c108     libucrt:nlsdata.obj
 0002:0000a10c       ??_C@_03GGCAPAJC@Sep?$AA@  000000018004c10c     libucrt:nlsdata.obj
 0002:0000a110       ??_C@_03BMAOKBAD@Oct?$AA@  000000018004c110     libucrt:nlsdata.obj
 0002:0000a114       ??_C@_03JPJOFNIA@Nov?$AA@  000000018004c114     libucrt:nlsdata.obj
 0002:0000a118       ??_C@_03MKABNOCG@Dec?$AA@  000000018004c118     libucrt:nlsdata.obj
 0002:0000a120       ??_C@_07CGJPFGJA@January?$AA@ 000000018004c120     libucrt:nlsdata.obj
 0002:0000a128       ??_C@_08GNJGEPFN@February?$AA@ 000000018004c128     libucrt:nlsdata.obj
 0002:0000a134       ??_C@_05HPCKOFNC@March?$AA@ 000000018004c134     libucrt:nlsdata.obj
 0002:0000a13c       ??_C@_05DMJDNLEJ@April?$AA@ 000000018004c13c     libucrt:nlsdata.obj
 0002:0000a144       ??_C@_04CNLMGBGM@June?$AA@ 000000018004c144     libucrt:nlsdata.obj
 0002:0000a14c       ??_C@_04MIEPOIFP@July?$AA@ 000000018004c14c     libucrt:nlsdata.obj
 0002:0000a154       ??_C@_06LBBHFDDG@August?$AA@ 000000018004c154     libucrt:nlsdata.obj
 0002:0000a160       ??_C@_09BHHEALKD@September?$AA@ 000000018004c160     libucrt:nlsdata.obj
 0002:0000a170       ??_C@_07JJNFCEND@October?$AA@ 000000018004c170     libucrt:nlsdata.obj
 0002:0000a178       ??_C@_08HCHEGEOA@November?$AA@ 000000018004c178     libucrt:nlsdata.obj
 0002:0000a188       ??_C@_08EDHMEBNP@December?$AA@ 000000018004c188     libucrt:nlsdata.obj
 0002:0000a194       ??_C@_02DEDBPAFC@AM?$AA@   000000018004c194     libucrt:nlsdata.obj
 0002:0000a198       ??_C@_02CJNFDJBF@PM?$AA@   000000018004c198     libucrt:nlsdata.obj
 0002:0000a1a0       ??_C@_08BPBNCDIB@MM?1dd?1yy?$AA@ 000000018004c1a0     libucrt:nlsdata.obj
 0002:0000a1b0       ??_C@_0BE@CKGJFCPC@dddd?0?5MMMM?5dd?0?5yyyy?$AA@ 000000018004c1b0     libucrt:nlsdata.obj
 0002:0000a1c8       ??_C@_08JCCMCCIL@HH?3mm?3ss?$AA@ 000000018004c1c8     libucrt:nlsdata.obj
 0002:0000a1d8       ??_C@_17MBGCMIPB@?$AAS?$AAu?$AAn?$AA?$AA@ 000000018004c1d8     libucrt:nlsdata.obj
 0002:0000a1e0       ??_C@_17KBOMKBF@?$AAM?$AAo?$AAn?$AA?$AA@ 000000018004c1e0     libucrt:nlsdata.obj
 0002:0000a1e8       ??_C@_17BMKGEGOJ@?$AAT?$AAu?$AAe?$AA?$AA@ 000000018004c1e8     libucrt:nlsdata.obj
 0002:0000a1f0       ??_C@_17CJEDCEPE@?$AAW?$AAe?$AAd?$AA?$AA@ 000000018004c1f0     libucrt:nlsdata.obj
 0002:0000a1f8       ??_C@_17PDPHAADD@?$AAT?$AAh?$AAu?$AA?$AA@ 000000018004c1f8     libucrt:nlsdata.obj
 0002:0000a200       ??_C@_17HFOLPPLP@?$AAF?$AAr?$AAi?$AA?$AA@ 000000018004c200     libucrt:nlsdata.obj
 0002:0000a208       ??_C@_17GGIBDPIH@?$AAS?$AAa?$AAt?$AA?$AA@ 000000018004c208     libucrt:nlsdata.obj
 0002:0000a210       ??_C@_1O@IHNHDHPB@?$AAS?$AAu?$AAn?$AAd?$AAa?$AAy?$AA?$AA@ 000000018004c210     libucrt:nlsdata.obj
 0002:0000a220       ??_C@_1O@MMNBFLIA@?$AAM?$AAo?$AAn?$AAd?$AAa?$AAy?$AA?$AA@ 000000018004c220     libucrt:nlsdata.obj
 0002:0000a230       ??_C@_1BA@ENFBFFEK@?$AAT?$AAu?$AAe?$AAs?$AAd?$AAa?$AAy?$AA?$AA@ 000000018004c230     libucrt:nlsdata.obj
 0002:0000a240       ??_C@_1BE@EBOGMDOH@?$AAW?$AAe?$AAd?$AAn?$AAe?$AAs?$AAd?$AAa?$AAy?$AA?$AA@ 000000018004c240     libucrt:nlsdata.obj
 0002:0000a258       ??_C@_1BC@HHMNLIHE@?$AAT?$AAh?$AAu?$AAr?$AAs?$AAd?$AAa?$AAy?$AA?$AA@ 000000018004c258     libucrt:nlsdata.obj
 0002:0000a270       ??_C@_1O@PDICJHAG@?$AAF?$AAr?$AAi?$AAd?$AAa?$AAy?$AA?$AA@ 000000018004c270     libucrt:nlsdata.obj
 0002:0000a280       ??_C@_1BC@ENMNNPAJ@?$AAS?$AAa?$AAt?$AAu?$AAr?$AAd?$AAa?$AAy?$AA?$AA@ 000000018004c280     libucrt:nlsdata.obj
 0002:0000a298       ??_C@_17DKNBKCHM@?$AAJ?$AAa?$AAn?$AA?$AA@ 000000018004c298     libucrt:nlsdata.obj
 0002:0000a2a0       ??_C@_17LMDJEKJN@?$AAF?$AAe?$AAb?$AA?$AA@ 000000018004c2a0     libucrt:nlsdata.obj
 0002:0000a2a8       ??_C@_17CKNLEDEC@?$AAM?$AAa?$AAr?$AA?$AA@ 000000018004c2a8     libucrt:nlsdata.obj
 0002:0000a2b0       ??_C@_17LFPOIHDD@?$AAA?$AAp?$AAr?$AA?$AA@ 000000018004c2b0     libucrt:nlsdata.obj
 0002:0000a2b8       ??_C@_17PNNKMEED@?$AAM?$AAa?$AAy?$AA?$AA@ 000000018004c2b8     libucrt:nlsdata.obj
 0002:0000a2c0       ??_C@_17KCJGOCPB@?$AAJ?$AAu?$AAn?$AA?$AA@ 000000018004c2c0     libucrt:nlsdata.obj
 0002:0000a2c8       ??_C@_17IJPCKHK@?$AAJ?$AAu?$AAl?$AA?$AA@ 000000018004c2c8     libucrt:nlsdata.obj
 0002:0000a2d0       ??_C@_17ICPELBCN@?$AAA?$AAu?$AAg?$AA?$AA@ 000000018004c2d0     libucrt:nlsdata.obj
 0002:0000a2d8       ??_C@_17HCHCOKMG@?$AAS?$AAe?$AAp?$AA?$AA@ 000000018004c2d8     libucrt:nlsdata.obj
 0002:0000a2e0       ??_C@_17FNLKOI@?$AAO?$AAc?$AAt?$AA?$AA@ 000000018004c2e0     libucrt:nlsdata.obj
 0002:0000a2e8       ??_C@_17BBDMLCIG@?$AAN?$AAo?$AAv?$AA?$AA@ 000000018004c2e8     libucrt:nlsdata.obj
 0002:0000a2f0       ??_C@_17EGKACKIF@?$AAD?$AAe?$AAc?$AA?$AA@ 000000018004c2f0     libucrt:nlsdata.obj
 0002:0000a2f8       ??_C@_1BA@EFMEIEBA@?$AAJ?$AAa?$AAn?$AAu?$AAa?$AAr?$AAy?$AA?$AA@ 000000018004c2f8     libucrt:nlsdata.obj
 0002:0000a308       ??_C@_1BC@JGDDFFAM@?$AAF?$AAe?$AAb?$AAr?$AAu?$AAa?$AAr?$AAy?$AA?$AA@ 000000018004c308     libucrt:nlsdata.obj
 0002:0000a320       ??_C@_1M@IKEENEDF@?$AAM?$AAa?$AAr?$AAc?$AAh?$AA?$AA@ 000000018004c320     libucrt:nlsdata.obj
 0002:0000a330       ??_C@_1M@GJNLMHFD@?$AAA?$AAp?$AAr?$AAi?$AAl?$AA?$AA@ 000000018004c330     libucrt:nlsdata.obj
 0002:0000a340       ??_C@_19EPFLPGAP@?$AAJ?$AAu?$AAn?$AAe?$AA?$AA@ 000000018004c340     libucrt:nlsdata.obj
 0002:0000a350       ??_C@_19BIFMLPCD@?$AAJ?$AAu?$AAl?$AAy?$AA?$AA@ 000000018004c350     libucrt:nlsdata.obj
 0002:0000a360       ??_C@_1O@PAHLKOAC@?$AAA?$AAu?$AAg?$AAu?$AAs?$AAt?$AA?$AA@ 000000018004c360     libucrt:nlsdata.obj
 0002:0000a370       ??_C@_1BE@DKAAMBJL@?$AAS?$AAe?$AAp?$AAt?$AAe?$AAm?$AAb?$AAe?$AAr?$AA?$AA@ 000000018004c370     libucrt:nlsdata.obj
 0002:0000a388       ??_C@_1BA@EPANDLNG@?$AAO?$AAc?$AAt?$AAo?$AAb?$AAe?$AAr?$AA?$AA@ 000000018004c388     libucrt:nlsdata.obj
 0002:0000a398       ??_C@_1BC@BGLIFPF@?$AAN?$AAo?$AAv?$AAe?$AAm?$AAb?$AAe?$AAr?$AA?$AA@ 000000018004c398     libucrt:nlsdata.obj
 0002:0000a3b0       ??_C@_1BC@FEMKIFH@?$AAD?$AAe?$AAc?$AAe?$AAm?$AAb?$AAe?$AAr?$AA?$AA@ 000000018004c3b0     libucrt:nlsdata.obj
 0002:0000a3c4       ??_C@_15ODEHAHHF@?$AAA?$AAM?$AA?$AA@ 000000018004c3c4     libucrt:nlsdata.obj
 0002:0000a3cc       ??_C@_15CLMNNGEL@?$AAP?$AAM?$AA?$AA@ 000000018004c3cc     libucrt:nlsdata.obj
 0002:0000a3d8       ??_C@_1BC@IEBCMHCM@?$AAM?$AAM?$AA?1?$AAd?$AAd?$AA?1?$AAy?$AAy?$AA?$AA@ 000000018004c3d8     libucrt:nlsdata.obj
 0002:0000a3f0       ??_C@_1CI@KNAKOEBC@?$AAd?$AAd?$AAd?$AAd?$AA?0?$AA?5?$AAM?$AAM?$AAM?$AAM?$AA?5?$AAd?$AAd?$AA?0?$AA?5?$AAy?$AAy?$AAy?$AAy?$AA?$AA@ 000000018004c3f0     libucrt:nlsdata.obj
 0002:0000a418       ??_C@_1BC@GDGBMEMK@?$AAH?$AAH?$AA?3?$AAm?$AAm?$AA?3?$AAs?$AAs?$AA?$AA@ 000000018004c418     libucrt:nlsdata.obj
 0002:0000a430       ??_C@_1M@BMHNFIME@?$AAe?$AAn?$AA?9?$AAU?$AAS?$AA?$AA@ 000000018004c430     libucrt:nlsdata.obj
 0002:0000a468       ?ccs@?1???$__acrt_stdio_parse_mode@D@@YA?AU__acrt_stdio_stream_mode@@QEBD@Z@4QBDB 000000018004c468     libucrt:openfile.obj
 0002:0000a46c       ?utf8_encoding@?1???$__acrt_stdio_parse_mode@D@@YA?AU__acrt_stdio_stream_mode@@QEBD@Z@4QBDB 000000018004c46c     libucrt:openfile.obj
 0002:0000a478       ?utf16_encoding@?1???$__acrt_stdio_parse_mode@D@@YA?AU__acrt_stdio_stream_mode@@QEBD@Z@4QBDB 000000018004c478     libucrt:openfile.obj
 0002:0000a480       ?unicode_encoding@?1???$__acrt_stdio_parse_mode@D@@YA?AU__acrt_stdio_stream_mode@@QEBD@Z@4QBDB 000000018004c480     libucrt:openfile.obj
 0002:0000a488       ??_C@_03JGHBODFD@pow?$AA@  000000018004c488     libucrt:fpexcept.obj
 0002:0000a48c       ??_C@_05HGHHAHAP@log10?$AA@ 000000018004c48c     libucrt:fpexcept.obj
 0002:0000a4a0       __log_256_lead             000000018004c4a0     libucrt:log_256_lead_tail_table.obj
 0002:0000acb0       __log_256_tail             000000018004ccb0     libucrt:log_256_lead_tail_table.obj
 0002:0000b4c0       __two_to_jby64_head_table  000000018004d4c0     libucrt:two_to_jby64_head_tail_table.obj
 0002:0000b6c0       __two_to_jby64_tail_table  000000018004d6c0     libucrt:two_to_jby64_head_tail_table.obj
 0002:0000b8c0       ??_C@_04MBFDLNIM@powf?$AA@ 000000018004d8c0     libucrt:pow_special.obj
 0002:0000b8d0       __two_to_jby64_table       000000018004d8d0     libucrt:two_to_jby64_table.obj
 0002:0000bad0       __log_F_inv_qword          000000018004dad0     libucrt:log_f_inv_qword_table.obj
 0002:0000c300       ??_C@_1M@HPNHIDJI@?$AAj?$AAa?$AA?9?$AAJ?$AAP?$AA?$AA@ 000000018004e300     libucrt:mbctype.obj
 0002:0000c310       ??_C@_1M@BIBDDEMK@?$AAz?$AAh?$AA?9?$AAC?$AAN?$AA?$AA@ 000000018004e310     libucrt:mbctype.obj
 0002:0000c320       ??_C@_1M@JLOOOEGK@?$AAk?$AAo?$AA?9?$AAK?$AAR?$AA?$AA@ 000000018004e320     libucrt:mbctype.obj
 0002:0000c330       ??_C@_1M@CLNBBOPM@?$AAz?$AAh?$AA?9?$AAT?$AAW?$AA?$AA@ 000000018004e330     libucrt:mbctype.obj
 0002:0000c33c       ??_C@_00CNPNBAHC@?$AA@     000000018004e33c     libucrt:mbrtowc.obj
 0002:0000d180       ??_C@_15EMKDOKLE@?$AAa?$AAr?$AA?$AA@ 000000018004f180     libucrt:lcidtoname_downlevel.obj
 0002:0000d188       ??_C@_15KNPADPLH@?$AAb?$AAg?$AA?$AA@ 000000018004f188     libucrt:lcidtoname_downlevel.obj
 0002:0000d190       ??_C@_15EDMHLDMO@?$AAc?$AAa?$AA?$AA@ 000000018004f190     libucrt:lcidtoname_downlevel.obj
 0002:0000d198       ??_C@_1O@BPEAJADD@?$AAz?$AAh?$AA?9?$AAC?$AAH?$AAS?$AA?$AA@ 000000018004f198     libucrt:lcidtoname_downlevel.obj
 0002:0000d1a8       ??_C@_15LJNHCMNK@?$AAc?$AAs?$AA?$AA@ 000000018004f1a8     libucrt:lcidtoname_downlevel.obj
 0002:0000d1b0       ??_C@_15FOMCIDHG@?$AAd?$AAa?$AA?$AA@ 000000018004f1b0     libucrt:lcidtoname_downlevel.obj
 0002:0000d1b8       ??_C@_15NBKABECB@?$AAd?$AAe?$AA?$AA@ 000000018004f1b8     libucrt:lcidtoname_downlevel.obj
 0002:0000d1c0       ??_C@_15GHPEIIAO@?$AAe?$AAl?$AA?$AA@ 000000018004f1c0     libucrt:lcidtoname_downlevel.obj
 0002:0000d1c8       ??_C@_15MNPNEAIF@?$AAe?$AAn?$AA?$AA@ 000000018004f1c8     libucrt:lcidtoname_downlevel.obj
 0002:0000d1d0       ??_C@_15GPIOMPMH@?$AAe?$AAs?$AA?$AA@ 000000018004f1d0     libucrt:lcidtoname_downlevel.obj
 0002:0000d1d8       ??_C@_15NGLOAKJC@?$AAf?$AAi?$AA?$AA@ 000000018004f1d8     libucrt:lcidtoname_downlevel.obj
 0002:0000d1e0       ??_C@_15FBKGNKAM@?$AAf?$AAr?$AA?$AA@ 000000018004f1e0     libucrt:lcidtoname_downlevel.obj
 0002:0000d1e8       ??_C@_15KGGCNEFK@?$AAh?$AAe?$AA?$AA@ 000000018004f1e8     libucrt:lcidtoname_downlevel.obj
 0002:0000d1f0       ??_C@_15PGHLIDMF@?$AAh?$AAu?$AA?$AA@ 000000018004f1f0     libucrt:lcidtoname_downlevel.obj
 0002:0000d1f8       ??_C@_15BIEMAPLM@?$AAi?$AAs?$AA?$AA@ 000000018004f1f8     libucrt:lcidtoname_downlevel.obj
 0002:0000d200       ??_C@_15IFJLDHAF@?$AAi?$AAt?$AA?$AA@ 000000018004f200     libucrt:lcidtoname_downlevel.obj
 0002:0000d208       ??_C@_15GEMIOCAG@?$AAj?$AAa?$AA?$AA@ 000000018004f208     libucrt:lcidtoname_downlevel.obj
 0002:0000d210       ??_C@_15EPELEGJA@?$AAk?$AAo?$AA?$AA@ 000000018004f210     libucrt:lcidtoname_downlevel.obj
 0002:0000d218       ??_C@_15NDDHIMN@?$AAn?$AAl?$AA?$AA@ 000000018004f218     libucrt:lcidtoname_downlevel.obj
 0002:0000d220       ??_C@_15BPIGNHCD@?$AAn?$AAo?$AA?$AA@ 000000018004f220     libucrt:lcidtoname_downlevel.obj
 0002:0000d228       ??_C@_15DEOPBLCG@?$AAp?$AAl?$AA?$AA@ 000000018004f228     libucrt:lcidtoname_downlevel.obj
 0002:0000d230       ??_C@_15KBECGEFG@?$AAp?$AAt?$AA?$AA@ 000000018004f230     libucrt:lcidtoname_downlevel.obj
 0002:0000d238       ??_C@_15GLJCBFMD@?$AAr?$AAo?$AA?$AA@ 000000018004f238     libucrt:lcidtoname_downlevel.obj
 0002:0000d240       ??_C@_15FEDGKCDI@?$AAr?$AAu?$AA?$AA@ 000000018004f240     libucrt:lcidtoname_downlevel.obj
 0002:0000d248       ??_C@_15GLKMLLHM@?$AAh?$AAr?$AA?$AA@ 000000018004f248     libucrt:lcidtoname_downlevel.obj
 0002:0000d250       ??_C@_15CPKMFBDB@?$AAs?$AAk?$AA?$AA@ 000000018004f250     libucrt:lcidtoname_downlevel.obj
 0002:0000d258       ??_C@_15BAAIOGMK@?$AAs?$AAq?$AA?$AA@ 000000018004f258     libucrt:lcidtoname_downlevel.obj
 0002:0000d260       ??_C@_15INNPNOHD@?$AAs?$AAv?$AA?$AA@ 000000018004f260     libucrt:lcidtoname_downlevel.obj
 0002:0000d268       ??_C@_15CABMMOGH@?$AAt?$AAh?$AA?$AA@ 000000018004f268     libucrt:lcidtoname_downlevel.obj
 0002:0000d270       ??_C@_15BPLIHJJM@?$AAt?$AAr?$AA?$AA@ 000000018004f270     libucrt:lcidtoname_downlevel.obj
 0002:0000d278       ??_C@_15NEOEKKDJ@?$AAu?$AAr?$AA?$AA@ 000000018004f278     libucrt:lcidtoname_downlevel.obj
 0002:0000d280       ??_C@_15NFICGAJK@?$AAi?$AAd?$AA?$AA@ 000000018004f280     libucrt:lcidtoname_downlevel.obj
 0002:0000d288       ??_C@_15PJPFLCCM@?$AAu?$AAk?$AA?$AA@ 000000018004f288     libucrt:lcidtoname_downlevel.obj
 0002:0000d290       ??_C@_15HPJPHDM@?$AAb?$AAe?$AA?$AA@ 000000018004f290     libucrt:lcidtoname_downlevel.obj
 0002:0000d298       ??_C@_15LCHLGJII@?$AAs?$AAl?$AA?$AA@ 000000018004f298     libucrt:lcidtoname_downlevel.obj
 0002:0000d2a0       ??_C@_15PCFJPHHO@?$AAe?$AAt?$AA?$AA@ 000000018004f2a0     libucrt:lcidtoname_downlevel.obj
 0002:0000d2a8       ??_C@_15HPFPGODN@?$AAl?$AAv?$AA?$AA@ 000000018004f2a8     libucrt:lcidtoname_downlevel.obj
 0002:0000d2b0       ??_C@_15NFFGKGLG@?$AAl?$AAt?$AA?$AA@ 000000018004f2b0     libucrt:lcidtoname_downlevel.obj
 0002:0000d2b8       ??_C@_15BDAKCCHN@?$AAf?$AAa?$AA?$AA@ 000000018004f2b8     libucrt:lcidtoname_downlevel.obj
 0002:0000d2c0       ??_C@_15NFGIAIAJ@?$AAv?$AAi?$AA?$AA@ 000000018004f2c0     libucrt:lcidtoname_downlevel.obj
 0002:0000d2c8       ??_C@_15LMKNDMHN@?$AAh?$AAy?$AA?$AA@ 000000018004f2c8     libucrt:lcidtoname_downlevel.obj
 0002:0000d2d0       ??_C@_15IJBHMCFL@?$AAa?$AAz?$AA?$AA@ 000000018004f2d0     libucrt:lcidtoname_downlevel.obj
 0002:0000d2d8       ??_C@_15EKOFJABL@?$AAe?$AAu?$AA?$AA@ 000000018004f2d8     libucrt:lcidtoname_downlevel.obj
 0002:0000d2e0       ??_C@_15BGHADCNK@?$AAm?$AAk?$AA?$AA@ 000000018004f2e0     libucrt:lcidtoname_downlevel.obj
 0002:0000d2e8       ??_C@_15JDNICKHM@?$AAa?$AAf?$AA?$AA@ 000000018004f2e8     libucrt:lcidtoname_downlevel.obj
 0002:0000d2f0       ??_C@_15KPJEDBKD@?$AAk?$AAa?$AA?$AA@ 000000018004f2f0     libucrt:lcidtoname_downlevel.obj
 0002:0000d2f8       ??_C@_15PDNFFFEO@?$AAf?$AAo?$AA?$AA@ 000000018004f2f8     libucrt:lcidtoname_downlevel.obj
 0002:0000d300       ??_C@_15OMLEGLOC@?$AAh?$AAi?$AA?$AA@ 000000018004f300     libucrt:lcidtoname_downlevel.obj
 0002:0000d308       ??_C@_15IDNNENKK@?$AAm?$AAs?$AA?$AA@ 000000018004f308     libucrt:lcidtoname_downlevel.obj
 0002:0000d310       ??_C@_15MACJNBMH@?$AAk?$AAk?$AA?$AA@ 000000018004f310     libucrt:lcidtoname_downlevel.obj
 0002:0000d318       ??_C@_15DKDJEOND@?$AAk?$AAy?$AA?$AA@ 000000018004f318     libucrt:lcidtoname_downlevel.obj
 0002:0000d320       ??_C@_15DFGDLJBG@?$AAs?$AAw?$AA?$AA@ 000000018004f320     libucrt:lcidtoname_downlevel.obj
 0002:0000d328       ??_C@_15BBFAICNG@?$AAu?$AAz?$AA?$AA@ 000000018004f328     libucrt:lcidtoname_downlevel.obj
 0002:0000d330       ??_C@_15DKNDCGEA@?$AAt?$AAt?$AA?$AA@ 000000018004f330     libucrt:lcidtoname_downlevel.obj
 0002:0000d338       ??_C@_15MGIFMDPL@?$AAp?$AAa?$AA?$AA@ 000000018004f338     libucrt:lcidtoname_downlevel.obj
 0002:0000d340       ??_C@_15HCNDBBA@?$AAg?$AAu?$AA?$AA@ 000000018004f340     libucrt:lcidtoname_downlevel.obj
 0002:0000d348       ??_C@_15FNBEIBON@?$AAt?$AAa?$AA?$AA@ 000000018004f348     libucrt:lcidtoname_downlevel.obj
 0002:0000d350       ??_C@_15NCHGBGLK@?$AAt?$AAe?$AA?$AA@ 000000018004f350     libucrt:lcidtoname_downlevel.obj
 0002:0000d358       ??_C@_15PHPHCBPF@?$AAk?$AAn?$AA?$AA@ 000000018004f358     libucrt:lcidtoname_downlevel.obj
 0002:0000d360       ??_C@_15DLGBCKMP@?$AAm?$AAr?$AA?$AA@ 000000018004f360     libucrt:lcidtoname_downlevel.obj
 0002:0000d368       ??_C@_15EABBLBFF@?$AAs?$AAa?$AA?$AA@ 000000018004f368     libucrt:lcidtoname_downlevel.obj
 0002:0000d370       ??_C@_15CBKOMCOI@?$AAm?$AAn?$AA?$AA@ 000000018004f370     libucrt:lcidtoname_downlevel.obj
 0002:0000d378       ??_C@_15CKDMCJAF@?$AAg?$AAl?$AA?$AA@ 000000018004f378     libucrt:lcidtoname_downlevel.obj
 0002:0000d380       ??_C@_17CNJFBPG@?$AAk?$AAo?$AAk?$AA?$AA@ 000000018004f380     libucrt:lcidtoname_downlevel.obj
 0002:0000d388       ??_C@_17FFBJICPL@?$AAs?$AAy?$AAr?$AA?$AA@ 000000018004f388     libucrt:lcidtoname_downlevel.obj
 0002:0000d390       ??_C@_17KPNDCPAF@?$AAd?$AAi?$AAv?$AA?$AA@ 000000018004f390     libucrt:lcidtoname_downlevel.obj
 0002:0000d398       ??_C@_11LOCGONAA@?$AA?$AA@ 000000018004f398     libucrt:lcidtoname_downlevel.obj
 0002:0000d3a0       ??_C@_1M@OKAHONE@?$AAa?$AAr?$AA?9?$AAS?$AAA?$AA?$AA@ 000000018004f3a0     libucrt:lcidtoname_downlevel.obj
 0002:0000d3b0       ??_C@_1M@FFFIGIGK@?$AAb?$AAg?$AA?9?$AAB?$AAG?$AA?$AA@ 000000018004f3b0     libucrt:lcidtoname_downlevel.obj
 0002:0000d3c0       ??_C@_1M@BJNKEDC@?$AAc?$AAa?$AA?9?$AAE?$AAS?$AA?$AA@ 000000018004f3c0     libucrt:lcidtoname_downlevel.obj
 0002:0000d3d0       ??_C@_1M@IJJHFJHA@?$AAc?$AAs?$AA?9?$AAC?$AAZ?$AA?$AA@ 000000018004f3d0     libucrt:lcidtoname_downlevel.obj
 0002:0000d3e0       ??_C@_1M@CLPEOBGI@?$AAd?$AAa?$AA?9?$AAD?$AAK?$AA?$AA@ 000000018004f3e0     libucrt:lcidtoname_downlevel.obj
 0002:0000d3f0       ??_C@_1M@MCMADGCB@?$AAd?$AAe?$AA?9?$AAD?$AAE?$AA?$AA@ 000000018004f3f0     libucrt:lcidtoname_downlevel.obj
 0002:0000d400       ??_C@_1M@OOCKEMAM@?$AAe?$AAl?$AA?9?$AAG?$AAR?$AA?$AA@ 000000018004f400     libucrt:lcidtoname_downlevel.obj
 0002:0000d410       ??_C@_1M@DDNJFGID@?$AAf?$AAi?$AA?9?$AAF?$AAI?$AA?$AA@ 000000018004f410     libucrt:lcidtoname_downlevel.obj
 0002:0000d420       ??_C@_1M@GLIPPMAC@?$AAf?$AAr?$AA?9?$AAF?$AAR?$AA?$AA@ 000000018004f420     libucrt:lcidtoname_downlevel.obj
 0002:0000d430       ??_C@_1M@GFMCHPE@?$AAh?$AAe?$AA?9?$AAI?$AAL?$AA?$AA@ 000000018004f430     libucrt:lcidtoname_downlevel.obj
 0002:0000d440       ??_C@_1M@MHLPGNKM@?$AAh?$AAu?$AA?9?$AAH?$AAU?$AA?$AA@ 000000018004f440     libucrt:lcidtoname_downlevel.obj
 0002:0000d450       ??_C@_1M@LPDDNNPN@?$AAi?$AAs?$AA?9?$AAI?$AAS?$AA?$AA@ 000000018004f450     libucrt:lcidtoname_downlevel.obj
 0002:0000d460       ??_C@_1M@MADIPODN@?$AAi?$AAt?$AA?9?$AAI?$AAT?$AA?$AA@ 000000018004f460     libucrt:lcidtoname_downlevel.obj
 0002:0000d470       ??_C@_1M@IHBJJGG@?$AAn?$AAl?$AA?9?$AAN?$AAL?$AA?$AA@ 000000018004f470     libucrt:lcidtoname_downlevel.obj
 0002:0000d480       ??_C@_1M@EANAGDL@?$AAn?$AAb?$AA?9?$AAN?$AAO?$AA?$AA@ 000000018004f480     libucrt:lcidtoname_downlevel.obj
 0002:0000d490       ??_C@_1M@NEIEMEGP@?$AAp?$AAl?$AA?9?$AAP?$AAL?$AA?$AA@ 000000018004f490     libucrt:lcidtoname_downlevel.obj
 0002:0000d4a0       ??_C@_1M@BOCFIGEP@?$AAp?$AAt?$AA?9?$AAB?$AAR?$AA?$AA@ 000000018004f4a0     libucrt:lcidtoname_downlevel.obj
 0002:0000d4b0       ??_C@_1M@IMPFOPBG@?$AAr?$AAo?$AA?9?$AAR?$AAO?$AA?$AA@ 000000018004f4b0     libucrt:lcidtoname_downlevel.obj
 0002:0000d4c0       ??_C@_1M@IDNNEJMM@?$AAr?$AAu?$AA?9?$AAR?$AAU?$AA?$AA@ 000000018004f4c0     libucrt:lcidtoname_downlevel.obj
 0002:0000d4d0       ??_C@_1M@LILEEOGM@?$AAh?$AAr?$AA?9?$AAH?$AAR?$AA?$AA@ 000000018004f4d0     libucrt:lcidtoname_downlevel.obj
 0002:0000d4e0       ??_C@_1M@FKIFEHPB@?$AAs?$AAk?$AA?9?$AAS?$AAK?$AA?$AA@ 000000018004f4e0     libucrt:lcidtoname_downlevel.obj
 0002:0000d4f0       ??_C@_1M@LJMAMNPJ@?$AAs?$AAq?$AA?9?$AAA?$AAL?$AA?$AA@ 000000018004f4f0     libucrt:lcidtoname_downlevel.obj
 0002:0000d500       ??_C@_1M@GIAKDKJK@?$AAs?$AAv?$AA?9?$AAS?$AAE?$AA?$AA@ 000000018004f500     libucrt:lcidtoname_downlevel.obj
 0002:0000d510       ??_C@_1M@MKJKIKCL@?$AAt?$AAh?$AA?9?$AAT?$AAH?$AA?$AA@ 000000018004f510     libucrt:lcidtoname_downlevel.obj
 0002:0000d520       ??_C@_1M@MFLCCMPB@?$AAt?$AAr?$AA?9?$AAT?$AAR?$AA?$AA@ 000000018004f520     libucrt:lcidtoname_downlevel.obj
 0002:0000d530       ??_C@_1M@OIJHDKJN@?$AAu?$AAr?$AA?9?$AAP?$AAK?$AA?$AA@ 000000018004f530     libucrt:lcidtoname_downlevel.obj
 0002:0000d540       ??_C@_1M@LHIPCIEK@?$AAi?$AAd?$AA?9?$AAI?$AAD?$AA?$AA@ 000000018004f540     libucrt:lcidtoname_downlevel.obj
 0002:0000d550       ??_C@_1M@MFMOBGI@?$AAu?$AAk?$AA?9?$AAU?$AAA?$AA?$AA@ 000000018004f550     libucrt:lcidtoname_downlevel.obj
 0002:0000d560       ??_C@_1M@OBGLJIPL@?$AAb?$AAe?$AA?9?$AAB?$AAY?$AA?$AA@ 000000018004f560     libucrt:lcidtoname_downlevel.obj
 0002:0000d570       ??_C@_1M@BCFAJEAD@?$AAs?$AAl?$AA?9?$AAS?$AAI?$AA?$AA@ 000000018004f570     libucrt:lcidtoname_downlevel.obj
 0002:0000d580       ??_C@_1M@FKFFEDDN@?$AAe?$AAt?$AA?9?$AAE?$AAE?$AA?$AA@ 000000018004f580     libucrt:lcidtoname_downlevel.obj
 0002:0000d590       ??_C@_1M@KGKKAACI@?$AAl?$AAv?$AA?9?$AAL?$AAV?$AA?$AA@ 000000018004f590     libucrt:lcidtoname_downlevel.obj
 0002:0000d5a0       ??_C@_1M@IFGBIJO@?$AAl?$AAt?$AA?9?$AAL?$AAT?$AA?$AA@ 000000018004f5a0     libucrt:lcidtoname_downlevel.obj
 0002:0000d5b0       ??_C@_1M@FGEAHEDM@?$AAf?$AAa?$AA?9?$AAI?$AAR?$AA?$AA@ 000000018004f5b0     libucrt:lcidtoname_downlevel.obj
 0002:0000d5c0       ??_C@_1M@KBMAIBFN@?$AAv?$AAi?$AA?9?$AAV?$AAN?$AA?$AA@ 000000018004f5c0     libucrt:lcidtoname_downlevel.obj
 0002:0000d5d0       ??_C@_1M@GPCBKDJK@?$AAh?$AAy?$AA?9?$AAA?$AAM?$AA?$AA@ 000000018004f5d0     libucrt:lcidtoname_downlevel.obj
 0002:0000d5e0       ??_C@_1BG@BECMDDJB@?$AAa?$AAz?$AA?9?$AAA?$AAZ?$AA?9?$AAL?$AAa?$AAt?$AAn?$AA?$AA@ 000000018004f5e0     libucrt:lcidtoname_downlevel.obj
 0002:0000d5f8       ??_C@_1M@MAOFCAEA@?$AAe?$AAu?$AA?9?$AAE?$AAS?$AA?$AA@ 000000018004f5f8     libucrt:lcidtoname_downlevel.obj
 0002:0000d608       ??_C@_1M@IGHABKPI@?$AAm?$AAk?$AA?9?$AAM?$AAK?$AA?$AA@ 000000018004f608     libucrt:lcidtoname_downlevel.obj
 0002:0000d618       ??_C@_1M@IAIGNEJG@?$AAt?$AAn?$AA?9?$AAZ?$AAA?$AA?$AA@ 000000018004f618     libucrt:lcidtoname_downlevel.obj
 0002:0000d628       ??_C@_1M@IIJCOJFA@?$AAx?$AAh?$AA?9?$AAZ?$AAA?$AA?$AA@ 000000018004f628     libucrt:lcidtoname_downlevel.obj
 0002:0000d638       ??_C@_1M@LGPJHNJH@?$AAz?$AAu?$AA?9?$AAZ?$AAA?$AA?$AA@ 000000018004f638     libucrt:lcidtoname_downlevel.obj
 0002:0000d648       ??_C@_1M@HOKAOIO@?$AAa?$AAf?$AA?9?$AAZ?$AAA?$AA?$AA@ 000000018004f648     libucrt:lcidtoname_downlevel.obj
 0002:0000d658       ??_C@_1M@DPCLHLIE@?$AAk?$AAa?$AA?9?$AAG?$AAE?$AA?$AA@ 000000018004f658     libucrt:lcidtoname_downlevel.obj
 0002:0000d668       ??_C@_1M@BLKMHJBI@?$AAf?$AAo?$AA?9?$AAF?$AAO?$AA?$AA@ 000000018004f668     libucrt:lcidtoname_downlevel.obj
 0002:0000d678       ??_C@_1M@LGGJAPPB@?$AAh?$AAi?$AA?9?$AAI?$AAN?$AA?$AA@ 000000018004f678     libucrt:lcidtoname_downlevel.obj
 0002:0000d688       ??_C@_1M@FIKPIHFE@?$AAm?$AAt?$AA?9?$AAM?$AAT?$AA?$AA@ 000000018004f688     libucrt:lcidtoname_downlevel.obj
 0002:0000d698       ??_C@_1M@HEGGPBFA@?$AAs?$AAe?$AA?9?$AAN?$AAO?$AA?$AA@ 000000018004f698     libucrt:lcidtoname_downlevel.obj
 0002:0000d6a8       ??_C@_1M@EIBJEEPA@?$AAm?$AAs?$AA?9?$AAM?$AAY?$AA?$AA@ 000000018004f6a8     libucrt:lcidtoname_downlevel.obj
 0002:0000d6b8       ??_C@_1M@FHLBGMPP@?$AAk?$AAk?$AA?9?$AAK?$AAZ?$AA?$AA@ 000000018004f6b8     libucrt:lcidtoname_downlevel.obj
 0002:0000d6c8       ??_C@_1M@NGJJLCGI@?$AAk?$AAy?$AA?9?$AAK?$AAG?$AA?$AA@ 000000018004f6c8     libucrt:lcidtoname_downlevel.obj
 0002:0000d6d8       ??_C@_1M@GIENNBFC@?$AAs?$AAw?$AA?9?$AAK?$AAE?$AA?$AA@ 000000018004f6d8     libucrt:lcidtoname_downlevel.obj
 0002:0000d6e8       ??_C@_1BG@NDGMJIMJ@?$AAu?$AAz?$AA?9?$AAU?$AAZ?$AA?9?$AAL?$AAa?$AAt?$AAn?$AA?$AA@ 000000018004f6e8     libucrt:lcidtoname_downlevel.obj
 0002:0000d700       ??_C@_1M@IDCCIHBC@?$AAt?$AAt?$AA?9?$AAR?$AAU?$AA?$AA@ 000000018004f700     libucrt:lcidtoname_downlevel.obj
 0002:0000d710       ??_C@_1M@LOICPMOJ@?$AAb?$AAn?$AA?9?$AAI?$AAN?$AA?$AA@ 000000018004f710     libucrt:lcidtoname_downlevel.obj
 0002:0000d720       ??_C@_1M@KPKKNEAH@?$AAp?$AAa?$AA?9?$AAI?$AAN?$AA?$AA@ 000000018004f720     libucrt:lcidtoname_downlevel.obj
 0002:0000d730       ??_C@_1M@PJGPPBOG@?$AAg?$AAu?$AA?9?$AAI?$AAN?$AA?$AA@ 000000018004f730     libucrt:lcidtoname_downlevel.obj
 0002:0000d740       ??_C@_1M@KMKMOPHI@?$AAt?$AAa?$AA?9?$AAI?$AAN?$AA?$AA@ 000000018004f740     libucrt:lcidtoname_downlevel.obj
 0002:0000d750       ??_C@_1M@KFEHEPAC@?$AAt?$AAe?$AA?9?$AAI?$AAN?$AA?$AA@ 000000018004f750     libucrt:lcidtoname_downlevel.obj
 0002:0000d760       ??_C@_1M@CDCLMGHI@?$AAk?$AAn?$AA?9?$AAI?$AAN?$AA?$AA@ 000000018004f760     libucrt:lcidtoname_downlevel.obj
 0002:0000d770       ??_C@_1M@MIODLDKF@?$AAm?$AAl?$AA?9?$AAI?$AAN?$AA?$AA@ 000000018004f770     libucrt:lcidtoname_downlevel.obj
 0002:0000d780       ??_C@_1M@PBIEACPO@?$AAm?$AAr?$AA?9?$AAI?$AAN?$AA?$AA@ 000000018004f780     libucrt:lcidtoname_downlevel.obj
 0002:0000d790       ??_C@_1M@NIDEAGPH@?$AAs?$AAa?$AA?9?$AAI?$AAN?$AA?$AA@ 000000018004f790     libucrt:lcidtoname_downlevel.obj
 0002:0000d7a0       ??_C@_1M@FHIHCBIO@?$AAm?$AAn?$AA?9?$AAM?$AAN?$AA?$AA@ 000000018004f7a0     libucrt:lcidtoname_downlevel.obj
 0002:0000d7b0       ??_C@_1M@JAIJPENP@?$AAc?$AAy?$AA?9?$AAG?$AAB?$AA?$AA@ 000000018004f7b0     libucrt:lcidtoname_downlevel.obj
 0002:0000d7c0       ??_C@_1M@PHGFBEPN@?$AAg?$AAl?$AA?9?$AAE?$AAS?$AA?$AA@ 000000018004f7c0     libucrt:lcidtoname_downlevel.obj
 0002:0000d7d0       ??_C@_1O@KPIPDNCP@?$AAk?$AAo?$AAk?$AA?9?$AAI?$AAN?$AA?$AA@ 000000018004f7d0     libucrt:lcidtoname_downlevel.obj
 0002:0000d7e0       ??_C@_1O@KNHJLDJA@?$AAs?$AAy?$AAr?$AA?9?$AAS?$AAY?$AA?$AA@ 000000018004f7e0     libucrt:lcidtoname_downlevel.obj
 0002:0000d7f0       ??_C@_1O@MKEKBLAH@?$AAd?$AAi?$AAv?$AA?9?$AAM?$AAV?$AA?$AA@ 000000018004f7f0     libucrt:lcidtoname_downlevel.obj
 0002:0000d800       ??_C@_1O@OHDCKDDF@?$AAq?$AAu?$AAz?$AA?9?$AAB?$AAO?$AA?$AA@ 000000018004f800     libucrt:lcidtoname_downlevel.obj
 0002:0000d810       ??_C@_1M@LEPJNLFD@?$AAn?$AAs?$AA?9?$AAZ?$AAA?$AA?$AA@ 000000018004f810     libucrt:lcidtoname_downlevel.obj
 0002:0000d820       ??_C@_1M@OMLEIIJB@?$AAm?$AAi?$AA?9?$AAN?$AAZ?$AA?$AA@ 000000018004f820     libucrt:lcidtoname_downlevel.obj
 0002:0000d830       ??_C@_1M@PMPEAILG@?$AAa?$AAr?$AA?9?$AAI?$AAQ?$AA?$AA@ 000000018004f830     libucrt:lcidtoname_downlevel.obj
 0002:0000d840       ??_C@_1M@CNKPNOEE@?$AAd?$AAe?$AA?9?$AAC?$AAH?$AA?$AA@ 000000018004f840     libucrt:lcidtoname_downlevel.obj
 0002:0000d850       ??_C@_1M@LKMGMLKO@?$AAe?$AAn?$AA?9?$AAG?$AAB?$AA?$AA@ 000000018004f850     libucrt:lcidtoname_downlevel.obj
 0002:0000d860       ??_C@_1M@PGKJFFGL@?$AAe?$AAs?$AA?9?$AAM?$AAX?$AA?$AA@ 000000018004f860     libucrt:lcidtoname_downlevel.obj
 0002:0000d870       ??_C@_1M@DNNANBDC@?$AAf?$AAr?$AA?9?$AAB?$AAE?$AA?$AA@ 000000018004f870     libucrt:lcidtoname_downlevel.obj
 0002:0000d880       ??_C@_1M@HLGMDFHM@?$AAi?$AAt?$AA?9?$AAC?$AAH?$AA?$AA@ 000000018004f880     libucrt:lcidtoname_downlevel.obj
 0002:0000d890       ??_C@_1M@CLLBGJH@?$AAn?$AAl?$AA?9?$AAB?$AAE?$AA?$AA@ 000000018004f890     libucrt:lcidtoname_downlevel.obj
 0002:0000d8a0       ??_C@_1M@BODBOGLF@?$AAn?$AAn?$AA?9?$AAN?$AAO?$AA?$AA@ 000000018004f8a0     libucrt:lcidtoname_downlevel.obj
 0002:0000d8b0       ??_C@_1M@HFFAHKAD@?$AAp?$AAt?$AA?9?$AAP?$AAT?$AA?$AA@ 000000018004f8b0     libucrt:lcidtoname_downlevel.obj
 0002:0000d8c0       ??_C@_1BG@LNOAKHIE@?$AAs?$AAr?$AA?9?$AAS?$AAP?$AA?9?$AAL?$AAa?$AAt?$AAn?$AA?$AA@ 000000018004f8c0     libucrt:lcidtoname_downlevel.obj
 0002:0000d8d8       ??_C@_1M@HBMHBGAK@?$AAs?$AAv?$AA?9?$AAF?$AAI?$AA?$AA@ 000000018004f8d8     libucrt:lcidtoname_downlevel.obj
 0002:0000d8e8       ??_C@_1BG@DGCJGJBE@?$AAa?$AAz?$AA?9?$AAA?$AAZ?$AA?9?$AAC?$AAy?$AAr?$AAl?$AA?$AA@ 000000018004f8e8     libucrt:lcidtoname_downlevel.obj
 0002:0000d900       ??_C@_1M@KEJDAAHB@?$AAs?$AAe?$AA?9?$AAS?$AAE?$AA?$AA@ 000000018004f900     libucrt:lcidtoname_downlevel.obj
 0002:0000d910       ??_C@_1M@HEIBJJAD@?$AAm?$AAs?$AA?9?$AAB?$AAN?$AA?$AA@ 000000018004f910     libucrt:lcidtoname_downlevel.obj
 0002:0000d920       ??_C@_1BG@PBGJMCEM@?$AAu?$AAz?$AA?9?$AAU?$AAZ?$AA?9?$AAC?$AAy?$AAr?$AAl?$AA?$AA@ 000000018004f920     libucrt:lcidtoname_downlevel.obj
 0002:0000d938       ??_C@_1O@LAOBCMDF@?$AAq?$AAu?$AAz?$AA?9?$AAE?$AAC?$AA?$AA@ 000000018004f938     libucrt:lcidtoname_downlevel.obj
 0002:0000d948       ??_C@_1M@POEEMAIO@?$AAa?$AAr?$AA?9?$AAE?$AAG?$AA?$AA@ 000000018004f948     libucrt:lcidtoname_downlevel.obj
 0002:0000d958       ??_C@_1M@EFAKDEDL@?$AAz?$AAh?$AA?9?$AAH?$AAK?$AA?$AA@ 000000018004f958     libucrt:lcidtoname_downlevel.obj
 0002:0000d968       ??_C@_1M@HKKIJHGI@?$AAd?$AAe?$AA?9?$AAA?$AAT?$AA?$AA@ 000000018004f968     libucrt:lcidtoname_downlevel.obj
 0002:0000d978       ??_C@_1M@KBFBEHJF@?$AAe?$AAn?$AA?9?$AAA?$AAU?$AA?$AA@ 000000018004f978     libucrt:lcidtoname_downlevel.obj
 0002:0000d988       ??_C@_1M@MNPLFAAH@?$AAe?$AAs?$AA?9?$AAE?$AAS?$AA?$AA@ 000000018004f988     libucrt:lcidtoname_downlevel.obj
 0002:0000d998       ??_C@_1M@HJOOJFMA@?$AAf?$AAr?$AA?9?$AAC?$AAA?$AA?$AA@ 000000018004f998     libucrt:lcidtoname_downlevel.obj
 0002:0000d9a8       ??_C@_1BG@JPOFPNAB@?$AAs?$AAr?$AA?9?$AAS?$AAP?$AA?9?$AAC?$AAy?$AAr?$AAl?$AA?$AA@ 000000018004f9a8     libucrt:lcidtoname_downlevel.obj
 0002:0000d9c0       ??_C@_1M@LNFOCMOB@?$AAs?$AAe?$AA?9?$AAF?$AAI?$AA?$AA@ 000000018004f9c0     libucrt:lcidtoname_downlevel.obj
 0002:0000d9d0       ??_C@_1O@MGJBOAMB@?$AAq?$AAu?$AAz?$AA?9?$AAP?$AAE?$AA?$AA@ 000000018004f9d0     libucrt:lcidtoname_downlevel.obj
 0002:0000d9e0       ??_C@_1M@GJINLBOK@?$AAa?$AAr?$AA?9?$AAL?$AAY?$AA?$AA@ 000000018004f9e0     libucrt:lcidtoname_downlevel.obj
 0002:0000d9f0       ??_C@_1M@GGMNHJNL@?$AAz?$AAh?$AA?9?$AAS?$AAG?$AA?$AA@ 000000018004f9f0     libucrt:lcidtoname_downlevel.obj
 0002:0000da00       ??_C@_1M@HOIKODND@?$AAd?$AAe?$AA?9?$AAL?$AAU?$AA?$AA@ 000000018004fa00     libucrt:lcidtoname_downlevel.obj
 0002:0000da10       ??_C@_1M@DDOCCGFG@?$AAe?$AAn?$AA?9?$AAC?$AAA?$AA?$AA@ 000000018004fa10     libucrt:lcidtoname_downlevel.obj
 0002:0000da20       ??_C@_1M@BNOEMJLF@?$AAe?$AAs?$AA?9?$AAG?$AAT?$AA?$AA@ 000000018004fa20     libucrt:lcidtoname_downlevel.obj
 0002:0000da30       ??_C@_1M@EOGNKEK@?$AAf?$AAr?$AA?9?$AAC?$AAH?$AA?$AA@ 000000018004fa30     libucrt:lcidtoname_downlevel.obj
 0002:0000da40       ??_C@_1M@FLIDJFHL@?$AAh?$AAr?$AA?9?$AAB?$AAA?$AA?$AA@ 000000018004fa40     libucrt:lcidtoname_downlevel.obj
 0002:0000da50       ??_C@_1O@FMCELNAJ@?$AAs?$AAm?$AAj?$AA?9?$AAN?$AAO?$AA?$AA@ 000000018004fa50     libucrt:lcidtoname_downlevel.obj
 0002:0000da60       ??_C@_1M@JHGLJMGJ@?$AAa?$AAr?$AA?9?$AAD?$AAZ?$AA?$AA@ 000000018004fa60     libucrt:lcidtoname_downlevel.obj
 0002:0000da70       ??_C@_1M@JKKFDCNP@?$AAz?$AAh?$AA?9?$AAM?$AAO?$AA?$AA@ 000000018004fa70     libucrt:lcidtoname_downlevel.obj
 0002:0000da80       ??_C@_1M@GEEFALPE@?$AAd?$AAe?$AA?9?$AAL?$AAI?$AA?$AA@ 000000018004fa80     libucrt:lcidtoname_downlevel.obj
 0002:0000da90       ??_C@_1M@IGEOFBG@?$AAe?$AAn?$AA?9?$AAN?$AAZ?$AA?$AA@ 000000018004fa90     libucrt:lcidtoname_downlevel.obj
 0002:0000daa0       ??_C@_1M@KDBONEHP@?$AAe?$AAs?$AA?9?$AAC?$AAR?$AA?$AA@ 000000018004faa0     libucrt:lcidtoname_downlevel.obj
 0002:0000dab0       ??_C@_1M@FHMDOHNN@?$AAf?$AAr?$AA?9?$AAL?$AAU?$AA?$AA@ 000000018004fab0     libucrt:lcidtoname_downlevel.obj
 0002:0000dac0       ??_C@_1BG@NFKKMAFG@?$AAb?$AAs?$AA?9?$AAB?$AAA?$AA?9?$AAL?$AAa?$AAt?$AAn?$AA?$AA@ 000000018004fac0     libucrt:lcidtoname_downlevel.obj
 0002:0000dad8       ??_C@_1O@IMNBEMCI@?$AAs?$AAm?$AAj?$AA?9?$AAS?$AAE?$AA?$AA@ 000000018004fad8     libucrt:lcidtoname_downlevel.obj
 0002:0000dae8       ??_C@_1M@DHHMBNDP@?$AAa?$AAr?$AA?9?$AAM?$AAA?$AA?$AA@ 000000018004fae8     libucrt:lcidtoname_downlevel.obj
 0002:0000daf8       ??_C@_1M@BNBLJCGH@?$AAe?$AAn?$AA?9?$AAI?$AAE?$AA?$AA@ 000000018004faf8     libucrt:lcidtoname_downlevel.obj
 0002:0000db08       ??_C@_1M@GEPAFMDL@?$AAe?$AAs?$AA?9?$AAP?$AAA?$AA?$AA@ 000000018004fb08     libucrt:lcidtoname_downlevel.obj
 0002:0000db18       ??_C@_1M@OJONDMDL@?$AAf?$AAr?$AA?9?$AAM?$AAC?$AA?$AA@ 000000018004fb18     libucrt:lcidtoname_downlevel.obj
 0002:0000db28       ??_C@_1BG@OBCNFJB@?$AAs?$AAr?$AA?9?$AAB?$AAA?$AA?9?$AAL?$AAa?$AAt?$AAn?$AA?$AA@ 000000018004fb28     libucrt:lcidtoname_downlevel.obj
 0002:0000db40       ??_C@_1O@KEMEEGPO@?$AAs?$AAm?$AAa?$AA?9?$AAN?$AAO?$AA?$AA@ 000000018004fb40     libucrt:lcidtoname_downlevel.obj
 0002:0000db50       ??_C@_1M@ELMGFODK@?$AAa?$AAr?$AA?9?$AAT?$AAN?$AA?$AA@ 000000018004fb50     libucrt:lcidtoname_downlevel.obj
 0002:0000db60       ??_C@_1M@BHDLHFAF@?$AAe?$AAn?$AA?9?$AAZ?$AAA?$AA?$AA@ 000000018004fb60     libucrt:lcidtoname_downlevel.obj
 0002:0000db70       ??_C@_1M@BMGIGLIF@?$AAe?$AAs?$AA?9?$AAD?$AAO?$AA?$AA@ 000000018004fb70     libucrt:lcidtoname_downlevel.obj
 0002:0000db80       ??_C@_1BG@CMBHIPBE@?$AAs?$AAr?$AA?9?$AAB?$AAA?$AA?9?$AAC?$AAy?$AAr?$AAl?$AA?$AA@ 000000018004fb80     libucrt:lcidtoname_downlevel.obj
 0002:0000db98       ??_C@_1O@HEDBLHNP@?$AAs?$AAm?$AAa?$AA?9?$AAS?$AAE?$AA?$AA@ 000000018004fb98     libucrt:lcidtoname_downlevel.obj
 0002:0000dba8       ??_C@_1M@DAGCADIM@?$AAa?$AAr?$AA?9?$AAO?$AAM?$AA?$AA@ 000000018004fba8     libucrt:lcidtoname_downlevel.obj
 0002:0000dbb8       ??_C@_1M@FODLMICG@?$AAe?$AAn?$AA?9?$AAJ?$AAM?$AA?$AA@ 000000018004fbb8     libucrt:lcidtoname_downlevel.obj
 0002:0000dbc8       ??_C@_1M@DNMLCIHB@?$AAe?$AAs?$AA?9?$AAV?$AAE?$AA?$AA@ 000000018004fbc8     libucrt:lcidtoname_downlevel.obj
 0002:0000dbd8       ??_C@_1O@EOKHMKJK@?$AAs?$AAm?$AAs?$AA?9?$AAF?$AAI?$AA?$AA@ 000000018004fbd8     libucrt:lcidtoname_downlevel.obj
 0002:0000dbe8       ??_C@_1M@CAFJMKOF@?$AAa?$AAr?$AA?9?$AAY?$AAE?$AA?$AA@ 000000018004fbe8     libucrt:lcidtoname_downlevel.obj
 0002:0000dbf8       ??_C@_1M@CBFHIJLI@?$AAe?$AAn?$AA?9?$AAC?$AAB?$AA?$AA@ 000000018004fbf8     libucrt:lcidtoname_downlevel.obj
 0002:0000dc08       ??_C@_1M@BGNFLDN@?$AAe?$AAs?$AA?9?$AAC?$AAO?$AA?$AA@ 000000018004fc08     libucrt:lcidtoname_downlevel.obj
 0002:0000dc18       ??_C@_1O@JMPHMAMC@?$AAs?$AAm?$AAn?$AA?9?$AAF?$AAI?$AA?$AA@ 000000018004fc18     libucrt:lcidtoname_downlevel.obj
 0002:0000dc28       ??_C@_1M@JLANABKE@?$AAa?$AAr?$AA?9?$AAS?$AAY?$AA?$AA@ 000000018004fc28     libucrt:lcidtoname_downlevel.obj
 0002:0000dc38       ??_C@_1M@HPKGCFGN@?$AAe?$AAn?$AA?9?$AAB?$AAZ?$AA?$AA@ 000000018004fc38     libucrt:lcidtoname_downlevel.obj
 0002:0000dc48       ??_C@_1M@OLJCMLGM@?$AAe?$AAs?$AA?9?$AAP?$AAE?$AA?$AA@ 000000018004fc48     libucrt:lcidtoname_downlevel.obj
 0002:0000dc58       ??_C@_1M@MKKGFKLE@?$AAa?$AAr?$AA?9?$AAJ?$AAO?$AA?$AA@ 000000018004fc58     libucrt:lcidtoname_downlevel.obj
 0002:0000dc68       ??_C@_1M@EKPGLDNI@?$AAe?$AAn?$AA?9?$AAT?$AAT?$AA?$AA@ 000000018004fc68     libucrt:lcidtoname_downlevel.obj
 0002:0000dc78       ??_C@_1M@OONGHFHE@?$AAe?$AAs?$AA?9?$AAA?$AAR?$AA?$AA@ 000000018004fc78     libucrt:lcidtoname_downlevel.obj
 0002:0000dc88       ??_C@_1M@OOJFGBHE@?$AAa?$AAr?$AA?9?$AAL?$AAB?$AA?$AA@ 000000018004fc88     libucrt:lcidtoname_downlevel.obj
 0002:0000dc98       ??_C@_1M@GCEJHNEG@?$AAe?$AAn?$AA?9?$AAZ?$AAW?$AA?$AA@ 000000018004fc98     libucrt:lcidtoname_downlevel.obj
 0002:0000dca8       ??_C@_1M@JNOCAHJI@?$AAe?$AAs?$AA?9?$AAE?$AAC?$AA?$AA@ 000000018004fca8     libucrt:lcidtoname_downlevel.obj
 0002:0000dcb8       ??_C@_1M@JEFHPGGB@?$AAa?$AAr?$AA?9?$AAK?$AAW?$AA?$AA@ 000000018004fcb8     libucrt:lcidtoname_downlevel.obj
 0002:0000dcc8       ??_C@_1M@MLKIBJOJ@?$AAe?$AAn?$AA?9?$AAP?$AAH?$AA?$AA@ 000000018004fcc8     libucrt:lcidtoname_downlevel.obj
 0002:0000dcd8       ??_C@_1M@BDNIPEND@?$AAe?$AAs?$AA?9?$AAC?$AAL?$AA?$AA@ 000000018004fcd8     libucrt:lcidtoname_downlevel.obj
 0002:0000dce8       ??_C@_1M@MPNMEKBD@?$AAa?$AAr?$AA?9?$AAA?$AAE?$AA?$AA@ 000000018004fce8     libucrt:lcidtoname_downlevel.obj
 0002:0000dcf8       ??_C@_1M@KBJALCPI@?$AAe?$AAs?$AA?9?$AAU?$AAY?$AA?$AA@ 000000018004fcf8     libucrt:lcidtoname_downlevel.obj
 0002:0000dd08       ??_C@_1M@LLCCOAGA@?$AAa?$AAr?$AA?9?$AAB?$AAH?$AA?$AA@ 000000018004fd08     libucrt:lcidtoname_downlevel.obj
 0002:0000dd18       ??_C@_1M@PBFNCDEL@?$AAe?$AAs?$AA?9?$AAP?$AAY?$AA?$AA@ 000000018004fd18     libucrt:lcidtoname_downlevel.obj
 0002:0000dd28       ??_C@_1M@EDGINPNP@?$AAa?$AAr?$AA?9?$AAQ?$AAA?$AA?$AA@ 000000018004fd28     libucrt:lcidtoname_downlevel.obj
 0002:0000dd38       ??_C@_1M@MKDBIIJI@?$AAe?$AAs?$AA?9?$AAB?$AAO?$AA?$AA@ 000000018004fd38     libucrt:lcidtoname_downlevel.obj
 0002:0000dd48       ??_C@_1M@CPKKEBLD@?$AAe?$AAs?$AA?9?$AAS?$AAV?$AA?$AA@ 000000018004fd48     libucrt:lcidtoname_downlevel.obj
 0002:0000dd58       ??_C@_1M@NDBGMMJL@?$AAe?$AAs?$AA?9?$AAH?$AAN?$AA?$AA@ 000000018004fd58     libucrt:lcidtoname_downlevel.obj
 0002:0000dd68       ??_C@_1M@JIJIBHDP@?$AAe?$AAs?$AA?9?$AAN?$AAI?$AA?$AA@ 000000018004fd68     libucrt:lcidtoname_downlevel.obj
 0002:0000dd78       ??_C@_1M@CGFMKEEK@?$AAe?$AAs?$AA?9?$AAP?$AAR?$AA?$AA@ 000000018004fd78     libucrt:lcidtoname_downlevel.obj
 0002:0000dd88       ??_C@_1O@ICJHKIIK@?$AAz?$AAh?$AA?9?$AAC?$AAH?$AAT?$AA?$AA@ 000000018004fd88     libucrt:lcidtoname_downlevel.obj
 0002:0000dd98       ??_C@_15CLNEJCE@?$AAs?$AAr?$AA?$AA@ 000000018004fd98     libucrt:lcidtoname_downlevel.obj
 0002:0000ebe0       ??_C@_1M@KAHEKEIG@?$AAa?$AAf?$AA?9?$AAz?$AAa?$AA?$AA@ 0000000180050be0     libucrt:lcidtoname_downlevel.obj
 0002:0000ebf0       ??_C@_1M@GIECOABL@?$AAa?$AAr?$AA?9?$AAa?$AAe?$AA?$AA@ 0000000180050bf0     libucrt:lcidtoname_downlevel.obj
 0002:0000ec00       ??_C@_1M@BMLMEKGI@?$AAa?$AAr?$AA?9?$AAb?$AAh?$AA?$AA@ 0000000180050c00     libucrt:lcidtoname_downlevel.obj
 0002:0000ec10       ??_C@_1M@DAPFDGGB@?$AAa?$AAr?$AA?9?$AAd?$AAz?$AA?$AA@ 0000000180050c10     libucrt:lcidtoname_downlevel.obj
 0002:0000ec20       ??_C@_1M@FJNKGKIG@?$AAa?$AAr?$AA?9?$AAe?$AAg?$AA?$AA@ 0000000180050c20     libucrt:lcidtoname_downlevel.obj
 0002:0000ec30       ??_C@_1M@FLGKKCLO@?$AAa?$AAr?$AA?9?$AAi?$AAq?$AA?$AA@ 0000000180050c30     libucrt:lcidtoname_downlevel.obj
 0002:0000ec40       ??_C@_1M@GNDIPALM@?$AAa?$AAr?$AA?9?$AAj?$AAo?$AA?$AA@ 0000000180050c40     libucrt:lcidtoname_downlevel.obj
 0002:0000ec50       ??_C@_1M@DDMJFMGJ@?$AAa?$AAr?$AA?9?$AAk?$AAw?$AA?$AA@ 0000000180050c50     libucrt:lcidtoname_downlevel.obj
 0002:0000ec60       ??_C@_1M@EJALMLHM@?$AAa?$AAr?$AA?9?$AAl?$AAb?$AA?$AA@ 0000000180050c60     libucrt:lcidtoname_downlevel.obj
 0002:0000ec70       ??_C@_1M@MOBDBLOC@?$AAa?$AAr?$AA?9?$AAl?$AAy?$AA?$AA@ 0000000180050c70     libucrt:lcidtoname_downlevel.obj
 0002:0000ec80       ??_C@_1M@JAOCLHDH@?$AAa?$AAr?$AA?9?$AAm?$AAa?$AA?$AA@ 0000000180050c80     libucrt:lcidtoname_downlevel.obj
 0002:0000ec90       ??_C@_1M@JHPMKJIE@?$AAa?$AAr?$AA?9?$AAo?$AAm?$AA?$AA@ 0000000180050c90     libucrt:lcidtoname_downlevel.obj
 0002:0000eca0       ??_C@_1M@OEPGHFNH@?$AAa?$AAr?$AA?9?$AAq?$AAa?$AA?$AA@ 0000000180050ca0     libucrt:lcidtoname_downlevel.obj
 0002:0000ecb0       ??_C@_1M@KJDONENM@?$AAa?$AAr?$AA?9?$AAs?$AAa?$AA?$AA@ 0000000180050cb0     libucrt:lcidtoname_downlevel.obj
 0002:0000ecc0       ??_C@_1M@DMJDKLKM@?$AAa?$AAr?$AA?9?$AAs?$AAy?$AA?$AA@ 0000000180050cc0     libucrt:lcidtoname_downlevel.obj
 0002:0000ecd0       ??_C@_1M@OMFIPEDC@?$AAa?$AAr?$AA?9?$AAt?$AAn?$AA?$AA@ 0000000180050cd0     libucrt:lcidtoname_downlevel.obj
 0002:0000ece0       ??_C@_1M@IHMHGAON@?$AAa?$AAr?$AA?9?$AAy?$AAe?$AA?$AA@ 0000000180050ce0     libucrt:lcidtoname_downlevel.obj
 0002:0000ecf0       ??_C@_1BG@KDCPGJGB@?$AAa?$AAz?$AA?9?$AAa?$AAz?$AA?9?$AAc?$AAy?$AAr?$AAl?$AA?$AA@ 0000000180050cf0     libucrt:lcidtoname_downlevel.obj
 0002:0000ed08       ??_C@_1BG@IBCKDDOE@?$AAa?$AAz?$AA?9?$AAa?$AAz?$AA?9?$AAl?$AAa?$AAt?$AAn?$AA?$AA@ 0000000180050d08     libucrt:lcidtoname_downlevel.obj
 0002:0000ed20       ??_C@_1M@EGPFDCPD@?$AAb?$AAe?$AA?9?$AAb?$AAy?$AA?$AA@ 0000000180050d20     libucrt:lcidtoname_downlevel.obj
 0002:0000ed30       ??_C@_1M@PCMGMCGC@?$AAb?$AAg?$AA?9?$AAb?$AAg?$AA?$AA@ 0000000180050d30     libucrt:lcidtoname_downlevel.obj
 0002:0000ed40       ??_C@_1M@BJBMFGOB@?$AAb?$AAn?$AA?9?$AAi?$AAn?$AA?$AA@ 0000000180050d40     libucrt:lcidtoname_downlevel.obj
 0002:0000ed50       ??_C@_1BG@EAKMMACD@?$AAb?$AAs?$AA?9?$AAb?$AAa?$AA?9?$AAl?$AAa?$AAt?$AAn?$AA?$AA@ 0000000180050d50     libucrt:lcidtoname_downlevel.obj
 0002:0000ed68       ??_C@_1M@KGADAODK@?$AAc?$AAa?$AA?9?$AAe?$AAs?$AA?$AA@ 0000000180050d68     libucrt:lcidtoname_downlevel.obj
 0002:0000ed78       ??_C@_1M@COAJPDHI@?$AAc?$AAs?$AA?9?$AAc?$AAz?$AA?$AA@ 0000000180050d78     libucrt:lcidtoname_downlevel.obj
 0002:0000ed88       ??_C@_1M@DHBHFONH@?$AAc?$AAy?$AA?9?$AAg?$AAb?$AA?$AA@ 0000000180050d88     libucrt:lcidtoname_downlevel.obj
 0002:0000ed98       ??_C@_1M@IMGKELGA@?$AAd?$AAa?$AA?9?$AAd?$AAk?$AA?$AA@ 0000000180050d98     libucrt:lcidtoname_downlevel.obj
 0002:0000eda8       ??_C@_1M@NNDGDNGA@?$AAd?$AAe?$AA?9?$AAa?$AAt?$AA?$AA@ 0000000180050da8     libucrt:lcidtoname_downlevel.obj
 0002:0000edb8       ??_C@_1M@IKDBHEEM@?$AAd?$AAe?$AA?9?$AAc?$AAh?$AA?$AA@ 0000000180050db8     libucrt:lcidtoname_downlevel.obj
 0002:0000edc8       ??_C@_1M@GFFOJMCJ@?$AAd?$AAe?$AA?9?$AAd?$AAe?$AA?$AA@ 0000000180050dc8     libucrt:lcidtoname_downlevel.obj
 0002:0000edd8       ??_C@_1M@MDNLKBPM@?$AAd?$AAe?$AA?9?$AAl?$AAi?$AA?$AA@ 0000000180050dd8     libucrt:lcidtoname_downlevel.obj
 0002:0000ede8       ??_C@_1M@NJBEEJNL@?$AAd?$AAe?$AA?9?$AAl?$AAu?$AA?$AA@ 0000000180050de8     libucrt:lcidtoname_downlevel.obj
 0002:0000edf8       ??_C@_1O@GNNELBAP@?$AAd?$AAi?$AAv?$AA?9?$AAm?$AAv?$AA?$AA@ 0000000180050df8     libucrt:lcidtoname_downlevel.obj
 0002:0000ee08       ??_C@_1M@EJLEOGAE@?$AAe?$AAl?$AA?9?$AAg?$AAr?$AA?$AA@ 0000000180050e08     libucrt:lcidtoname_downlevel.obj
 0002:0000ee18       ??_C@_1M@GMPONJN@?$AAe?$AAn?$AA?9?$AAa?$AAu?$AA?$AA@ 0000000180050e18     libucrt:lcidtoname_downlevel.obj
 0002:0000ee28       ??_C@_1M@NIDIIPGF@?$AAe?$AAn?$AA?9?$AAb?$AAz?$AA?$AA@ 0000000180050e28     libucrt:lcidtoname_downlevel.obj
 0002:0000ee38       ??_C@_1M@JEHMIMFO@?$AAe?$AAn?$AA?9?$AAc?$AAa?$AA?$AA@ 0000000180050e38     libucrt:lcidtoname_downlevel.obj
 0002:0000ee48       ??_C@_1M@IGMJCDLA@?$AAe?$AAn?$AA?9?$AAc?$AAb?$AA?$AA@ 0000000180050e48     libucrt:lcidtoname_downlevel.obj
 0002:0000ee58       ??_C@_1M@BNFIGBKG@?$AAe?$AAn?$AA?9?$AAg?$AAb?$AA?$AA@ 0000000180050e58     libucrt:lcidtoname_downlevel.obj
 0002:0000ee68       ??_C@_1M@LKIFDIGP@?$AAe?$AAn?$AA?9?$AAi?$AAe?$AA?$AA@ 0000000180050e68     libucrt:lcidtoname_downlevel.obj
 0002:0000ee78       ??_C@_1M@PJKFGCCO@?$AAe?$AAn?$AA?9?$AAj?$AAm?$AA?$AA@ 0000000180050e78     libucrt:lcidtoname_downlevel.obj
 0002:0000ee88       ??_C@_1M@KPPKEPBO@?$AAe?$AAn?$AA?9?$AAn?$AAz?$AA?$AA@ 0000000180050e88     libucrt:lcidtoname_downlevel.obj
 0002:0000ee98       ??_C@_1M@GMDGLDOB@?$AAe?$AAn?$AA?9?$AAp?$AAh?$AA?$AA@ 0000000180050e98     libucrt:lcidtoname_downlevel.obj
 0002:0000eea8       ??_C@_1M@ONGIBJNA@?$AAe?$AAn?$AA?9?$AAt?$AAt?$AA?$AA@ 0000000180050ea8     libucrt:lcidtoname_downlevel.obj
 0002:0000eeb8       ??_C@_1M@LLODPCMM@?$AAe?$AAn?$AA?9?$AAu?$AAs?$AA?$AA@ 0000000180050eb8     libucrt:lcidtoname_downlevel.obj
 0002:0000eec8       ??_C@_1M@LAKFNPAN@?$AAe?$AAn?$AA?9?$AAz?$AAa?$AA?$AA@ 0000000180050ec8     libucrt:lcidtoname_downlevel.obj
 0002:0000eed8       ??_C@_1M@MFNHNHEO@?$AAe?$AAn?$AA?9?$AAz?$AAw?$AA?$AA@ 0000000180050ed8     libucrt:lcidtoname_downlevel.obj
 0002:0000eee8       ??_C@_1M@EJEINPHM@?$AAe?$AAs?$AA?9?$AAa?$AAr?$AA?$AA@ 0000000180050ee8     libucrt:lcidtoname_downlevel.obj
 0002:0000eef8       ??_C@_1M@GNKPCCJA@?$AAe?$AAs?$AA?9?$AAb?$AAo?$AA?$AA@ 0000000180050ef8     libucrt:lcidtoname_downlevel.obj
 0002:0000ef08       ??_C@_1M@LEEGFONL@?$AAe?$AAs?$AA?9?$AAc?$AAl?$AA?$AA@ 0000000180050f08     libucrt:lcidtoname_downlevel.obj
 0002:0000ef18       ??_C@_1M@KGPDPBDF@?$AAe?$AAs?$AA?9?$AAc?$AAo?$AA?$AA@ 0000000180050f18     libucrt:lcidtoname_downlevel.obj
 0002:0000ef28       ??_C@_1M@EIAHOHH@?$AAe?$AAs?$AA?9?$AAc?$AAr?$AA?$AA@ 0000000180050f28     libucrt:lcidtoname_downlevel.obj
 0002:0000ef38       ??_C@_1M@LLPGMBIN@?$AAe?$AAs?$AA?9?$AAd?$AAo?$AA?$AA@ 0000000180050f38     libucrt:lcidtoname_downlevel.obj
 0002:0000ef48       ??_C@_1M@DKHMKNJA@?$AAe?$AAs?$AA?9?$AAe?$AAc?$AA?$AA@ 0000000180050f48     libucrt:lcidtoname_downlevel.obj
 0002:0000ef58       ??_C@_1M@GKGFPKAP@?$AAe?$AAs?$AA?9?$AAe?$AAs?$AA?$AA@ 0000000180050f58     libucrt:lcidtoname_downlevel.obj
 0002:0000ef68       ??_C@_1M@LKHKGDLN@?$AAe?$AAs?$AA?9?$AAg?$AAt?$AA?$AA@ 0000000180050f68     libucrt:lcidtoname_downlevel.obj
 0002:0000ef78       ??_C@_1M@HEIIGGJD@?$AAe?$AAs?$AA?9?$AAh?$AAn?$AA?$AA@ 0000000180050f78     libucrt:lcidtoname_downlevel.obj
 0002:0000ef88       ??_C@_1M@FBDHPPGD@?$AAe?$AAs?$AA?9?$AAm?$AAx?$AA?$AA@ 0000000180050f88     libucrt:lcidtoname_downlevel.obj
 0002:0000ef98       ??_C@_1M@DPAGLNDH@?$AAe?$AAs?$AA?9?$AAn?$AAi?$AA?$AA@ 0000000180050f98     libucrt:lcidtoname_downlevel.obj
 0002:0000efa8       ??_C@_1M@MDGOPGDD@?$AAe?$AAs?$AA?9?$AAp?$AAa?$AA?$AA@ 0000000180050fa8     libucrt:lcidtoname_downlevel.obj
 0002:0000efb8       ??_C@_1M@EMAMGBGE@?$AAe?$AAs?$AA?9?$AAp?$AAe?$AA?$AA@ 0000000180050fb8     libucrt:lcidtoname_downlevel.obj
 0002:0000efc8       ??_C@_1M@IBMCAOEC@?$AAe?$AAs?$AA?9?$AAp?$AAr?$AA?$AA@ 0000000180050fc8     libucrt:lcidtoname_downlevel.obj
 0002:0000efd8       ??_C@_1M@FGMDIJED@?$AAe?$AAs?$AA?9?$AAp?$AAy?$AA?$AA@ 0000000180050fd8     libucrt:lcidtoname_downlevel.obj
 0002:0000efe8       ??_C@_1M@IIDEOLLL@?$AAe?$AAs?$AA?9?$AAs?$AAv?$AA?$AA@ 0000000180050fe8     libucrt:lcidtoname_downlevel.obj
 0002:0000eff8       ??_C@_1M@GAOBIPA@?$AAe?$AAs?$AA?9?$AAu?$AAy?$AA?$AA@ 0000000180050ff8     libucrt:lcidtoname_downlevel.obj
 0002:0000f008       ??_C@_1M@JKFFICHJ@?$AAe?$AAs?$AA?9?$AAv?$AAe?$AA?$AA@ 0000000180051008     libucrt:lcidtoname_downlevel.obj
 0002:0000f018       ??_C@_1M@PNMLOJDF@?$AAe?$AAt?$AA?9?$AAe?$AAe?$AA?$AA@ 0000000180051018     libucrt:lcidtoname_downlevel.obj
 0002:0000f028       ??_C@_1M@GHHLIKEI@?$AAe?$AAu?$AA?9?$AAe?$AAs?$AA?$AA@ 0000000180051028     libucrt:lcidtoname_downlevel.obj
 0002:0000f038       ??_C@_1M@PBNONODE@?$AAf?$AAa?$AA?9?$AAi?$AAr?$AA?$AA@ 0000000180051038     libucrt:lcidtoname_downlevel.obj
 0002:0000f048       ??_C@_1M@JEEHPMIL@?$AAf?$AAi?$AA?9?$AAf?$AAi?$AA?$AA@ 0000000180051048     libucrt:lcidtoname_downlevel.obj
 0002:0000f058       ??_C@_1M@LMDCNDBA@?$AAf?$AAo?$AA?9?$AAf?$AAo?$AA?$AA@ 0000000180051058     libucrt:lcidtoname_downlevel.obj
 0002:0000f068       ??_C@_1M@JKEOHLDK@?$AAf?$AAr?$AA?9?$AAb?$AAe?$AA?$AA@ 0000000180051068     libucrt:lcidtoname_downlevel.obj
 0002:0000f078       ??_C@_1M@NOHADPMI@?$AAf?$AAr?$AA?9?$AAc?$AAa?$AA?$AA@ 0000000180051078     libucrt:lcidtoname_downlevel.obj
 0002:0000f088       ??_C@_1M@KDHIHAEC@?$AAf?$AAr?$AA?9?$AAc?$AAh?$AA?$AA@ 0000000180051088     libucrt:lcidtoname_downlevel.obj
 0002:0000f098       ??_C@_1M@MMBBFGAK@?$AAf?$AAr?$AA?9?$AAf?$AAr?$AA?$AA@ 0000000180051098     libucrt:lcidtoname_downlevel.obj
 0002:0000f0a8       ??_C@_1M@PAFNENNF@?$AAf?$AAr?$AA?9?$AAl?$AAu?$AA?$AA@ 00000001800510a8     libucrt:lcidtoname_downlevel.obj
 0002:0000f0b8       ??_C@_1M@EOHDJGDD@?$AAf?$AAr?$AA?9?$AAm?$AAc?$AA?$AA@ 00000001800510b8     libucrt:lcidtoname_downlevel.obj
 0002:0000f0c8       ??_C@_1M@FAPLLOPF@?$AAg?$AAl?$AA?9?$AAe?$AAs?$AA?$AA@ 00000001800510c8     libucrt:lcidtoname_downlevel.obj
 0002:0000f0d8       ??_C@_1M@FOPBFLOO@?$AAg?$AAu?$AA?9?$AAi?$AAn?$AA?$AA@ 00000001800510d8     libucrt:lcidtoname_downlevel.obj
 0002:0000f0e8       ??_C@_1M@KBMCINPM@?$AAh?$AAe?$AA?9?$AAi?$AAl?$AA?$AA@ 00000001800510e8     libucrt:lcidtoname_downlevel.obj
 0002:0000f0f8       ??_C@_1M@BBPHKFPJ@?$AAh?$AAi?$AA?9?$AAi?$AAn?$AA?$AA@ 00000001800510f8     libucrt:lcidtoname_downlevel.obj
 0002:0000f108       ??_C@_1M@PMBNDPHD@?$AAh?$AAr?$AA?9?$AAb?$AAa?$AA?$AA@ 0000000180051108     libucrt:lcidtoname_downlevel.obj
 0002:0000f118       ??_C@_1M@BPCKOEGE@?$AAh?$AAr?$AA?9?$AAh?$AAr?$AA?$AA@ 0000000180051118     libucrt:lcidtoname_downlevel.obj
 0002:0000f128       ??_C@_1M@GACBMHKE@?$AAh?$AAu?$AA?9?$AAh?$AAu?$AA?$AA@ 0000000180051128     libucrt:lcidtoname_downlevel.obj
 0002:0000f138       ??_C@_1M@MILPAJJC@?$AAh?$AAy?$AA?9?$AAa?$AAm?$AA?$AA@ 0000000180051138     libucrt:lcidtoname_downlevel.obj
 0002:0000f148       ??_C@_1M@BABBICEC@?$AAi?$AAd?$AA?9?$AAi?$AAd?$AA?$AA@ 0000000180051148     libucrt:lcidtoname_downlevel.obj
 0002:0000f158       ??_C@_1M@BIKNHHPF@?$AAi?$AAs?$AA?9?$AAi?$AAs?$AA?$AA@ 0000000180051158     libucrt:lcidtoname_downlevel.obj
 0002:0000f168       ??_C@_1M@NMPCJPHE@?$AAi?$AAt?$AA?9?$AAc?$AAh?$AA?$AA@ 0000000180051168     libucrt:lcidtoname_downlevel.obj
 0002:0000f178       ??_C@_1M@GHKGFEDF@?$AAi?$AAt?$AA?9?$AAi?$AAt?$AA?$AA@ 0000000180051178     libucrt:lcidtoname_downlevel.obj
 0002:0000f188       ??_C@_1M@NIEJCJJA@?$AAj?$AAa?$AA?9?$AAj?$AAp?$AA?$AA@ 0000000180051188     libucrt:lcidtoname_downlevel.obj
 0002:0000f198       ??_C@_1M@JILFNBIM@?$AAk?$AAa?$AA?9?$AAg?$AAe?$AA?$AA@ 0000000180051198     libucrt:lcidtoname_downlevel.obj
 0002:0000f1a8       ??_C@_1M@PACPMGPH@?$AAk?$AAk?$AA?9?$AAk?$AAz?$AA?$AA@ 00000001800511a8     libucrt:lcidtoname_downlevel.obj
 0002:0000f1b8       ??_C@_1M@IELFGMHA@?$AAk?$AAn?$AA?9?$AAi?$AAn?$AA?$AA@ 00000001800511b8     libucrt:lcidtoname_downlevel.obj
 0002:0000f1c8       ??_C@_1O@IBBJHCH@?$AAk?$AAo?$AAk?$AA?9?$AAi?$AAn?$AA?$AA@ 00000001800511c8     libucrt:lcidtoname_downlevel.obj
 0002:0000f1d8       ??_C@_1M@DMHAEOGC@?$AAk?$AAo?$AA?9?$AAk?$AAr?$AA?$AA@ 00000001800511d8     libucrt:lcidtoname_downlevel.obj
 0002:0000f1e8       ??_C@_1M@HBAHBIGA@?$AAk?$AAy?$AA?9?$AAk?$AAg?$AA?$AA@ 00000001800511e8     libucrt:lcidtoname_downlevel.obj
 0002:0000f1f8       ??_C@_1M@KPMILCJG@?$AAl?$AAt?$AA?9?$AAl?$AAt?$AA?$AA@ 00000001800511f8     libucrt:lcidtoname_downlevel.obj
 0002:0000f208       ??_C@_1M@BDEKKCA@?$AAl?$AAv?$AA?9?$AAl?$AAv?$AA?$AA@ 0000000180051208     libucrt:lcidtoname_downlevel.obj
 0002:0000f218       ??_C@_1M@ELCKCCJJ@?$AAm?$AAi?$AA?9?$AAn?$AAz?$AA?$AA@ 0000000180051218     libucrt:lcidtoname_downlevel.obj
 0002:0000f228       ??_C@_1M@CBOOLAPA@?$AAm?$AAk?$AA?9?$AAm?$AAk?$AA?$AA@ 0000000180051228     libucrt:lcidtoname_downlevel.obj
 0002:0000f238       ??_C@_1M@GPHNBJKN@?$AAm?$AAl?$AA?9?$AAi?$AAn?$AA?$AA@ 0000000180051238     libucrt:lcidtoname_downlevel.obj
 0002:0000f248       ??_C@_1M@PABJILIG@?$AAm?$AAn?$AA?9?$AAm?$AAn?$AA?$AA@ 0000000180051248     libucrt:lcidtoname_downlevel.obj
 0002:0000f258       ??_C@_1M@FGBKKIPG@?$AAm?$AAr?$AA?9?$AAi?$AAn?$AA?$AA@ 0000000180051258     libucrt:lcidtoname_downlevel.obj
 0002:0000f268       ??_C@_1M@NDBPDDAL@?$AAm?$AAs?$AA?9?$AAb?$AAn?$AA?$AA@ 0000000180051268     libucrt:lcidtoname_downlevel.obj
 0002:0000f278       ??_C@_1M@OPIHOOPI@?$AAm?$AAs?$AA?9?$AAm?$AAy?$AA?$AA@ 0000000180051278     libucrt:lcidtoname_downlevel.obj
 0002:0000f288       ??_C@_1M@PPDBCNFM@?$AAm?$AAt?$AA?9?$AAm?$AAt?$AA?$AA@ 0000000180051288     libucrt:lcidtoname_downlevel.obj
 0002:0000f298       ??_C@_1M@KDJDKMDD@?$AAn?$AAb?$AA?9?$AAn?$AAo?$AA?$AA@ 0000000180051298     libucrt:lcidtoname_downlevel.obj
 0002:0000f2a8       ??_C@_1M@KFCFLMJP@?$AAn?$AAl?$AA?9?$AAb?$AAe?$AA?$AA@ 00000001800512a8     libucrt:lcidtoname_downlevel.obj
 0002:0000f2b8       ??_C@_1M@KPOPDDGO@?$AAn?$AAl?$AA?9?$AAn?$AAl?$AA?$AA@ 00000001800512b8     libucrt:lcidtoname_downlevel.obj
 0002:0000f2c8       ??_C@_1M@LJKPEMLN@?$AAn?$AAn?$AA?9?$AAn?$AAo?$AA?$AA@ 00000001800512c8     libucrt:lcidtoname_downlevel.obj
 0002:0000f2d8       ??_C@_1M@BDGHHBFL@?$AAn?$AAs?$AA?9?$AAz?$AAa?$AA?$AA@ 00000001800512d8     libucrt:lcidtoname_downlevel.obj
 0002:0000f2e8       ??_C@_1M@IDEHOAP@?$AAp?$AAa?$AA?9?$AAi?$AAn?$AA?$AA@ 00000001800512e8     libucrt:lcidtoname_downlevel.obj
 0002:0000f2f8       ??_C@_1M@HDBKGOGH@?$AAp?$AAl?$AA?9?$AAp?$AAl?$AA?$AA@ 00000001800512f8     libucrt:lcidtoname_downlevel.obj
 0002:0000f308       ??_C@_1M@LJLLCMEH@?$AAp?$AAt?$AA?9?$AAb?$AAr?$AA?$AA@ 0000000180051308     libucrt:lcidtoname_downlevel.obj
 0002:0000f318       ??_C@_1M@NCMONAAL@?$AAp?$AAt?$AA?9?$AAp?$AAt?$AA?$AA@ 0000000180051318     libucrt:lcidtoname_downlevel.obj
 0002:0000f328       ??_C@_1O@EAKMAJDN@?$AAq?$AAu?$AAz?$AA?9?$AAb?$AAo?$AA?$AA@ 0000000180051328     libucrt:lcidtoname_downlevel.obj
 0002:0000f338       ??_C@_1O@BHHPIGDN@?$AAq?$AAu?$AAz?$AA?9?$AAe?$AAc?$AA?$AA@ 0000000180051338     libucrt:lcidtoname_downlevel.obj
 0002:0000f348       ??_C@_1O@GBAPEKMJ@?$AAq?$AAu?$AAz?$AA?9?$AAp?$AAe?$AA?$AA@ 0000000180051348     libucrt:lcidtoname_downlevel.obj
 0002:0000f358       ??_C@_1M@CLGLEFBO@?$AAr?$AAo?$AA?9?$AAr?$AAo?$AA?$AA@ 0000000180051358     libucrt:lcidtoname_downlevel.obj
 0002:0000f368       ??_C@_1M@CEEDODME@?$AAr?$AAu?$AA?9?$AAr?$AAu?$AA?$AA@ 0000000180051368     libucrt:lcidtoname_downlevel.obj
 0002:0000f378       ??_C@_1M@HPKKKMPP@?$AAs?$AAa?$AA?9?$AAi?$AAn?$AA?$AA@ 0000000180051378     libucrt:lcidtoname_downlevel.obj
 0002:0000f388       ??_C@_1M@BKMAIGOJ@?$AAs?$AAe?$AA?9?$AAf?$AAi?$AA?$AA@ 0000000180051388     libucrt:lcidtoname_downlevel.obj
 0002:0000f398       ??_C@_1M@NDPIFLFI@?$AAs?$AAe?$AA?9?$AAn?$AAo?$AA?$AA@ 0000000180051398     libucrt:lcidtoname_downlevel.obj
 0002:0000f3a8       ??_C@_1M@DANKKHJ@?$AAs?$AAe?$AA?9?$AAs?$AAe?$AA?$AA@ 00000001800513a8     libucrt:lcidtoname_downlevel.obj
 0002:0000f3b8       ??_C@_1M@PNBLONPJ@?$AAs?$AAk?$AA?9?$AAs?$AAk?$AA?$AA@ 00000001800513b8     libucrt:lcidtoname_downlevel.obj
 0002:0000f3c8       ??_C@_1M@LFMODOAL@?$AAs?$AAl?$AA?9?$AAs?$AAi?$AA?$AA@ 00000001800513c8     libucrt:lcidtoname_downlevel.obj
 0002:0000f3d8       ??_C@_1O@DFKOMPG@?$AAs?$AAm?$AAa?$AA?9?$AAn?$AAo?$AA?$AA@ 00000001800513d8     libucrt:lcidtoname_downlevel.obj
 0002:0000f3e8       ??_C@_1O@NDKPBNNH@?$AAs?$AAm?$AAa?$AA?9?$AAs?$AAe?$AA?$AA@ 00000001800513e8     libucrt:lcidtoname_downlevel.obj
 0002:0000f3f8       ??_C@_1O@PLLKBHAB@?$AAs?$AAm?$AAj?$AA?9?$AAn?$AAo?$AA?$AA@ 00000001800513f8     libucrt:lcidtoname_downlevel.obj
 0002:0000f408       ??_C@_1O@CLEPOGCA@?$AAs?$AAm?$AAj?$AA?9?$AAs?$AAe?$AA?$AA@ 0000000180051408     libucrt:lcidtoname_downlevel.obj
 0002:0000f418       ??_C@_1O@DLGJGKMK@?$AAs?$AAm?$AAn?$AA?9?$AAf?$AAi?$AA?$AA@ 0000000180051418     libucrt:lcidtoname_downlevel.obj
 0002:0000f428       ??_C@_1O@OJDJGAJC@?$AAs?$AAm?$AAs?$AA?9?$AAf?$AAi?$AA?$AA@ 0000000180051428     libucrt:lcidtoname_downlevel.obj
 0002:0000f438       ??_C@_1M@BOFOGHPB@?$AAs?$AAq?$AA?9?$AAa?$AAl?$AA?$AA@ 0000000180051438     libucrt:lcidtoname_downlevel.obj
 0002:0000f448       ??_C@_1BG@LJBBIPGB@?$AAs?$AAr?$AA?9?$AAb?$AAa?$AA?9?$AAc?$AAy?$AAr?$AAl?$AA?$AA@ 0000000180051448     libucrt:lcidtoname_downlevel.obj
 0002:0000f460       ??_C@_1BG@JLBENFOE@?$AAs?$AAr?$AA?9?$AAb?$AAa?$AA?9?$AAl?$AAa?$AAt?$AAn?$AA?$AA@ 0000000180051460     libucrt:lcidtoname_downlevel.obj
 0002:0000f478       ??_C@_1BG@KODPNHE@?$AAs?$AAr?$AA?9?$AAs?$AAp?$AA?9?$AAc?$AAy?$AAr?$AAl?$AA?$AA@ 0000000180051478     libucrt:lcidtoname_downlevel.obj
 0002:0000f490       ??_C@_1BG@CIOGKHPB@?$AAs?$AAr?$AA?9?$AAs?$AAp?$AA?9?$AAl?$AAa?$AAt?$AAn?$AA?$AA@ 0000000180051490     libucrt:lcidtoname_downlevel.obj
 0002:0000f4a8       ??_C@_1M@NGFJLMAC@?$AAs?$AAv?$AA?9?$AAf?$AAi?$AA?$AA@ 00000001800514a8     libucrt:lcidtoname_downlevel.obj
 0002:0000f4b8       ??_C@_1M@MPJEJAJC@?$AAs?$AAv?$AA?9?$AAs?$AAe?$AA?$AA@ 00000001800514b8     libucrt:lcidtoname_downlevel.obj
 0002:0000f4c8       ??_C@_1M@MPNDHLFK@?$AAs?$AAw?$AA?9?$AAk?$AAe?$AA?$AA@ 00000001800514c8     libucrt:lcidtoname_downlevel.obj
 0002:0000f4d8       ??_C@_1O@KOHBJJI@?$AAs?$AAy?$AAr?$AA?9?$AAs?$AAy?$AA?$AA@ 00000001800514d8     libucrt:lcidtoname_downlevel.obj
 0002:0000f4e8       ??_C@_1M@LDCEFHA@?$AAt?$AAa?$AA?9?$AAi?$AAn?$AA?$AA@ 00000001800514e8     libucrt:lcidtoname_downlevel.obj
 0002:0000f4f8       ??_C@_1M@CNJOFAK@?$AAt?$AAe?$AA?9?$AAi?$AAn?$AA?$AA@ 00000001800514f8     libucrt:lcidtoname_downlevel.obj
 0002:0000f508       ??_C@_1M@GNAECACD@?$AAt?$AAh?$AA?9?$AAt?$AAh?$AA?$AA@ 0000000180051508     libucrt:lcidtoname_downlevel.obj
 0002:0000f518       ??_C@_1M@CHBIHOJO@?$AAt?$AAn?$AA?9?$AAz?$AAa?$AA?$AA@ 0000000180051518     libucrt:lcidtoname_downlevel.obj
 0002:0000f528       ??_C@_1M@GCCMIGPJ@?$AAt?$AAr?$AA?9?$AAt?$AAr?$AA?$AA@ 0000000180051528     libucrt:lcidtoname_downlevel.obj
 0002:0000f538       ??_C@_1M@CELMCNBK@?$AAt?$AAt?$AA?9?$AAr?$AAu?$AA?$AA@ 0000000180051538     libucrt:lcidtoname_downlevel.obj
 0002:0000f548       ??_C@_1M@KLMCELGA@?$AAu?$AAk?$AA?9?$AAu?$AAa?$AA?$AA@ 0000000180051548     libucrt:lcidtoname_downlevel.obj
 0002:0000f558       ??_C@_1M@EPAJJAJF@?$AAu?$AAr?$AA?9?$AAp?$AAk?$AA?$AA@ 0000000180051558     libucrt:lcidtoname_downlevel.obj
 0002:0000f568       ??_C@_1BG@GEGPMCDJ@?$AAu?$AAz?$AA?9?$AAu?$AAz?$AA?9?$AAc?$AAy?$AAr?$AAl?$AA?$AA@ 0000000180051568     libucrt:lcidtoname_downlevel.obj
 0002:0000f580       ??_C@_1BG@EGGKJILM@?$AAu?$AAz?$AA?9?$AAu?$AAz?$AA?9?$AAl?$AAa?$AAt?$AAn?$AA?$AA@ 0000000180051580     libucrt:lcidtoname_downlevel.obj
 0002:0000f598       ??_C@_1M@GFOCLFF@?$AAv?$AAi?$AA?9?$AAv?$AAn?$AA?$AA@ 0000000180051598     libucrt:lcidtoname_downlevel.obj
 0002:0000f5a8       ??_C@_1M@CPAMEDFI@?$AAx?$AAh?$AA?9?$AAz?$AAa?$AA?$AA@ 00000001800515a8     libucrt:lcidtoname_downlevel.obj
 0002:0000f5b8       ??_C@_1O@EBKIFIGN@?$AAz?$AAh?$AA?9?$AAc?$AAh?$AAs?$AA?$AA@ 00000001800515b8     libucrt:lcidtoname_downlevel.obj
 0002:0000f5c8       ??_C@_1O@NMHPGANE@?$AAz?$AAh?$AA?9?$AAc?$AAh?$AAt?$AA?$AA@ 00000001800515c8     libucrt:lcidtoname_downlevel.obj
 0002:0000f5d8       ??_C@_1M@LPINJOMC@?$AAz?$AAh?$AA?9?$AAc?$AAn?$AA?$AA@ 00000001800515d8     libucrt:lcidtoname_downlevel.obj
 0002:0000f5e8       ??_C@_1M@OCJEJODD@?$AAz?$AAh?$AA?9?$AAh?$AAk?$AA?$AA@ 00000001800515e8     libucrt:lcidtoname_downlevel.obj
 0002:0000f5f8       ??_C@_1M@DNDLJINH@?$AAz?$AAh?$AA?9?$AAm?$AAo?$AA?$AA@ 00000001800515f8     libucrt:lcidtoname_downlevel.obj
 0002:0000f608       ??_C@_1M@MBFDNDND@?$AAz?$AAh?$AA?9?$AAs?$AAg?$AA?$AA@ 0000000180051608     libucrt:lcidtoname_downlevel.obj
 0002:0000f618       ??_C@_1M@IMEPLEPE@?$AAz?$AAh?$AA?9?$AAt?$AAw?$AA?$AA@ 0000000180051618     libucrt:lcidtoname_downlevel.obj
 0002:0000f628       ??_C@_1M@BBGHNHJP@?$AAz?$AAu?$AA?9?$AAz?$AAa?$AA?$AA@ 0000000180051628     libucrt:lcidtoname_downlevel.obj
 0002:0000f634       ??_C@_01GBGANLPD@0?$AA@    0000000180051634     libucrt:cfout.obj
 0002:0000f638       ??_C@_05DNEBIAHO@1?$CDINF?$AA@ 0000000180051638     libucrt:cfout.obj
 0002:0000f640       ??_C@_06IMKFLFPG@1?$CDQNAN?$AA@ 0000000180051640     libucrt:cfout.obj
 0002:0000f648       ??_C@_06PGGFOGJG@1?$CDSNAN?$AA@ 0000000180051648     libucrt:cfout.obj
 0002:0000f650       ??_C@_05PHHOCPM@1?$CDIND?$AA@ 0000000180051650     libucrt:cfout.obj
 0002:0000f660       __acrt_rg_language         0000000180051660     libucrt:get_qualified_locale.obj
 0002:0000fa70       __acrt_rg_language_count   0000000180051a70     libucrt:get_qualified_locale.obj
 0002:0000fa80       __acrt_rg_country          0000000180051a80     libucrt:get_qualified_locale.obj
 0002:0000fbf0       __acrt_rg_country_count    0000000180051bf0     libucrt:get_qualified_locale.obj
 0002:0000fbf8       ??_C@_1BC@LLOKLNP@?$AAa?$AAm?$AAe?$AAr?$AAi?$AAc?$AAa?$AAn?$AA?$AA@ 0000000180051bf8     libucrt:get_qualified_locale.obj
 0002:0000fc10       ??_C@_1CC@HEIGCDGG@?$AAa?$AAm?$AAe?$AAr?$AAi?$AAc?$AAa?$AAn?$AA?5?$AAe?$AAn?$AAg?$AAl?$AAi?$AAs?$AAh?$AA?$AA@ 0000000180051c10     libucrt:get_qualified_locale.obj
 0002:0000fc38       ??_C@_1CC@IHCNOMIN@?$AAa?$AAm?$AAe?$AAr?$AAi?$AAc?$AAa?$AAn?$AA?9?$AAe?$AAn?$AAg?$AAl?$AAi?$AAs?$AAh?$AA?$AA@ 0000000180051c38     libucrt:get_qualified_locale.obj
 0002:0000fc60       ??_C@_1BG@GKAGPCGG@?$AAa?$AAu?$AAs?$AAt?$AAr?$AAa?$AAl?$AAi?$AAa?$AAn?$AA?$AA@ 0000000180051c60     libucrt:get_qualified_locale.obj
 0002:0000fc78       ??_C@_1BA@GMENCENF@?$AAb?$AAe?$AAl?$AAg?$AAi?$AAa?$AAn?$AA?$AA@ 0000000180051c78     libucrt:get_qualified_locale.obj
 0002:0000fc88       ??_C@_1BC@PJMIIAAN@?$AAc?$AAa?$AAn?$AAa?$AAd?$AAi?$AAa?$AAn?$AA?$AA@ 0000000180051c88     libucrt:get_qualified_locale.obj
 0002:0000fca0       ??_C@_17NOIMNFBF@?$AAc?$AAh?$AAh?$AA?$AA@ 0000000180051ca0     libucrt:get_qualified_locale.obj
 0002:0000fca8       ??_C@_17GGDALCHA@?$AAc?$AAh?$AAi?$AA?$AA@ 0000000180051ca8     libucrt:get_qualified_locale.obj
 0002:0000fcb0       ??_C@_1BA@NPNJKIBL@?$AAc?$AAh?$AAi?$AAn?$AAe?$AAs?$AAe?$AA?$AA@ 0000000180051cb0     libucrt:get_qualified_locale.obj
 0002:0000fcc0       ??_C@_1CC@DINBAMMJ@?$AAc?$AAh?$AAi?$AAn?$AAe?$AAs?$AAe?$AA?9?$AAh?$AAo?$AAn?$AAg?$AAk?$AAo?$AAn?$AAg?$AA?$AA@ 0000000180051cc0     libucrt:get_qualified_locale.obj
 0002:0000fce8       ??_C@_1CG@IOBJPACO@?$AAc?$AAh?$AAi?$AAn?$AAe?$AAs?$AAe?$AA?9?$AAs?$AAi?$AAm?$AAp?$AAl?$AAi?$AAf?$AAi?$AAe?$AAd?$AA?$AA@ 0000000180051ce8     libucrt:get_qualified_locale.obj
 0002:0000fd10       ??_C@_1CE@GAJNDCKG@?$AAc?$AAh?$AAi?$AAn?$AAe?$AAs?$AAe?$AA?9?$AAs?$AAi?$AAn?$AAg?$AAa?$AAp?$AAo?$AAr?$AAe?$AA?$AA@ 0000000180051d10     libucrt:get_qualified_locale.obj
 0002:0000fd38       ??_C@_1CI@PAJPIOOD@?$AAc?$AAh?$AAi?$AAn?$AAe?$AAs?$AAe?$AA?9?$AAt?$AAr?$AAa?$AAd?$AAi?$AAt?$AAi?$AAo?$AAn?$AAa?$AAl?$AA?$AA@ 0000000180051d38     libucrt:get_qualified_locale.obj
 0002:0000fd60       ??_C@_1BM@NILJBMMD@?$AAd?$AAu?$AAt?$AAc?$AAh?$AA?9?$AAb?$AAe?$AAl?$AAg?$AAi?$AAa?$AAn?$AA?$AA@ 0000000180051d60     libucrt:get_qualified_locale.obj
 0002:0000fd80       ??_C@_1CC@OOJPJNEJ@?$AAe?$AAn?$AAg?$AAl?$AAi?$AAs?$AAh?$AA?9?$AAa?$AAm?$AAe?$AAr?$AAi?$AAc?$AAa?$AAn?$AA?$AA@ 0000000180051d80     libucrt:get_qualified_locale.obj
 0002:0000fda8       ??_C@_1BI@IOLFEEM@?$AAe?$AAn?$AAg?$AAl?$AAi?$AAs?$AAh?$AA?9?$AAa?$AAu?$AAs?$AA?$AA@ 0000000180051da8     libucrt:get_qualified_locale.obj
 0002:0000fdc0       ??_C@_1BO@HFFNLENJ@?$AAe?$AAn?$AAg?$AAl?$AAi?$AAs?$AAh?$AA?9?$AAb?$AAe?$AAl?$AAi?$AAz?$AAe?$AA?$AA@ 0000000180051dc0     libucrt:get_qualified_locale.obj
 0002:0000fde0       ??_C@_1BI@HAPKJMPO@?$AAe?$AAn?$AAg?$AAl?$AAi?$AAs?$AAh?$AA?9?$AAc?$AAa?$AAn?$AA?$AA@ 0000000180051de0     libucrt:get_qualified_locale.obj
 0002:0000fdf8       ??_C@_1CE@HLNDMIOJ@?$AAe?$AAn?$AAg?$AAl?$AAi?$AAs?$AAh?$AA?9?$AAc?$AAa?$AAr?$AAi?$AAb?$AAb?$AAe?$AAa?$AAn?$AA?$AA@ 0000000180051df8     libucrt:get_qualified_locale.obj
 0002:0000fe20       ??_C@_1BI@LDHJHHAC@?$AAe?$AAn?$AAg?$AAl?$AAi?$AAs?$AAh?$AA?9?$AAi?$AAr?$AAe?$AA?$AA@ 0000000180051e20     libucrt:get_qualified_locale.obj
 0002:0000fe38       ??_C@_1CA@NJMMCFOC@?$AAe?$AAn?$AAg?$AAl?$AAi?$AAs?$AAh?$AA?9?$AAj?$AAa?$AAm?$AAa?$AAi?$AAc?$AAa?$AA?$AA@ 0000000180051e38     libucrt:get_qualified_locale.obj
 0002:0000fe58       ??_C@_1BG@BHJEBBGG@?$AAe?$AAn?$AAg?$AAl?$AAi?$AAs?$AAh?$AA?9?$AAn?$AAz?$AA?$AA@ 0000000180051e58     libucrt:get_qualified_locale.obj
 0002:0000fe70       ??_C@_1CK@FGOEJJCO@?$AAe?$AAn?$AAg?$AAl?$AAi?$AAs?$AAh?$AA?9?$AAs?$AAo?$AAu?$AAt?$AAh?$AA?5?$AAa?$AAf?$AAr?$AAi?$AAc?$AAa?$AA?$AA@ 0000000180051e70     libucrt:get_qualified_locale.obj
 0002:0000fea0       ??_C@_1DE@PDBJPCJ@?$AAe?$AAn?$AAg?$AAl?$AAi?$AAs?$AAh?$AA?9?$AAt?$AAr?$AAi?$AAn?$AAi?$AAd?$AAa?$AAd?$AA?5?$AAy?$AA?5?$AAt?$AAo?$AAb?$AAa?$AAg?$AAo?$AA?$AA@ 0000000180051ea0     libucrt:get_qualified_locale.obj
 0002:0000fed8       ??_C@_1BG@JGCANDME@?$AAe?$AAn?$AAg?$AAl?$AAi?$AAs?$AAh?$AA?9?$AAu?$AAk?$AA?$AA@ 0000000180051ed8     libucrt:get_qualified_locale.obj
 0002:0000fef0       ??_C@_1BG@DINKMLE@?$AAe?$AAn?$AAg?$AAl?$AAi?$AAs?$AAh?$AA?9?$AAu?$AAs?$AA?$AA@ 0000000180051ef0     libucrt:get_qualified_locale.obj
 0002:0000ff08       ??_C@_1BI@NMFDBHJE@?$AAe?$AAn?$AAg?$AAl?$AAi?$AAs?$AAh?$AA?9?$AAu?$AAs?$AAa?$AA?$AA@ 0000000180051f08     libucrt:get_qualified_locale.obj
 0002:0000ff20       ??_C@_1BO@OIHKJKII@?$AAf?$AAr?$AAe?$AAn?$AAc?$AAh?$AA?9?$AAb?$AAe?$AAl?$AAg?$AAi?$AAa?$AAn?$AA?$AA@ 0000000180051f20     libucrt:get_qualified_locale.obj
 0002:0000ff40       ??_C@_1CA@NKAELJKI@?$AAf?$AAr?$AAe?$AAn?$AAc?$AAh?$AA?9?$AAc?$AAa?$AAn?$AAa?$AAd?$AAi?$AAa?$AAn?$AA?$AA@ 0000000180051f40     libucrt:get_qualified_locale.obj
 0002:0000ff60       ??_C@_1CE@MGKCNLGN@?$AAf?$AAr?$AAe?$AAn?$AAc?$AAh?$AA?9?$AAl?$AAu?$AAx?$AAe?$AAm?$AAb?$AAo?$AAu?$AAr?$AAg?$AA?$AA@ 0000000180051f60     libucrt:get_qualified_locale.obj
 0002:0000ff88       ??_C@_1BK@CEGEAILM@?$AAf?$AAr?$AAe?$AAn?$AAc?$AAh?$AA?9?$AAs?$AAw?$AAi?$AAs?$AAs?$AA?$AA@ 0000000180051f88     libucrt:get_qualified_locale.obj
 0002:0000ffa8       ??_C@_1CA@PAFKEOCC@?$AAg?$AAe?$AAr?$AAm?$AAa?$AAn?$AA?9?$AAa?$AAu?$AAs?$AAt?$AAr?$AAi?$AAa?$AAn?$AA?$AA@ 0000000180051fa8     libucrt:get_qualified_locale.obj
 0002:0000ffc8       ??_C@_1CI@HCFHGOFD@?$AAg?$AAe?$AAr?$AAm?$AAa?$AAn?$AA?9?$AAl?$AAi?$AAc?$AAh?$AAt?$AAe?$AAn?$AAs?$AAt?$AAe?$AAi?$AAn?$AA?$AA@ 0000000180051fc8     libucrt:get_qualified_locale.obj
 0002:0000fff0       ??_C@_1CE@FEDDNPDG@?$AAg?$AAe?$AAr?$AAm?$AAa?$AAn?$AA?9?$AAl?$AAu?$AAx?$AAe?$AAm?$AAb?$AAo?$AAu?$AAr?$AAg?$AA?$AA@ 0000000180051ff0     libucrt:get_qualified_locale.obj
 0002:00010018       ??_C@_1BK@LIMINNMN@?$AAg?$AAe?$AAr?$AAm?$AAa?$AAn?$AA?9?$AAs?$AAw?$AAi?$AAs?$AAs?$AA?$AA@ 0000000180052018     libucrt:get_qualified_locale.obj
 0002:00010038       ??_C@_1BM@LGMDBEPD@?$AAi?$AAr?$AAi?$AAs?$AAh?$AA?9?$AAe?$AAn?$AAg?$AAl?$AAi?$AAs?$AAh?$AA?$AA@ 0000000180052038     libucrt:get_qualified_locale.obj
 0002:00010058       ??_C@_1BM@NNCFBAEE@?$AAi?$AAt?$AAa?$AAl?$AAi?$AAa?$AAn?$AA?9?$AAs?$AAw?$AAi?$AAs?$AAs?$AA?$AA@ 0000000180052058     libucrt:get_qualified_locale.obj
 0002:00010078       ??_C@_1BE@FEDJNPIB@?$AAn?$AAo?$AAr?$AAw?$AAe?$AAg?$AAi?$AAa?$AAn?$AA?$AA@ 0000000180052078     libucrt:get_qualified_locale.obj
 0002:00010090       ??_C@_1CC@CILKDEIE@?$AAn?$AAo?$AAr?$AAw?$AAe?$AAg?$AAi?$AAa?$AAn?$AA?9?$AAb?$AAo?$AAk?$AAm?$AAa?$AAl?$AA?$AA@ 0000000180052090     libucrt:get_qualified_locale.obj
 0002:000100b8       ??_C@_1CE@DHMMHEPL@?$AAn?$AAo?$AAr?$AAw?$AAe?$AAg?$AAi?$AAa?$AAn?$AA?9?$AAn?$AAy?$AAn?$AAo?$AAr?$AAs?$AAk?$AA?$AA@ 00000001800520b8     libucrt:get_qualified_locale.obj
 0002:000100e0       ??_C@_1CK@OPNMHECD@?$AAp?$AAo?$AAr?$AAt?$AAu?$AAg?$AAu?$AAe?$AAs?$AAe?$AA?9?$AAb?$AAr?$AAa?$AAz?$AAi?$AAl?$AAi?$AAa?$AAn?$AA?$AA@ 00000001800520e0     libucrt:get_qualified_locale.obj
 0002:00010110       ??_C@_1CE@KEEHCDB@?$AAs?$AAp?$AAa?$AAn?$AAi?$AAs?$AAh?$AA?9?$AAa?$AAr?$AAg?$AAe?$AAn?$AAt?$AAi?$AAn?$AAa?$AA?$AA@ 0000000180052110     libucrt:get_qualified_locale.obj
 0002:00010138       ??_C@_1CA@GIAOLHJD@?$AAs?$AAp?$AAa?$AAn?$AAi?$AAs?$AAh?$AA?9?$AAb?$AAo?$AAl?$AAi?$AAv?$AAi?$AAa?$AA?$AA@ 0000000180052138     libucrt:get_qualified_locale.obj
 0002:00010158       ??_C@_1BM@OJNDFNPD@?$AAs?$AAp?$AAa?$AAn?$AAi?$AAs?$AAh?$AA?9?$AAc?$AAh?$AAi?$AAl?$AAe?$AA?$AA@ 0000000180052158     libucrt:get_qualified_locale.obj
 0002:00010178       ??_C@_1CC@OCOLPALL@?$AAs?$AAp?$AAa?$AAn?$AAi?$AAs?$AAh?$AA?9?$AAc?$AAo?$AAl?$AAo?$AAm?$AAb?$AAi?$AAa?$AA?$AA@ 0000000180052178     libucrt:get_qualified_locale.obj
 0002:000101a0       ??_C@_1CG@BPOFMKBB@?$AAs?$AAp?$AAa?$AAn?$AAi?$AAs?$AAh?$AA?9?$AAc?$AAo?$AAs?$AAt?$AAa?$AA?5?$AAr?$AAi?$AAc?$AAa?$AA?$AA@ 00000001800521a0     libucrt:get_qualified_locale.obj
 0002:000101c8       ??_C@_1DG@IGOBAPBB@?$AAs?$AAp?$AAa?$AAn?$AAi?$AAs?$AAh?$AA?9?$AAd?$AAo?$AAm?$AAi?$AAn?$AAi?$AAc?$AAa?$AAn?$AA?5?$AAr?$AAe?$AAp?$AAu?$AAb?$AAl?$AAi?$AAc?$AA?$AA@ 00000001800521c8     libucrt:get_qualified_locale.obj
 0002:00010200       ??_C@_1CA@JHAPGEGI@?$AAs?$AAp?$AAa?$AAn?$AAi?$AAs?$AAh?$AA?9?$AAe?$AAc?$AAu?$AAa?$AAd?$AAo?$AAr?$AA?$AA@ 0000000180052200     libucrt:get_qualified_locale.obj
 0002:00010220       ??_C@_1CI@LAPALJPP@?$AAs?$AAp?$AAa?$AAn?$AAi?$AAs?$AAh?$AA?9?$AAe?$AAl?$AA?5?$AAs?$AAa?$AAl?$AAv?$AAa?$AAd?$AAo?$AAr?$AA?$AA@ 0000000180052220     libucrt:get_qualified_locale.obj
 0002:00010248       ??_C@_1CE@PDGBOFOM@?$AAs?$AAp?$AAa?$AAn?$AAi?$AAs?$AAh?$AA?9?$AAg?$AAu?$AAa?$AAt?$AAe?$AAm?$AAa?$AAl?$AAa?$AA?$AA@ 0000000180052248     libucrt:get_qualified_locale.obj
 0002:00010270       ??_C@_1CC@NBEBAODI@?$AAs?$AAp?$AAa?$AAn?$AAi?$AAs?$AAh?$AA?9?$AAh?$AAo?$AAn?$AAd?$AAu?$AAr?$AAa?$AAs?$AA?$AA@ 0000000180052270     libucrt:get_qualified_locale.obj
 0002:00010298       ??_C@_1CA@LLKGHBMF@?$AAs?$AAp?$AAa?$AAn?$AAi?$AAs?$AAh?$AA?9?$AAm?$AAe?$AAx?$AAi?$AAc?$AAa?$AAn?$AA?$AA@ 0000000180052298     libucrt:get_qualified_locale.obj
 0002:000102b8       ??_C@_1BO@LKNDOIGD@?$AAs?$AAp?$AAa?$AAn?$AAi?$AAs?$AAh?$AA?9?$AAm?$AAo?$AAd?$AAe?$AAr?$AAn?$AA?$AA@ 00000001800522b8     libucrt:get_qualified_locale.obj
 0002:000102d8       ??_C@_1CE@NMDMOEEB@?$AAs?$AAp?$AAa?$AAn?$AAi?$AAs?$AAh?$AA?9?$AAn?$AAi?$AAc?$AAa?$AAr?$AAa?$AAg?$AAu?$AAa?$AA?$AA@ 00000001800522d8     libucrt:get_qualified_locale.obj
 0002:00010300       ??_C@_1BO@LLCBEJGB@?$AAs?$AAp?$AAa?$AAn?$AAi?$AAs?$AAh?$AA?9?$AAp?$AAa?$AAn?$AAa?$AAm?$AAa?$AA?$AA@ 0000000180052300     libucrt:get_qualified_locale.obj
 0002:00010320       ??_C@_1CC@FKPGGIHO@?$AAs?$AAp?$AAa?$AAn?$AAi?$AAs?$AAh?$AA?9?$AAp?$AAa?$AAr?$AAa?$AAg?$AAu?$AAa?$AAy?$AA?$AA@ 0000000180052320     libucrt:get_qualified_locale.obj
 0002:00010348       ??_C@_1BK@CDEIHOOP@?$AAs?$AAp?$AAa?$AAn?$AAi?$AAs?$AAh?$AA?9?$AAp?$AAe?$AAr?$AAu?$AA?$AA@ 0000000180052348     libucrt:get_qualified_locale.obj
 0002:00010368       ??_C@_1CI@GAHAKKGP@?$AAs?$AAp?$AAa?$AAn?$AAi?$AAs?$AAh?$AA?9?$AAp?$AAu?$AAe?$AAr?$AAt?$AAo?$AA?5?$AAr?$AAi?$AAc?$AAo?$AA?$AA@ 0000000180052368     libucrt:get_qualified_locale.obj
 0002:00010390       ??_C@_1CA@NKJBCAGP@?$AAs?$AAp?$AAa?$AAn?$AAi?$AAs?$AAh?$AA?9?$AAu?$AAr?$AAu?$AAg?$AAu?$AAa?$AAy?$AA?$AA@ 0000000180052390     libucrt:get_qualified_locale.obj
 0002:000103b0       ??_C@_1CE@ODILCONM@?$AAs?$AAp?$AAa?$AAn?$AAi?$AAs?$AAh?$AA?9?$AAv?$AAe?$AAn?$AAe?$AAz?$AAu?$AAe?$AAl?$AAa?$AA?$AA@ 00000001800523b0     libucrt:get_qualified_locale.obj
 0002:000103d8       ??_C@_1CA@OBNMCGFO@?$AAs?$AAw?$AAe?$AAd?$AAi?$AAs?$AAh?$AA?9?$AAf?$AAi?$AAn?$AAl?$AAa?$AAn?$AAd?$AA?$AA@ 00000001800523d8     libucrt:get_qualified_locale.obj
 0002:000103f8       ??_C@_1M@PIPDDPPI@?$AAs?$AAw?$AAi?$AAs?$AAs?$AA?$AA@ 00000001800523f8     libucrt:get_qualified_locale.obj
 0002:00010404       ??_C@_15GMFIMNFM@?$AAu?$AAs?$AA?$AA@ 0000000180052404     libucrt:get_qualified_locale.obj
 0002:00010410       ??_C@_17HAEBFAGL@?$AAu?$AAs?$AAa?$AA?$AA@ 0000000180052410     libucrt:get_qualified_locale.obj
 0002:00010418       ??_C@_1BA@DPFJEPHB@?$AAa?$AAm?$AAe?$AAr?$AAi?$AAc?$AAa?$AA?$AA@ 0000000180052418     libucrt:get_qualified_locale.obj
 0002:00010428       ??_C@_1BA@ELOGGFK@?$AAb?$AAr?$AAi?$AAt?$AAa?$AAi?$AAn?$AA?$AA@ 0000000180052428     libucrt:get_qualified_locale.obj
 0002:00010438       ??_C@_1M@GHBGIGDA@?$AAc?$AAh?$AAi?$AAn?$AAa?$AA?$AA@ 0000000180052438     libucrt:get_qualified_locale.obj
 0002:00010448       ??_C@_1M@NCHEJOPO@?$AAc?$AAz?$AAe?$AAc?$AAh?$AA?$AA@ 0000000180052448     libucrt:get_qualified_locale.obj
 0002:00010458       ??_C@_1BA@BKPAPBLA@?$AAe?$AAn?$AAg?$AAl?$AAa?$AAn?$AAd?$AA?$AA@ 0000000180052458     libucrt:get_qualified_locale.obj
 0002:00010468       ??_C@_1BM@HKBCKIPC@?$AAg?$AAr?$AAe?$AAa?$AAt?$AA?5?$AAb?$AAr?$AAi?$AAt?$AAa?$AAi?$AAn?$AA?$AA@ 0000000180052468     libucrt:get_qualified_locale.obj
 0002:00010488       ??_C@_1BA@PPCHPGJB@?$AAh?$AAo?$AAl?$AAl?$AAa?$AAn?$AAd?$AA?$AA@ 0000000180052488     libucrt:get_qualified_locale.obj
 0002:00010498       ??_C@_1BE@JBMPEGDG@?$AAh?$AAo?$AAn?$AAg?$AA?9?$AAk?$AAo?$AAn?$AAg?$AA?$AA@ 0000000180052498     libucrt:get_qualified_locale.obj
 0002:000104b0       ??_C@_1BI@KOELBBPJ@?$AAn?$AAe?$AAw?$AA?9?$AAz?$AAe?$AAa?$AAl?$AAa?$AAn?$AAd?$AA?$AA@ 00000001800524b0     libucrt:get_qualified_locale.obj
 0002:000104c8       ??_C@_15HIEBHAIO@?$AAn?$AAz?$AA?$AA@ 00000001800524c8     libucrt:get_qualified_locale.obj
 0002:000104d0       ??_C@_1BC@CHBCPFPI@?$AAp?$AAr?$AA?5?$AAc?$AAh?$AAi?$AAn?$AAa?$AA?$AA@ 00000001800524d0     libucrt:get_qualified_locale.obj
 0002:000104e8       ??_C@_1BC@JAOIIFKD@?$AAp?$AAr?$AA?9?$AAc?$AAh?$AAi?$AAn?$AAa?$AA?$AA@ 00000001800524e8     libucrt:get_qualified_locale.obj
 0002:00010500       ??_C@_1BI@BEHPPHKC@?$AAp?$AAu?$AAe?$AAr?$AAt?$AAo?$AA?9?$AAr?$AAi?$AAc?$AAo?$AA?$AA@ 0000000180052500     libucrt:get_qualified_locale.obj
 0002:00010518       ??_C@_1O@PAEOFKDI@?$AAs?$AAl?$AAo?$AAv?$AAa?$AAk?$AA?$AA@ 0000000180052518     libucrt:get_qualified_locale.obj
 0002:00010528       ??_C@_1BK@FIHMCKAM@?$AAs?$AAo?$AAu?$AAt?$AAh?$AA?5?$AAa?$AAf?$AAr?$AAi?$AAc?$AAa?$AA?$AA@ 0000000180052528     libucrt:get_qualified_locale.obj
 0002:00010548       ??_C@_1BI@NAEOODKB@?$AAs?$AAo?$AAu?$AAt?$AAh?$AA?5?$AAk?$AAo?$AAr?$AAe?$AAa?$AA?$AA@ 0000000180052548     libucrt:get_qualified_locale.obj
 0002:00010560       ??_C@_1BK@FBDGGIFF@?$AAs?$AAo?$AAu?$AAt?$AAh?$AA?9?$AAa?$AAf?$AAr?$AAi?$AAc?$AAa?$AA?$AA@ 0000000180052560     libucrt:get_qualified_locale.obj
 0002:00010580       ??_C@_1BI@GHLEJDPK@?$AAs?$AAo?$AAu?$AAt?$AAh?$AA?9?$AAk?$AAo?$AAr?$AAe?$AAa?$AA?$AA@ 0000000180052580     libucrt:get_qualified_locale.obj
 0002:00010598       ??_C@_1CE@PLHLOMJF@?$AAt?$AAr?$AAi?$AAn?$AAi?$AAd?$AAa?$AAd?$AA?5?$AA?$CG?$AA?5?$AAt?$AAo?$AAb?$AAa?$AAg?$AAo?$AA?$AA@ 0000000180052598     libucrt:get_qualified_locale.obj
 0002:000105c0       ??_C@_1BO@MODIMHHI@?$AAu?$AAn?$AAi?$AAt?$AAe?$AAd?$AA?9?$AAk?$AAi?$AAn?$AAg?$AAd?$AAo?$AAm?$AA?$AA@ 00000001800525c0     libucrt:get_qualified_locale.obj
 0002:000105e0       ??_C@_1BM@FFHJONBJ@?$AAu?$AAn?$AAi?$AAt?$AAe?$AAd?$AA?9?$AAs?$AAt?$AAa?$AAt?$AAe?$AAs?$AA?$AA@ 00000001800525e0     libucrt:get_qualified_locale.obj
 0002:00010600       ??_C@_17DNCLJFIF@?$AAA?$AAC?$AAP?$AA?$AA@ 0000000180052600     libucrt:get_qualified_locale.obj
 0002:00010608       ??_C@_17CIKBIHLH@?$AAO?$AAC?$AAP?$AA?$AA@ 0000000180052608     libucrt:get_qualified_locale.obj
 0002:00010610       __rglangidNotDefault       0000000180052610     libucrt:getqloc_downlevel.obj
 0002:00010640       ??_C@_1BA@BALFACEM@?$AAC?$AAO?$AAN?$AAO?$AAU?$AAT?$AA$?$AA?$AA@ 0000000180052640     libucrt:initcon.obj
 0002:000108a0       __log10_256_lead           00000001800528a0     libucrt:log10_256_lead_tail_table.obj
 0002:000110b0       __log10_256_tail           00000001800530b0     libucrt:log10_256_lead_tail_table.obj
 0002:000118b8       ??_C@_1BK@DBDEIDLH@?$AAK?$AAE?$AAR?$AAN?$AAE?$AAL?$AA3?$AA2?$AA?4?$AAD?$AAL?$AAL@ 00000001800538b8     DelayImp:delayhlp.obj
 0002:000118d8       __pfnDliFailureHook2       00000001800538d8     DelayImp:delayhk1.obj
 0002:000118e0       _load_config_used          00000001800538e0     LIBCMT:loadcfg.obj
 0002:000119e0       ??_C@_0GI@EGKGBFJ@c?3?2users?2iain?2documents?2github?2@ 00000001800539e0     addon.obj
 0002:00011a48       ??_C@_08GFPBFNPE@ad_block@ 0000000180053a48     addon.obj
 0002:00011a58       ??_C@_0BC@BDKFLDHL@unknown?5exception@ 0000000180053a58     ad_block_client_wrap.obj
 0002:00011a70       ??_C@_0BA@ELKIONDK@bad?5locale?5name@ 0000000180053a70     ad_block_client_wrap.obj
 0002:00011a80       ??_C@_00CNPNBAHC@@         0000000180053a80     ad_block_client_wrap.obj
 0002:00011a84       ??_C@_02LMMGGCAJ@?3?5@     0000000180053a84     ad_block_client_wrap.obj
 0002:00011a88       ??_C@_08LLGCOLLL@iostream@ 0000000180053a88     ad_block_client_wrap.obj
 0002:00011a98       ??_C@_0BG@PADBLCHM@iostream?5stream?5error@ 0000000180053a98     ad_block_client_wrap.obj
 0002:00011ab0       ??_C@_0BF@PHHKMMFD@ios_base?3?3badbit?5set@ 0000000180053ab0     ad_block_client_wrap.obj
 0002:00011ac8       ??_C@_0BG@FMKFHCIL@ios_base?3?3failbit?5set@ 0000000180053ac8     ad_block_client_wrap.obj
 0002:00011ae0       ??_C@_0BF@OOHOMBOF@ios_base?3?3eofbit?5set@ 0000000180053ae0     ad_block_client_wrap.obj
 0002:00011b00       ??_C@_1IA@GNNFCIGI@?$AAc?$AA?3?$AA?2?$AAu?$AAs?$AAe?$AAr?$AAs?$AA?2?$AAi?$AAa?$AAi?$AAn?$AA?2?$AA?4@ 0000000180053b00     ad_block_client_wrap.obj
 0002:00011b80       ??_C@_1CO@EGNPJLKI@?$AAp?$AAe?$AAr?$AAs?$AAi?$AAs?$AAt?$AAe?$AAn?$AAt?$AA?$CI?$AA?$CJ?$AA?4?$AAI?$AAs@ 0000000180053b80     ad_block_client_wrap.obj
 0002:00011bb0       ??_C@_1EC@NOLNIHNJ@?$AAh?$AAa?$AAn?$AAd?$AAl?$AAe?$AA?9?$AA?$DO?$AAI?$AAn?$AAt?$AAe?$AAr?$AAn?$AAa@ 0000000180053bb0     ad_block_client_wrap.obj
 0002:00011bf8       ??_C@_1DA@FBGAEOIO@?$AA?$CB?$AAp?$AAe?$AAr?$AAs?$AAi?$AAs?$AAt?$AAe?$AAn?$AAt?$AA?$CI?$AA?$CJ?$AA?4?$AAI@ 0000000180053bf8     ad_block_client_wrap.obj
 0002:00011c28       ??_C@_1CO@JCKLEFMA@?$AA?$CB?$AAp?$AAe?$AAr?$AAs?$AAi?$AAs?$AAt?$AAe?$AAn?$AAt?$AA?$CI?$AA?$CJ?$AA?4?$AAI@ 0000000180053c28     ad_block_client_wrap.obj
 0002:00011c58       ??_C@_1BE@GMLLOIPJ@?$AAr?$AAe?$AAf?$AAs?$AA_?$AA?5?$AA?$DO?$AA?5?$AA0@ 0000000180053c58     ad_block_client_wrap.obj
 0002:00011c70       ??_C@_1CC@GBFLAAPF@?$AAw?$AAr?$AAa?$AAp?$AA?9?$AA?$DO?$AAr?$AAe?$AAf?$AAs?$AA_?$AA?5?$AA?$DN?$AA?$DN?$AA?5@ 0000000180053c70     ad_block_client_wrap.obj
 0002:00011ca0       ??_C@_0BIJ@MHDBPKIP@MIIBIjANBgkqhkiG9w0BAQEFAAOCAQ8@ 0000000180053ca0     ad_block_client_wrap.obj
 0002:00011e30       ??_C@_0CB@DGHMCLIA@gpgegghiabhggiplapgdfnfcmodkccj@ 0000000180053e30     ad_block_client_wrap.obj
 0002:00011e58       ??_C@_0CL@LLKLMDJG@https?3?1?1forums?4lanik?4us?1viewfor@ 0000000180053e58     ad_block_client_wrap.obj
 0002:00011e84       ??_C@_02FEKCJMIO@ar@       0000000180053e84     ad_block_client_wrap.obj
 0002:00011e88       ??_C@_0O@HHOLIJC@ARA?3?5Liste?5AR@ 0000000180053e88     ad_block_client_wrap.obj
 0002:00011e98       ??_C@_0DI@EGJDDGAP@https?3?1?1easylist?9downloads?4adbl@ 0000000180053e98     ad_block_client_wrap.obj
 0002:00011ed0       ??_C@_0CF@NLCEPPAP@9FCEECEC?952B4?94487?98E57?98781E82@ 0000000180053ed0     ad_block_client_wrap.obj
 0002:00011f00       ??_C@_0BIJ@LDIHBOAN@MIIBIjANBgkqhkiG9w0BAQEFAAOCAQ8@ 0000000180053f00     ad_block_client_wrap.obj
 0002:00012090       ??_C@_0CB@NNPOIBBD@coofeapfgmpkchclgdphgpmfhmnplbp@ 0000000180054090     ad_block_client_wrap.obj
 0002:000120b8       ??_C@_0BH@NBMBHCN@http?3?1?1stanev?4org?1abp?1@ 00000001800540b8     ad_block_client_wrap.obj
 0002:000120d0       ??_C@_02GBFBMEMD@bg@       00000001800540d0     ad_block_client_wrap.obj
 0002:000120d8       ??_C@_0BM@CJDKBPJP@BGR?3?5Bulgarian?5Adblock?5list@ 00000001800540d8     ad_block_client_wrap.obj
 0002:000120f8       ??_C@_0CF@HFCGPHNK@http?3?1?1stanev?4org?1abp?1adblock_b@ 00000001800540f8     ad_block_client_wrap.obj
 0002:00012120       ??_C@_0CF@EDHJNLHG@FD176DD1?9F9A0?94469?9B43E?9B176489@ 0000000180054120     ad_block_client_wrap.obj
 0002:00012150       ??_C@_0BIJ@LCGKFEDI@MIIBIjANBgkqhkiG9w0BAQEFAAOCAQ8@ 0000000180054150     ad_block_client_wrap.obj
 0002:000122e0       ??_C@_0CB@KJKIDBAB@llhecljkijgcaalnbfadljdpkpbehak@ 00000001800542e0     ad_block_client_wrap.obj
 0002:00012308       ??_C@_0CE@IBOAEBND@http?3?1?1abpchina?4org?1forum?1forum@ 0000000180054308     ad_block_client_wrap.obj
 0002:0001232c       ??_C@_02PEPMCKME@zh@       000000018005432c     ad_block_client_wrap.obj
 0002:00012330       ??_C@_0BN@MJCMIJJH@CHN?3?5EasyList?5China?5?$CI?d?$LI?$KN?f?$JG?$IH?$CJ@ 0000000180054330     ad_block_client_wrap.obj
 0002:00012350       ??_C@_0DN@DEHGFDHP@https?3?1?1easylist?9downloads?4adbl@ 0000000180054350     ad_block_client_wrap.obj
 0002:00012390       ??_C@_0CF@IOHKFHKP@11F62B02?99D1F?94263?9A7F8?977D2B55@ 0000000180054390     ad_block_client_wrap.obj
 0002:000123c0       ??_C@_0BIJ@DLGNMEFE@MIIBIjANBgkqhkiG9w0BAQEFAAOCAQ8@ 00000001800543c0     ad_block_client_wrap.obj
 0002:00012550       ??_C@_0CB@MDMKOLFE@llpoppgpcimnmhgehpipdmamalmpfbj@ 0000000180054550     ad_block_client_wrap.obj
 0002:00012578       ??_C@_0CE@OJPLKABJ@https?3?1?1github?4com?1cjx82630?1cjx@ 0000000180054578     ad_block_client_wrap.obj
 0002:000125a0       ??_C@_0BK@GACCGCL@CHN?3?5CJX?8s?5Annoyance?5List@ 00000001800545a0     ad_block_client_wrap.obj
 0002:000125c0       ??_C@_0EM@JPDOJEPI@https?3?1?1raw?4githubusercontent?4c@ 00000001800545c0     ad_block_client_wrap.obj
 0002:00012610       ??_C@_0CF@NBIENLKE@CC98E4BA?99257?94386?9A1BC?91BBF698@ 0000000180054610     ad_block_client_wrap.obj
 0002:00012640       ??_C@_0BIJ@HJGBLJII@MIIBIjANBgkqhkiG9w0BAQEFAAOCAQ8@ 0000000180054640     ad_block_client_wrap.obj
 0002:000127d0       ??_C@_0CB@MEEKBMAD@lgfeompbgommiobcenmodekodmdajca@ 00000001800547d0     ad_block_client_wrap.obj
 0002:000127f8       ??_C@_0DH@HEGDDBHB@CHN?3?5CJX?8s?5EasyList?5Lite?5?$CImain?5@ 00000001800547f8     ad_block_client_wrap.obj
 0002:00012830       ??_C@_0EG@MEADEKJJ@https?3?1?1raw?4githubusercontent?4c@ 0000000180054830     ad_block_client_wrap.obj
 0002:00012878       ??_C@_0CF@NKDHLNKE@92AA0D3B?934AC?94657?99A5C?9DBAD339@ 0000000180054878     ad_block_client_wrap.obj
 0002:000128a0       ??_C@_0BIJ@JGKCGBDG@MIIBIjANBgkqhkiG9w0BAQEFAAOCAQ8@ 00000001800548a0     ad_block_client_wrap.obj
 0002:00012a30       ??_C@_0CB@MKPOIP@omkkefoeihpbpebhhbhmjekpnegokpb@ 0000000180054a30     ad_block_client_wrap.obj
 0002:00012a58       ??_C@_0DF@KDOCOKPG@https?3?1?1github?4com?1tomasko126?1e@ 0000000180054a58     ad_block_client_wrap.obj
 0002:00012a90       ??_C@_02EODNHJKB@cs@       0000000180054a90     ad_block_client_wrap.obj
 0002:00012a98       ??_C@_0CE@PFPAGIHP@CZE?0?5SVK?3?5EasyList?5Czech?5and?5Sl@ 0000000180054a98     ad_block_client_wrap.obj
 0002:00012ac0       ??_C@_0FH@LILCPNIN@https?3?1?1raw?4githubusercontent?4c@ 0000000180054ac0     ad_block_client_wrap.obj
 0002:00012b18       ??_C@_0CF@NDGFAENG@7CCB6921?97FDA?94A9B?9B70A?912DD0A8@ 0000000180054b18     ad_block_client_wrap.obj
 0002:00012b40       ??_C@_0BIJ@PFGMFMIA@MIIBIjANBgkqhkiG9w0BAQEFAAOCAQ8@ 0000000180054b40     ad_block_client_wrap.obj
 0002:00012cd0       ??_C@_0CB@GLDOBJLO@jmomcjcilfpbaaklkifaijjcnancamd@ 0000000180054cd0     ad_block_client_wrap.obj
 0002:00012cf8       ??_C@_0CL@HDHCEJJO@https?3?1?1forums?4lanik?4us?1viewfor@ 0000000180054cf8     ad_block_client_wrap.obj
 0002:00012d24       ??_C@_02FHOKNKPD@de@       0000000180054d24     ad_block_client_wrap.obj
 0002:00012d28       ??_C@_0BG@FEOMIGMN@DEU?3?5EasyList?5Germany@ 0000000180054d28     ad_block_client_wrap.obj
 0002:00012d40       ??_C@_0DP@CKODLIHF@https?3?1?1easylist?9downloads?4adbl@ 0000000180054d40     ad_block_client_wrap.obj
 0002:00012d80       ??_C@_0CF@FAJLNKLD@E71426E7?9E898?9401C?9A195?91779454@ 0000000180054d80     ad_block_client_wrap.obj
 0002:00012db0       ??_C@_0BIJ@OIBGFLEK@MIIBIjANBgkqhkiG9w0BAQEFAAOCAQ8@ 0000000180054db0     ad_block_client_wrap.obj
 0002:00012f40       ??_C@_0CB@PLCJGBPN@facajiciiepdpjnoifonbfgcnlbpbie@ 0000000180054f40     ad_block_client_wrap.obj
 0002:00012f68       ??_C@_0CC@LPAHJDIB@https?3?1?1henrik?4schack?4dk?1adbloc@ 0000000180054f68     ad_block_client_wrap.obj
 0002:00012f8c       ??_C@_02DDIGBPPH@da@       0000000180054f8c     ad_block_client_wrap.obj
 0002:00012f90       ??_C@_0CA@MBOBODMM@DNK?3?5Schacks?5Adblock?5Plus?5liste@ 0000000180054f90     ad_block_client_wrap.obj
 0002:00012fb0       ??_C@_0BN@LCKIPEDB@https?3?1?1adblock?4dk?1block?4csv@ 0000000180054fb0     ad_block_client_wrap.obj
 0002:00012fd0       ??_C@_0CF@DIMIIMHI@9EF6A21C?95014?94199?995A2?9A824912@ 0000000180054fd0     ad_block_client_wrap.obj
 0002:00013000       ??_C@_0BIJ@KIHABJMI@MIIBIjANBgkqhkiG9w0BAQEFAAOCAQ8@ 0000000180055000     ad_block_client_wrap.obj
 0002:00013190       ??_C@_0CB@BIHDGCBL@fnpjliiiicbbpkfihnggnmobcpppjhl@ 0000000180055190     ad_block_client_wrap.obj
 0002:000131b8       ??_C@_0BE@OEMPDFNC@https?3?1?1adblock?4ee?1@ 00000001800551b8     ad_block_client_wrap.obj
 0002:000131cc       ??_C@_02FPBJDNE@et@        00000001800551cc     ad_block_client_wrap.obj
 0002:000131d0       ??_C@_0CH@MDIPNOCA@EST?3?5Eesti?5saitidele?5kohandatud@ 00000001800551d0     ad_block_client_wrap.obj
 0002:000131f8       ??_C@_0BM@MHHMKIDM@https?3?1?1adblock?4ee?1list?4php@ 00000001800551f8     ad_block_client_wrap.obj
 0002:00013218       ??_C@_0CF@HAFMOIKF@0783DBFD?9B5E0?94982?99B4A?9711BDDB@ 0000000180055218     ad_block_client_wrap.obj
 0002:00013240       ??_C@_0BIJ@CAIOALKE@MIIBIjANBgkqhkiG9w0BAQEFAAOCAQ8@ 0000000180055240     ad_block_client_wrap.obj
 0002:000133d0       ??_C@_0CB@NJFICIMB@abeicfkepbhgindohkebelkkhnnijca@ 00000001800553d0     ad_block_client_wrap.obj
 0002:000133f8       ??_C@_0CC@ICMJCMGB@https?3?1?1github?4com?1liamja?1Preba@ 00000001800553f8     ad_block_client_wrap.obj
 0002:00013420       ??_C@_0CO@PCMMNOC@EU?3?5Prebake?5?9?5Filter?5Obtrusive?5@ 0000000180055420     ad_block_client_wrap.obj
 0002:00013450       ??_C@_0EG@FFHENNKE@https?3?1?1raw?4githubusercontent?4c@ 0000000180055450     ad_block_client_wrap.obj
 0002:00013498       ??_C@_0CF@BBGJJHHB@5E5C9C94?90516?945F2?99AFB?9800F0EC@ 0000000180055498     ad_block_client_wrap.obj
 0002:000134c0       ??_C@_0BIJ@GBGDOHNI@MIIBIjANBgkqhkiG9w0BAQEFAAOCAQ8@ 00000001800554c0     ad_block_client_wrap.obj
 0002:00013650       ??_C@_0CB@NIEEHMKJ@kdcalgmhljnckmnfcboeabeepgnlaem@ 0000000180055650     ad_block_client_wrap.obj
 0002:00013680       ??_C@_0EH@NPPEDAED@https?3?1?1github?4com?1finnish?9easy@ 0000000180055680     ad_block_client_wrap.obj
 0002:000136c8       ??_C@_02PINLEBJB@fi@       00000001800556c8     ad_block_client_wrap.obj
 0002:000136d0       ??_C@_0CC@JFNKGEOG@FIN?3?5Finnish?5Addition?5to?5Easyli@ 00000001800556d0     ad_block_client_wrap.obj
 0002:00013700       ??_C@_0GN@PEKCKLMI@https?3?1?1raw?4githubusercontent?4c@ 0000000180055700     ad_block_client_wrap.obj
 0002:00013770       ??_C@_0CF@EFKOPDJO@1C6D8556?93400?94358?9B9AD?972689D7@ 0000000180055770     ad_block_client_wrap.obj
 0002:000137a0       ??_C@_0BIJ@CEHNEKNC@MIIBIjANBgkqhkiG9w0BAQEFAAOCAQ8@ 00000001800557a0     ad_block_client_wrap.obj
 0002:00013930       ??_C@_0CB@MBKHDCLE@emaecjinaegfkoklcdafkiocjhoeila@ 0000000180055930     ad_block_client_wrap.obj
 0002:00013958       ??_C@_0CL@GKGJHINP@https?3?1?1forums?4lanik?4us?1viewfor@ 0000000180055958     ad_block_client_wrap.obj
 0002:00013984       ??_C@_02FBONIKAL@fr@       0000000180055984     ad_block_client_wrap.obj
 0002:00013988       ??_C@_0BH@ODIBCEPE@FRA?3?5EasyList?5Liste?5FR@ 0000000180055988     ad_block_client_wrap.obj
 0002:000139a0       ??_C@_0DI@PIFLHPNO@https?3?1?1easylist?9downloads?4adbl@ 00000001800559a0     ad_block_client_wrap.obj
 0002:000139d8       ??_C@_0CF@CNFMKDKB@9852EFC4?999E4?94F2D?9A915?99C3196C@ 00000001800559d8     ad_block_client_wrap.obj
 0002:00013a00       ??_C@_0BIJ@KFIDDBHH@MIIBIjANBgkqhkiG9w0BAQEFAAOCAQ8@ 0000000180055a00     ad_block_client_wrap.obj
 0002:00013b90       ??_C@_0CB@JDJLACLF@pmgkiiodjlmmpimpmphjhkodjnjfkek@ 0000000180055b90     ad_block_client_wrap.obj
 0002:00013bb8       ??_C@_0DD@BAIMGEPH@https?3?1?1github?4com?1kargig?1greek@ 0000000180055bb8     ad_block_client_wrap.obj
 0002:00013bec       ??_C@_02IHOKALIN@el@       0000000180055bec     ad_block_client_wrap.obj
 0002:00013bf0       ??_C@_0BK@BDDANIIH@GRC?3?5Greek?5AdBlock?5Filter@ 0000000180055bf0     ad_block_client_wrap.obj
 0002:00013c10       ??_C@_0CP@KGLJEFKO@https?3?1?1www?4void?4gr?1kargig?1void@ 0000000180055c10     ad_block_client_wrap.obj
 0002:00013c40       ??_C@_0CF@NDJGDNKH@6C0F4C7F?9969B?948A0?9897A?91458301@ 0000000180055c40     ad_block_client_wrap.obj
 0002:00013c70       ??_C@_0BIJ@KEIAGNOJ@MIIBIjANBgkqhkiG9w0BAQEFAAOCAQ8@ 0000000180055c70     ad_block_client_wrap.obj
 0002:00013e00       ??_C@_0CB@MJBECAAJ@gemncmbgjgcjjepjkindgdhdilnaanl@ 0000000180055e00     ad_block_client_wrap.obj
 0002:00013e28       ??_C@_0CG@JLOGJJHF@https?3?1?1github?4com?1szpeter80?1hu@ 0000000180055e28     ad_block_client_wrap.obj
 0002:00013e50       ??_C@_02BEDCDBMG@hu@       0000000180055e50     ad_block_client_wrap.obj
 0002:00013e58       ??_C@_0O@DLNHLLAG@HUN?3?5hufilter@ 0000000180055e58     ad_block_client_wrap.obj
 0002:00013e70       ??_C@_0EJ@HGDEJHFN@https?3?1?1raw?4githubusercontent?4c@ 0000000180055e70     ad_block_client_wrap.obj
 0002:00013ec0       ??_C@_0CF@FFFBMNJK@EDEEE15A?96FA9?94FAC?98CA8?93565508@ 0000000180055ec0     ad_block_client_wrap.obj
 0002:00013ef0       ??_C@_0BIJ@NAOJDEFL@MIIBIjANBgkqhkiG9w0BAQEFAAOCAQ8@ 0000000180055ef0     ad_block_client_wrap.obj
 0002:00014080       ??_C@_0CB@PPJPICEI@egooomckhdgnfbpofhkbhbkiejaihdl@ 0000000180056080     ad_block_client_wrap.obj
 0002:000140a8       ??_C@_0DD@FODIHEFI@https?3?1?1github?4com?1heradhis?1ind@ 00000001800560a8     ad_block_client_wrap.obj
 0002:000140dc       ??_C@_02EGCJHIOB@id@       00000001800560dc     ad_block_client_wrap.obj
 0002:000140e0       ??_C@_0N@FIKFCDEG@IDN?3?5ABPindo@ 00000001800560e0     ad_block_client_wrap.obj
 0002:000140f0       ??_C@_0GD@IFEEMACL@https?3?1?1raw?4githubusercontent?4c@ 00000001800560f0     ad_block_client_wrap.obj
 0002:00014158       ??_C@_0CF@EONCGOGP@93123971?95AE6?947BA?993EA?9BE1E468@ 0000000180056158     ad_block_client_wrap.obj
 0002:00014180       ??_C@_0BIJ@DBKKJJA@MIIBIjANBgkqhkiG9w0BAQEFAAOCAQ8@ 0000000180056180     ad_block_client_wrap.obj
 0002:00014310       ??_C@_0CB@KLCNAKKC@fijddbnggnpidebfbejillgbopcikfp@ 0000000180056310     ad_block_client_wrap.obj
 0002:00014338       ??_C@_0CG@EHLLKKHA@https?3?1?1www?4fanboy?4co?4nz?1filter@ 0000000180056338     ad_block_client_wrap.obj
 0002:00014360       ??_C@_02PCEFGMJL@hi@       0000000180056360     ad_block_client_wrap.obj
 0002:00014368       ??_C@_0BL@BELEMDLL@IN?3?5Fanboy?8s?5India?5Filters@ 0000000180056368     ad_block_client_wrap.obj
 0002:00014388       ??_C@_0CO@JPFLCKJO@https?3?1?1secure?4fanboy?4co?4nz?1fan@ 0000000180056388     ad_block_client_wrap.obj
 0002:000143b8       ??_C@_0CF@OJEJBAB@4C07DB6B?96377?94347?9836D?968702CF@ 00000001800563b8     ad_block_client_wrap.obj
 0002:000143e0       ??_C@_0BIJ@JKGOAFID@MIIBIjANBgkqhkiG9w0BAQEFAAOCAQ8@ 00000001800563e0     ad_block_client_wrap.obj
 0002:00014570       ??_C@_0CB@HMDJJEJJ@dbcccdegkijbppmeaihneimbghfghkd@ 0000000180056570     ad_block_client_wrap.obj
 0002:00014598       ??_C@_0CJ@DGNAGNLI@https?3?1?1github?4com?1farrokhi?1adb@ 0000000180056598     ad_block_client_wrap.obj
 0002:000145c4       ??_C@_02DAACMLJJ@fa@       00000001800565c4     ad_block_client_wrap.obj
 0002:000145c8       ??_C@_0BJ@MJGLJILB@IRN?3?5AdBlock?5Iran?5Filter@ 00000001800565c8     ad_block_client_wrap.obj
 0002:000145f0       ??_C@_0EK@CFMIOIHF@https?3?1?1raw?4githubusercontent?4c@ 00000001800565f0     ad_block_client_wrap.obj
 0002:00014640       ??_C@_0CF@JHCOFHE@C3C2F394?9D7BB?94BC2?99793?9E0F13B2@ 0000000180056640     ad_block_client_wrap.obj
 0002:00014670       ??_C@_0BIJ@DGOINPJI@MIIBIjANBgkqhkiG9w0BAQEFAAOCAQ8@ 0000000180056670     ad_block_client_wrap.obj
 0002:00014800       ??_C@_0CB@NDBOFIKO@njhlaafgablgnekjaodhgbaomabjiba@ 0000000180056800     ad_block_client_wrap.obj
 0002:00014828       ??_C@_0BM@KDAADFDK@https?3?1?1adblock?4gardar?4net?1@ 0000000180056828     ad_block_client_wrap.obj
 0002:00014844       ??_C@_02EDKKPMHH@is@       0000000180056844     ad_block_client_wrap.obj
 0002:00014848       ??_C@_0BI@PFELEADO@ISL?3?5Icelandic?5ABP?5List@ 0000000180056848     ad_block_client_wrap.obj
 0002:00014860       ??_C@_0CG@JBLHECBE@https?3?1?1adblock?4gardar?4net?1is?4a@ 0000000180056860     ad_block_client_wrap.obj
 0002:00014888       ??_C@_0CF@LDKIAJEF@48796273?9E783?9431E?9B864?944D3DCE@ 0000000180056888     ad_block_client_wrap.obj
 0002:000148b0       ??_C@_0BIJ@NBLGKAPB@MIIBIjANBgkqhkiG9w0BAQEFAAOCAQ8@ 00000001800568b0     ad_block_client_wrap.obj
 0002:00014a40       ??_C@_0CB@EEBDFGJA@hjeidaaocognlgpdkfeenmiefipcffb@ 0000000180056a40     ad_block_client_wrap.obj
 0002:00014a68       ??_C@_0CL@CJEKMCGE@https?3?1?1github?4com?1easylist?1Eas@ 0000000180056a68     ad_block_client_wrap.obj
 0002:00014a94       ??_C@_02FOPACDJH@he@       0000000180056a94     ad_block_client_wrap.obj
 0002:00014a98       ??_C@_0BF@JPNJLPOA@ISR?3?5EasyList?5Hebrew@ 0000000180056a98     ad_block_client_wrap.obj
 0002:00014ab0       ??_C@_0FE@LBMIEBED@https?3?1?1raw?4githubusercontent?4c@ 0000000180056ab0     ad_block_client_wrap.obj
 0002:00014b08       ??_C@_0CF@NALOLDB@85F65E06?9D7DA?94144?9B6A5?9E1AA965@ 0000000180056b08     ad_block_client_wrap.obj
 0002:00014b30       ??_C@_0BIJ@MAHECIAI@MIIBIjANBgkqhkiG9w0BAQEFAAOCAQ8@ 0000000180056b30     ad_block_client_wrap.obj
 0002:00014cc0       ??_C@_0CB@ICHLKNFB@agfanagdjcijocanbeednbhclejcjlf@ 0000000180056cc0     ad_block_client_wrap.obj
 0002:00014ce8       ??_C@_0BJ@BHJFGPFA@https?3?1?1xfiles?4noads?4it?1@ 0000000180056ce8     ad_block_client_wrap.obj
 0002:00014d08       ??_C@_0BB@IOLDAHHK@ITA?3?5ABP?5X?5Files@ 0000000180056d08     ad_block_client_wrap.obj
 0002:00014d20       ??_C@_0EB@KLCBJKIC@https?3?1?1raw?4githubusercontent?4c@ 0000000180056d20     ad_block_client_wrap.obj
 0002:00014d68       ??_C@_0CF@KOBEJNLE@A0E9F361?9A01F?94C0E?9A52D?92977A1A@ 0000000180056d68     ad_block_client_wrap.obj
 0002:00014d90       ??_C@_0BIJ@CINJHLMP@MIIBIjANBgkqhkiG9w0BAQEFAAOCAQ8@ 0000000180056d90     ad_block_client_wrap.obj
 0002:00014f20       ??_C@_0CB@JDCIJMOI@nkmllpnhpfieajahfpfmjneipnddhim@ 0000000180056f20     ad_block_client_wrap.obj
 0002:00014f48       ??_C@_0CL@CFCIOOBI@https?3?1?1forums?4lanik?4us?1viewfor@ 0000000180056f48     ad_block_client_wrap.obj
 0002:00014f74       ??_C@_02MOLGKLA@it@        0000000180056f74     ad_block_client_wrap.obj
 0002:00014f78       ??_C@_0BE@FCIHLKLG@ITA?3?5EasyList?5Italy@ 0000000180056f78     ad_block_client_wrap.obj
 0002:00014f90       ??_C@_0DN@MCFPPILJ@https?3?1?1easylist?9downloads?4adbl@ 0000000180056f90     ad_block_client_wrap.obj
 0002:00014fd0       ??_C@_0CF@BLBIEDNP@AB1A661D?9E946?94F29?9B47F?9CA3885F@ 0000000180056fd0     ad_block_client_wrap.obj
 0002:00015000       ??_C@_0BIJ@OJHPMBIJ@MIIBIjANBgkqhkiG9w0BAQEFAAOCAQ8@ 0000000180057000     ad_block_client_wrap.obj
 0002:00015190       ??_C@_0CB@DABCKNKF@ghnjmapememheddlfgmklijahiofgke@ 0000000180057190     ad_block_client_wrap.obj
 0002:000151c0       ??_C@_0EB@LDMINMOP@https?3?1?1github?4com?1k2jp?1abp?9jap@ 00000001800571c0     ad_block_client_wrap.obj
 0002:00015204       ??_C@_02DJBIDCPN@ja@       0000000180057204     ad_block_client_wrap.obj
 0002:00015208       ??_C@_0DC@GFCLGAGI@JPN?3?5ABP?5Japanese?5filters?5?$CI?f?$JH?$KF?f@ 0000000180057208     ad_block_client_wrap.obj
 0002:00015240       ??_C@_0EN@JCGPAGCC@https?3?1?1raw?4githubusercontent?4c@ 0000000180057240     ad_block_client_wrap.obj
 0002:00015290       ??_C@_0CF@MEIABIKN@03F91310?99244?940FA?9BCF6?9DA31B83@ 0000000180057290     ad_block_client_wrap.obj
 0002:000152c0       ??_C@_0BIJ@GKGDFMLM@MIIBIjANBgkqhkiG9w0BAQEFAAOCAQ8@ 00000001800572c0     ad_block_client_wrap.obj
 0002:00015450       ??_C@_0CB@LANEMFIH@oidcknjcjepjgfpammgdalpnjefekhg@ 0000000180057450     ad_block_client_wrap.obj
 0002:00015478       ??_C@_0BJ@BACPCPAC@https?3?1?1forums?4lanik?4us?1@ 0000000180057478     ad_block_client_wrap.obj
 0002:00015498       ??_C@_0BF@FHDAIPEM@KOR?3?5Fanboy?8s?5Korean@ 0000000180057498     ad_block_client_wrap.obj
 0002:000154b0       ??_C@_0CL@HHKDPMEC@https?3?1?1www?4fanboy?4co?4nz?1fanboy@ 00000001800574b0     ad_block_client_wrap.obj
 0002:000154e0       ??_C@_0CF@EBAKIBKJ@51260D6E?928F8?94EEC?9B76D?93046DAD@ 00000001800574e0     ad_block_client_wrap.obj
 0002:00015510       ??_C@_0BIJ@BLNPKLAB@MIIBIjANBgkqhkiG9w0BAQEFAAOCAQ8@ 0000000180057510     ad_block_client_wrap.obj
 0002:000156a0       ??_C@_0CB@OLBPGHCA@jboldinnegecjonfmaahihagfahjceo@ 00000001800576a0     ad_block_client_wrap.obj
 0002:000156c8       ??_C@_0DC@CPHKMMJI@https?3?1?1github?4com?1gfmaster?1adb@ 00000001800576c8     ad_block_client_wrap.obj
 0002:000156fc       ??_C@_02KGFJHFEE@ko@       00000001800576fc     ad_block_client_wrap.obj
 0002:00015700       ??_C@_0BJ@DFIHONLD@KOR?3?5Korean?5Adblock?5List@ 0000000180057700     ad_block_client_wrap.obj
 0002:00015720       ??_C@_0FD@HDKFPILK@https?3?1?1raw?4githubusercontent?4c@ 0000000180057720     ad_block_client_wrap.obj
 0002:00015778       ??_C@_0CF@MPJPDINL@1E6CF01B?9AFC4?947D2?9AE59?93E32A1E@ 0000000180057778     ad_block_client_wrap.obj
 0002:000157a0       ??_C@_0BIJ@MOMLGCFH@MIIBIjANBgkqhkiG9w0BAQEFAAOCAQ8@ 00000001800577a0     ad_block_client_wrap.obj
 0002:00015930       ??_C@_0CB@KEPHDCGH@djhjpnilfflibdflbkgapjfldapkjcg@ 0000000180057930     ad_block_client_wrap.obj
 0002:00015958       ??_C@_0CB@BGHMJLLK@https?3?1?1github?4com?1yous?1YousLis@ 0000000180057958     ad_block_client_wrap.obj
 0002:00015980       ??_C@_0O@MNPFHIIC@KOR?3?5YousList@ 0000000180057980     ad_block_client_wrap.obj
 0002:00015990       ??_C@_0EE@EIGDJFKB@https?3?1?1raw?4githubusercontent?4c@ 0000000180057990     ad_block_client_wrap.obj
 0002:000159d8       ??_C@_0CF@PJPEPKKK@45B3ED40?9C607?9454F?9A623?9195FDD0@ 00000001800579d8     ad_block_client_wrap.obj
 0002:00015a00       ??_C@_0BIJ@MDEOKPGD@MIIBIjANBgkqhkiG9w0BAQEFAAOCAQ8@ 0000000180057a00     ad_block_client_wrap.obj
 0002:00015b90       ??_C@_0CB@MOCBCBOA@ekodlgldheejnlkhiceghfgdcplpeoe@ 0000000180057b90     ad_block_client_wrap.obj
 0002:00015bb8       ??_C@_0CL@LKJGMCIC@https?3?1?1margevicius?4lt?1easylist@ 0000000180057bb8     ad_block_client_wrap.obj
 0002:00015be4       ??_C@_02KCAKIFL@lt@        0000000180057be4     ad_block_client_wrap.obj
 0002:00015be8       ??_C@_0BM@CDAGIOKJ@LTU?3?5Adblock?5Plus?5Lithuania@ 0000000180057be8     ad_block_client_wrap.obj
 0002:00015c08       ??_C@_0CN@IEKKPOOK@https?3?1?1margevicius?4lt?1easylist@ 0000000180057c08     ad_block_client_wrap.obj
 0002:00015c38       ??_C@_0CF@HBCMCOLK@4E8B1A63?9DEBE?94B8B?9AD78?93811C63@ 0000000180057c38     ad_block_client_wrap.obj
 0002:00015c60       ??_C@_0BIJ@DDAMOBMI@MIIBIjANBgkqhkiG9w0BAQEFAAOCAQ8@ 0000000180057c60     ad_block_client_wrap.obj
 0002:00015df0       ??_C@_0CB@DFOLEKKE@hmabmnondepbfogenlfklniehjedmic@ 0000000180057df0     ad_block_client_wrap.obj
 0002:00015e18       ??_C@_0DB@LCMJHKAA@https?3?1?1notabug?4org?1latvian?9lis@ 0000000180057e18     ad_block_client_wrap.obj
 0002:00015e4c       ??_C@_02DIBGMKNJ@lv@       0000000180057e4c     ad_block_client_wrap.obj
 0002:00015e50       ??_C@_0BC@OCGIKPNK@LVA?3?5Latvian?5List@ 0000000180057e50     ad_block_client_wrap.obj
 0002:00015e70       ??_C@_0FD@LPFPPLIO@https?3?1?1notabug?4org?1latvian?9lis@ 0000000180057e70     ad_block_client_wrap.obj
 0002:00015ec8       ??_C@_0CF@LFKGCDDF@15B64333?9BAF9?94B77?9ADC8?9935433C@ 0000000180057ec8     ad_block_client_wrap.obj
 0002:00015ef0       ??_C@_0BIJ@DFJIIJL@MIIBIjANBgkqhkiG9w0BAQEFAAOCAQ8@ 0000000180057ef0     ad_block_client_wrap.obj
 0002:00016080       ??_C@_0CB@PKDBDEGN@fbmjnabmpmfnfknjmbegjmjigmelggm@ 0000000180058080     ad_block_client_wrap.obj
 0002:000160a8       ??_C@_0CM@NDGNCBG@https?3?1?1forums?4lanik?4us?1viewfor@ 00000001800580a8     ad_block_client_wrap.obj
 0002:000160d4       ??_C@_02ILLPOEGM@nl@       00000001800580d4     ad_block_client_wrap.obj
 0002:000160d8       ??_C@_0BE@PDGGKCKD@NLD?3?5EasyList?5Dutch@ 00000001800580d8     ad_block_client_wrap.obj
 0002:000160f0       ??_C@_0DN@CKEDPJNC@https?3?1?1easylist?9downloads?4adbl@ 00000001800580f0     ad_block_client_wrap.obj
 0002:00016130       ??_C@_0CF@CMFCIKKO@9D644676?94784?94982?9B94D?9C9AB190@ 0000000180058130     ad_block_client_wrap.obj
 0002:00016160       ??_C@_0BIJ@PALAFAPE@MIIBIjANBgkqhkiG9w0BAQEFAAOCAQ8@ 0000000180058160     ad_block_client_wrap.obj
 0002:000162f0       ??_C@_0CB@FNIIPIOA@paoecjnjjbclkgbempaeemcbeldldlb@ 00000001800582f0     ad_block_client_wrap.obj
 0002:00016318       ??_C@_0DK@BBNLBNHM@https?3?1?1www?4certyficate?4it?1adbl@ 0000000180058318     ad_block_client_wrap.obj
 0002:00016354       ??_C@_02JNAHGKBG@pl@       0000000180058354     ad_block_client_wrap.obj
 0002:00016358       ??_C@_0CK@EFOEIICD@POL?3?5polskie?5filtry?5do?5Adblocka@ 0000000180058358     ad_block_client_wrap.obj
 0002:00016388       ??_C@_0CP@MMAOIAEM@https?3?1?1www?4certyficate?4it?1adbl@ 0000000180058388     ad_block_client_wrap.obj
 0002:000163b8       ??_C@_0CF@MGNHGIIM@BF9234EB?94CB7?94CED?99FCB?9F1FD31B@ 00000001800583b8     ad_block_client_wrap.obj
 0002:000163e0       ??_C@_0BIJ@GPECDNLA@MIIBIjANBgkqhkiG9w0BAQEFAAOCAQ8@ 00000001800583e0     ad_block_client_wrap.obj
 0002:00016570       ??_C@_0CB@IKIBIODE@dmoefgliihlcfplldbllllbofegmojn@ 0000000180058570     ad_block_client_wrap.obj
 0002:000165a0       ??_C@_0GB@JFHFEFOA@https?3?1?1forum?4adguard?4com?1forum@ 00000001800585a0     ad_block_client_wrap.obj
 0002:00016608       ??_C@_0BM@EBDEKIGD@RUS?3?5Adguard?5Russian?5Filter@ 0000000180058608     ad_block_client_wrap.obj
 0002:00016628       ??_C@_0CO@OGOEOMBC@https?3?1?1adguard?4com?1en?1filter?9r@ 0000000180058628     ad_block_client_wrap.obj
 0002:00016658       ??_C@_0CF@NONACGDL@1088D292?92369?94D40?99BDF?9C7DC03C@ 0000000180058658     ad_block_client_wrap.obj
 0002:00016680       ??_C@_0BIJ@KOHFEODC@MIIBIjANBgkqhkiG9w0BAQEFAAOCAQ8@ 0000000180058680     ad_block_client_wrap.obj
 0002:00016810       ??_C@_0CB@JEIDEFCA@fmcofgdkijoanfaodpdfjipdgnjbiol@ 0000000180058810     ad_block_client_wrap.obj
 0002:00016838       ??_C@_0CM@DPAALAJE@https?3?1?1forums?4lanik?4us?1viewfor@ 0000000180058838     ad_block_client_wrap.obj
 0002:00016870       ??_C@_0FE@LIOMHMMO@RUS?3?5BitBlock?5List?5?$CI?P?$JE?P?$LO?P?$LP?P?$LO?P?$LL?P@ 0000000180058870     ad_block_client_wrap.obj
 0002:000168c8       ??_C@_0DI@FOLJAOJA@https?3?1?1easylist?9downloads?4adbl@ 00000001800588c8     ad_block_client_wrap.obj
 0002:00016900       ??_C@_0CF@ODBHHIJF@DABC6490?970E5?946DD?98BE2?9358FB9A@ 0000000180058900     ad_block_client_wrap.obj
 0002:00016930       ??_C@_0BIJ@CJAIEAML@MIIBIjANBgkqhkiG9w0BAQEFAAOCAQ8@ 0000000180058930     ad_block_client_wrap.obj
 0002:00016ac0       ??_C@_0CB@PHCAIJGJ@enkheaiicpeffbfgjiklngbpkilnbko@ 0000000180058ac0     ad_block_client_wrap.obj
 0002:00016ae4       ??_C@_02FIDBHGA@ru@        0000000180058ae4     ad_block_client_wrap.obj
 0002:00016ae8       ??_C@_02NEINDODK@uk@       0000000180058ae8     ad_block_client_wrap.obj
 0002:00016aec       ??_C@_02FDGHKGEB@be@       0000000180058aec     ad_block_client_wrap.obj
 0002:00016af0       ??_C@_0FI@CGLECBLM@RUS?3?5RU?5AdList?5?$CI?P?$JE?P?$LO?P?$LP?P?$LO?P?$LL?P?$LN?P?$LI?Q@ 0000000180058af0     ad_block_client_wrap.obj
 0002:00016b48       ??_C@_0DI@CFLANKHB@https?3?1?1easylist?9downloads?4adbl@ 0000000180058b48     ad_block_client_wrap.obj
 0002:00016b80       ??_C@_0CF@EJJGOIGB@80470EEC?9970F?94F2C?9BF6B?94810520@ 0000000180058b80     ad_block_client_wrap.obj
 0002:00016bb0       ??_C@_0BIJ@EJJKDPMF@MIIBIjANBgkqhkiG9w0BAQEFAAOCAQ8@ 0000000180058bb0     ad_block_client_wrap.obj
 0002:00016d40       ??_C@_0CB@OEFPJHAK@pdecoifadfkklajdlmndjpkhabpklld@ 0000000180058d40     ad_block_client_wrap.obj
 0002:00016d68       ??_C@_0CM@CGBLIBNF@https?3?1?1forums?4lanik?4us?1viewfor@ 0000000180058d68     ad_block_client_wrap.obj
 0002:00016d94       ??_C@_02EKLAAFBD@es@       0000000180058d94     ad_block_client_wrap.obj
 0002:00016d98       ??_C@_0BG@HNEIJKPI@SPA?3?5EasyList?5Spanish@ 0000000180058d98     ad_block_client_wrap.obj
 0002:00016db0       ??_C@_0DP@BCCODHNE@https?3?1?1easylist?9downloads?4adbl@ 0000000180058db0     ad_block_client_wrap.obj
 0002:00016df0       ??_C@_0CF@MFFKGIDM@AE657374?91851?94DC4?9892B?99212B13@ 0000000180058df0     ad_block_client_wrap.obj
 0002:00016e20       ??_C@_0BIJ@DNAAICGM@MIIBIjANBgkqhkiG9w0BAQEFAAOCAQ8@ 0000000180058e20     ad_block_client_wrap.obj
 0002:00016fb0       ??_C@_0CB@CNBMCFNP@lddghfaofadfpaajgncgkbjhalgohfk@ 0000000180058fb0     ad_block_client_wrap.obj
 0002:00016fd8       ??_C@_0DA@PEAIAJBK@https?3?1?1github?4com?1betterwebleo@ 0000000180058fd8     ad_block_client_wrap.obj
 0002:00017008       ??_C@_02JPEBNEEP@sl@       0000000180059008     ad_block_client_wrap.obj
 0002:00017010       ??_C@_0BE@DFJCOEBH@SVN?3?5Slovenian?5List@ 0000000180059010     ad_block_client_wrap.obj
 0002:00017030       ??_C@_0FC@JOCOOIK@https?3?1?1raw?4githubusercontent?4c@ 0000000180059030     ad_block_client_wrap.obj
 0002:00017088       ??_C@_0CF@OLAFJDN@418D293D?972A8?94A28?98718?9A1EE40A@ 0000000180059088     ad_block_client_wrap.obj
 0002:000170b0       ??_C@_0BIJ@NNIOIIH@MIIBIjANBgkqhkiG9w0BAQEFAAOCAQ8@ 00000001800590b0     ad_block_client_wrap.obj
 0002:00017240       ??_C@_0CB@MIBOMEMJ@oimfmeehpinnecjghphifehbbnddjkm@ 0000000180059240     ad_block_client_wrap.obj
 0002:00017268       ??_C@_0DH@DMCNOFMI@https?3?1?1github?4com?1lassekongo83@ 0000000180059268     ad_block_client_wrap.obj
 0002:000172a0       ??_C@_02CPGMCOJE@sv@       00000001800592a0     ad_block_client_wrap.obj
 0002:000172a8       ??_C@_0BM@IFJFEENE@SWE?3?5Frellwit?8s?5Filter?5List@ 00000001800592a8     ad_block_client_wrap.obj
 0002:000172d0       ??_C@_0GK@HONLBHHA@https?3?1?1raw?4githubusercontent?4c@ 00000001800592d0     ad_block_client_wrap.obj
 0002:00017340       ??_C@_0CF@DFIEMPJ@7DC2AC80?95BBC?949B8?9B473?9A31A114@ 0000000180059340     ad_block_client_wrap.obj
 0002:00017370       ??_C@_0BIJ@PIDNEDEK@MIIBIjANBgkqhkiG9w0BAQEFAAOCAQ8@ 0000000180059370     ad_block_client_wrap.obj
 0002:00017500       ??_C@_0CB@CNFPJCNJ@oooemoeokehlgldpjjhcgbndjceklli@ 0000000180059500     ad_block_client_wrap.obj
 0002:00017528       ??_C@_0DL@LAOMJFEN@https?3?1?1forum?4adguard?4com?1forum@ 0000000180059528     ad_block_client_wrap.obj
 0002:00017564       ??_C@_02EOEPPNBF@tr@       0000000180059564     ad_block_client_wrap.obj
 0002:00017568       ??_C@_0BM@GKMLOJA@TUR?3?5Adguard?5Turkish?5Filter@ 0000000180059568     ad_block_client_wrap.obj
 0002:00017588       ??_C@_0CM@PGBJLHAJ@https?3?1?1adguard?4com?1filter?9rule@ 0000000180059588     ad_block_client_wrap.obj
 0002:000175b8       ??_C@_0CF@MBNJBJEE@1BE19EFD?99191?94560?9878E?930ECA72@ 00000001800595b8     ad_block_client_wrap.obj
 0002:000175e0       ??_C@_0BIJ@FANCJGIB@MIIBIjANBgkqhkiG9w0BAQEFAAOCAQ8@ 00000001800595e0     ad_block_client_wrap.obj
 0002:00017770       ??_C@_0CB@GEBJBLOE@cklgijeopkpaadeipkhdaodemoenlen@ 0000000180059770     ad_block_client_wrap.obj
 0002:00017794       ??_C@_02OEPNOCOB@vi@       0000000180059794     ad_block_client_wrap.obj
 0002:00017798       ??_C@_0BJ@MIILLDJO@VIE?3?5Fanboy?8s?5Vietnamese@ 0000000180059798     ad_block_client_wrap.obj
 0002:000177b8       ??_C@_0CM@EAPGFOHB@https?3?1?1www?4fanboy?4co?4nz?1fanboy@ 00000001800597b8     ad_block_client_wrap.obj
 0002:000177e8       ??_C@_0CF@MHPHLOHA@6A0209AC?99869?94FD6?9A9DF?9039B420@ 00000001800597e8     ad_block_client_wrap.obj
 0002:00017810       ??_C@_0CN@GFDFMHGK@http?3?1?1www?4spam404?4com?1domain?9b@ 0000000180059810     ad_block_client_wrap.obj
 0002:00017840       ??_C@_0BJ@OFGENKAF@Spam404?5Domain?5Blacklist@ 0000000180059840     ad_block_client_wrap.obj
 0002:00017860       ??_C@_0EJ@HJOINPPC@https?3?1?1raw?4githubusercontent?4c@ 0000000180059860     ad_block_client_wrap.obj
 0002:000178b0       ??_C@_0CF@GGAOGOLF@AE08317A?9778F?94B95?9BC12?97E78C1F@ 00000001800598b0     ad_block_client_wrap.obj
 0002:000178d8       ??_C@_0BH@HAHHBBFL@https?3?1?1disconnect?4me?1@ 00000001800598d8     ad_block_client_wrap.obj
 0002:000178f0       ??_C@_0BK@KKABCCIG@Disconnect?5Simple?5Malware@ 00000001800598f0     ad_block_client_wrap.obj
 0002:00017910       ??_C@_0EA@KKANBNM@https?3?1?1s3?4amazonaws?4com?1lists?4@ 0000000180059910     ad_block_client_wrap.obj
 0002:00017950       ??_C@_0CF@GNOGNLO@FBB430E8?93910?94761?99373?9840FC3B@ 0000000180059950     ad_block_client_wrap.obj
 0002:00017978       ??_C@_0CB@OOGGKOGC@cffkpbalmllkdoenhmdmpbkajipdjfa@ 0000000180059978     ad_block_client_wrap.obj
 0002:000179a0       ??_C@_0BIJ@PBIJFKGD@MIIBIjANBgkqhkiG9w0BAQEFAAOCAQ8@ 00000001800599a0     ad_block_client_wrap.obj
 0002:00017b30       ??_C@_0BF@GKLFAFNG@https?3?1?1easylist?4to?1@ 0000000180059b30     ad_block_client_wrap.obj
 0002:00017b48       ??_C@_08KGNGPMLJ@EasyList@ 0000000180059b48     ad_block_client_wrap.obj
 0002:00017b58       ??_C@_0CK@HBCKCPNK@https?3?1?1easylist?4to?1easylist?1ea@ 0000000180059b58     ad_block_client_wrap.obj
 0002:00017b88       ??_C@_0CF@CJBKHKO@67F880F5?97602?94042?98A3D?901481FD@ 0000000180059b88     ad_block_client_wrap.obj
 0002:00017bb0       ??_C@_0M@LMIAKFAE@EasyPrivacy@ 0000000180059bb0     ad_block_client_wrap.obj
 0002:00017bc0       ??_C@_0CN@MNNBFPGG@https?3?1?1easylist?4to?1easylist?1ea@ 0000000180059bc0     ad_block_client_wrap.obj
 0002:00017bf0       ??_C@_0CF@OEOAGBJK@48010209?9AD34?94DF5?9A80C?93D2A7C3@ 0000000180059bf0     ad_block_client_wrap.obj
 0002:00017c18       ??_C@_0CC@NLJDJDAG@https?3?1?1github?4com?1gorhill?1uBlo@ 0000000180059c18     ad_block_client_wrap.obj
 0002:00017c40       ??_C@_0P@NCOKHFAM@uBlock?5Unbreak@ 0000000180059c40     ad_block_client_wrap.obj
 0002:00017c50       ??_C@_0FA@KPEEDPKP@https?3?1?1raw?4githubusercontent?4c@ 0000000180059c50     ad_block_client_wrap.obj
 0002:00017ca0       ??_C@_0CF@MFOCMEI@200392E7?99A0F?940DF?986EB?96AF7E40@ 0000000180059ca0     ad_block_client_wrap.obj
 0002:00017cc8       ??_C@_0CH@CBKGCKCG@https?3?1?1github?4com?1brave?1adbloc@ 0000000180059cc8     ad_block_client_wrap.obj
 0002:00017cf0       ??_C@_0O@DEAIFHKM@Brave?5Unblock@ 0000000180059cf0     ad_block_client_wrap.obj
 0002:00017d00       ??_C@_0EP@KMJKCKGG@https?3?1?1raw?4githubusercontent?4c@ 0000000180059d00     ad_block_client_wrap.obj
 0002:00017d50       ??_C@_0CF@OKEOFDEO@2FBEB0BC?9E2E1?94170?9BAA9?905E76AA@ 0000000180059d50     ad_block_client_wrap.obj
 0002:00017d78       ??_C@_0BD@CEPPHGFA@NoCoin?5Filter?5List@ 0000000180059d78     ad_block_client_wrap.obj
 0002:00017d90       ??_C@_0EN@CHIGOCFC@https?3?1?1raw?4githubusercontent?4c@ 0000000180059d90     ad_block_client_wrap.obj
 0002:00017de0       ??_C@_0CF@LMMNPCNJ@BCDF774A?97845?94121?9B7EB?977EB66C@ 0000000180059de0     ad_block_client_wrap.obj
 0002:00017e08       ??_C@_04BCJJGJPP@uuid@     0000000180059e08     ad_block_client_wrap.obj
 0002:00017e10       ??_C@_07ENHEKAHD@listURL@  0000000180059e10     ad_block_client_wrap.obj
 0002:00017e18       ??_C@_05PHLGJONK@title@    0000000180059e18     ad_block_client_wrap.obj
 0002:00017e20       ??_C@_0L@EHEKLFPG@supportURL@ 0000000180059e20     ad_block_client_wrap.obj
 0002:00017e30       ??_C@_0M@GPAKHAGM@componentID@ 0000000180059e30     ad_block_client_wrap.obj
 0002:00017e40       ??_C@_0BA@GAHABACO@base64PublicKey@ 0000000180059e40     ad_block_client_wrap.obj
 0002:00017e50       ??_C@_05HCKLICA@langs@     0000000180059e50     ad_block_client_wrap.obj
 0002:00017e58       ??_C@_01HCONENDN@?$HL@     0000000180059e58     ad_block_client_wrap.obj
 0002:00017e60       ??_C@_0DF@DEMGIHID@?5?5?$CCdescription?$CC?3?5?$CCBrave?5Ad?5Bloc@ 0000000180059e60     ad_block_client_wrap.obj
 0002:00017e98       ??_C@_02CEGNPMN@?$CC?0@    0000000180059e98     ad_block_client_wrap.obj
 0002:00017ea0       ??_C@_0L@DCPEIPPG@?5?5?$CCkey?$CC?3?5?$CC@ 0000000180059ea0     ad_block_client_wrap.obj
 0002:00017eb0       ??_C@_0BJ@DBMGIPJL@?5?5?$CCmanifest_version?$CC?3?52?0@ 0000000180059eb0     ad_block_client_wrap.obj
 0002:00017ecc       ??_C@_03BHJDJHH@?$CJ?$CC?0@ 0000000180059ecc     ad_block_client_wrap.obj
 0002:00017ed0       ??_C@_0CE@PAJKLBGE@?5?5?$CCname?$CC?3?5?$CCBrave?5Ad?5Block?5Updat@ 0000000180059ed0     ad_block_client_wrap.obj
 0002:00017ef8       ??_C@_0BF@MLHPILPG@?5?5?$CCversion?$CC?3?5?$CC0?40?40?$CC@ 0000000180059ef8     ad_block_client_wrap.obj
 0002:00017f10       ??_C@_01CELHOKLL@?$HN@     0000000180059f10     ad_block_client_wrap.obj
 0002:00017f18       ??_C@_0O@OJLILLIG@AdBlockClient@ 0000000180059f18     ad_block_client_wrap.obj
 0002:00017f28       ??_C@_05MEHLAELG@clear@    0000000180059f28     ad_block_client_wrap.obj
 0002:00017f30       ??_C@_05GOEGCMJM@parse@    0000000180059f30     ad_block_client_wrap.obj
 0002:00017f38       ??_C@_07GEPGMPF@matches@   0000000180059f38     ad_block_client_wrap.obj
 0002:00017f40       ??_C@_0BE@KDAOLEII@findMatchingFilters@ 0000000180059f40     ad_block_client_wrap.obj
 0002:00017f58       ??_C@_09HPAMHOHM@serialize@ 0000000180059f58     ad_block_client_wrap.obj
 0002:00017f68       ??_C@_0M@ONIELNGI@deserialize@ 0000000180059f68     ad_block_client_wrap.obj
 0002:00017f78       ??_C@_0BA@HNEDHFEF@getParsingStats@ 0000000180059f78     ad_block_client_wrap.obj
 0002:00017f88       ??_C@_0L@KKDBEKAN@getFilters@ 0000000180059f88     ad_block_client_wrap.obj
 0002:00017f98       ??_C@_0P@KEDDBAFG@getFingerprint@ 0000000180059f98     ad_block_client_wrap.obj
 0002:00017fa8       ??_C@_0BB@IKLLPBIK@getMatchingStats@ 0000000180059fa8     ad_block_client_wrap.obj
 0002:00017fc0       ??_C@_0BO@CFAAEONI@enableBadFingerprintDetection@ 0000000180059fc0     ad_block_client_wrap.obj
 0002:00017fe0       ??_C@_0BO@CCPBMAEF@generateBadFingerprintsHeader@ 0000000180059fe0     ad_block_client_wrap.obj
 0002:00018000       ??_C@_0BM@MIMKNHPO@generateDefaultManifestFile@ 000000018005a000     ad_block_client_wrap.obj
 0002:00018020       ??_C@_0BO@EPFLDCNG@generateRegionalManifestFiles@ 000000018005a020     ad_block_client_wrap.obj
 0002:00018040       ??_C@_07NCDIDCDG@cleanup@  000000018005a040     ad_block_client_wrap.obj
 0002:00018048       ??_C@_0P@ODLOMNEG@noFilterOption@ 000000018005a048     ad_block_client_wrap.obj
 0002:00018058       ??_C@_06OLONEIEH@script@   000000018005a058     ad_block_client_wrap.obj
 0002:00018060       ??_C@_05NGOMGBBD@image@    000000018005a060     ad_block_client_wrap.obj
 0002:00018068       ??_C@_0L@CDJDANNA@stylesheet@ 000000018005a068     ad_block_client_wrap.obj
 0002:00018074       ??_C@_06IEOJBDIK@object@   000000018005a074     ad_block_client_wrap.obj
 0002:00018080       ??_C@_0P@BHNPDLEE@xmlHttpRequest@ 000000018005a080     ad_block_client_wrap.obj
 0002:00018090       ??_C@_0BB@NAKOGCLC@objectSubrequest@ 000000018005a090     ad_block_client_wrap.obj
 0002:000180a8       ??_C@_0M@CMAGMI@subdocument@ 000000018005a0a8     ad_block_client_wrap.obj
 0002:000180b8       ??_C@_08JEEDKNPB@document@ 000000018005a0b8     ad_block_client_wrap.obj
 0002:000180c4       ??_C@_05BGEKGIIP@other@    000000018005a0c4     ad_block_client_wrap.obj
 0002:000180cc       ??_C@_03PCCLJDHF@xbl@      000000018005a0cc     ad_block_client_wrap.obj
 0002:000180d0       ??_C@_08MHKDLKBN@collapse@ 000000018005a0d0     ad_block_client_wrap.obj
 0002:000180e0       ??_C@_0L@ICKMEND@doNotTrack@ 000000018005a0e0     ad_block_client_wrap.obj
 0002:000180f0       ??_C@_08JMFLLCJH@elemHide@ 000000018005a0f0     ad_block_client_wrap.obj
 0002:00018100       ??_C@_0L@LNBANOCM@thirdParty@ 000000018005a100     ad_block_client_wrap.obj
 0002:00018110       ??_C@_0O@MIDJPGJJ@notThirdParty@ 000000018005a110     ad_block_client_wrap.obj
 0002:00018120       ??_C@_04OONEELOO@ping@     000000018005a120     ad_block_client_wrap.obj
 0002:00018128       ??_C@_05EIEHMANA@popup@    000000018005a128     ad_block_client_wrap.obj
 0002:00018130       ??_C@_04EFPADHIC@font@     000000018005a130     ad_block_client_wrap.obj
 0002:00018138       ??_C@_05CECBHAPI@media@    000000018005a138     ad_block_client_wrap.obj
 0002:00018140       ??_C@_06CMIJOEBP@webrtc@   000000018005a140     ad_block_client_wrap.obj
 0002:00018148       ??_C@_05LBJMNBOG@empty@    000000018005a148     ad_block_client_wrap.obj
 0002:00018150       ??_C@_09JPACNFNK@websocket@ 000000018005a150     ad_block_client_wrap.obj
 0002:00018160       ??_C@_07DLHCIBDH@default@  000000018005a160     ad_block_client_wrap.obj
 0002:00018168       ??_C@_07EFDJCOJ@malware@   000000018005a168     ad_block_client_wrap.obj
 0002:00018170       ??_C@_07JOLNEKN@regions@   000000018005a170     ad_block_client_wrap.obj
 0002:00018178       ??_C@_0O@KJDLLPJN@FilterOptions@ 000000018005a178     ad_block_client_wrap.obj
 0002:00018188       ??_C@_0N@NLJCGCND@adBlockLists@ 000000018005a188     ad_block_client_wrap.obj
 0002:00018198       ??_C@_0BH@EEBFIBEN@adBlockDataFileVersion@ 000000018005a198     ad_block_client_wrap.obj
 0002:000181b0       ??_C@_0P@MIIPAHPI@matchingFilter@ 000000018005a1b0     ad_block_client_wrap.obj
 0002:000181c0       ??_C@_0BB@MPJIADKE@matchingOrigRule@ 000000018005a1c0     ad_block_client_wrap.obj
 0002:000181d8       ??_C@_0BI@LLLHHHKF@matchingExceptionFilter@ 000000018005a1d8     ad_block_client_wrap.obj
 0002:000181f0       ??_C@_0BK@JAIICCLJ@matchingExceptionOrigRule@ 000000018005a1f0     ad_block_client_wrap.obj
 0002:00018210       ??_C@_0BE@EANOLJFJ@Could?5not?5serialize@ 000000018005a210     ad_block_client_wrap.obj
 0002:00018228       ??_C@_0CG@DEKBBFDM@Could?5not?5convert?5MaybeLocal?5to@ 000000018005a228     ad_block_client_wrap.obj
 0002:00018250       ??_C@_0BK@CCNLFCGP@Wrong?5number?5of?5arguments@ 000000018005a250     ad_block_client_wrap.obj
 0002:00018270       ??_C@_0L@PGLBABEK@numFilters@ 000000018005a270     ad_block_client_wrap.obj
 0002:00018280       ??_C@_0BD@DDCPCBLL@numCosmeticFilters@ 000000018005a280     ad_block_client_wrap.obj
 0002:00018298       ??_C@_0BE@BFBJCOPO@numExceptionFilters@ 000000018005a298     ad_block_client_wrap.obj
 0002:000182b0       ??_C@_0BI@BKFPPAII@numNoFingerprintFilters@ 000000018005a2b0     ad_block_client_wrap.obj
 0002:000182c8       ??_C@_0CC@KNEMHNE@numNoFingerprintDomainOnlyFilte@ 000000018005a2c8     ad_block_client_wrap.obj
 0002:000182f0       ??_C@_0CG@KLOEIFEP@numNoFingerprintAntiDomainOnlyF@ 000000018005a2f0     ad_block_client_wrap.obj
 0002:00018318       ??_C@_0CB@ICPABHFH@numNoFingerprintExceptionFilter@ 000000018005a318     ad_block_client_wrap.obj
 0002:00018340       ??_C@_0CL@BAFJEDMC@numNoFingerprintDomainOnlyExcep@ 000000018005a340     ad_block_client_wrap.obj
 0002:00018370       ??_C@_0CP@EJACDNKI@numNoFingerprintAntiDomainOnlyE@ 000000018005a370     ad_block_client_wrap.obj
 0002:000183a0       ??_C@_0BH@CEMPILND@numHostAnchoredFilters@ 000000018005a3a0     ad_block_client_wrap.obj
 0002:000183b8       ??_C@_0CA@FCHFFFNL@numHostAnchoredExceptionFilters@ 000000018005a3b8     ad_block_client_wrap.obj
 0002:000183d8       ??_C@_07LOIMJIII@filters@  000000018005a3d8     ad_block_client_wrap.obj
 0002:000183e0       ??_C@_0BA@KBJLFFOF@cosmeticFilters@ 000000018005a3e0     ad_block_client_wrap.obj
 0002:000183f0       ??_C@_0M@KHOGCFCP@htmlFilters@ 000000018005a3f0     ad_block_client_wrap.obj
 0002:00018400       ??_C@_0BB@JJFIOGHJ@exceptionFilters@ 000000018005a400     ad_block_client_wrap.obj
 0002:00018418       ??_C@_0BF@PIABAILN@noFingerprintFilters@ 000000018005a418     ad_block_client_wrap.obj
 0002:00018430       ??_C@_0BO@OCLOLFFG@noFingerprintExceptionFilters@ 000000018005a430     ad_block_client_wrap.obj
 0002:00018450       ??_C@_0BP@HNLDLJOA@noFingerprintDomainOnlyFilters@ 000000018005a450     ad_block_client_wrap.obj
 0002:00018470       ??_C@_0CD@GOBPLGBM@noFingerprintAntiDomainOnlyFilt@ 000000018005a470     ad_block_client_wrap.obj
 0002:00018498       ??_C@_0CI@ICGIBOKM@noFingerprintDomainOnlyExceptio@ 000000018005a498     ad_block_client_wrap.obj
 0002:000184c0       ??_C@_0CM@COMDPFKB@noFingerprintAntiDomainOnlyExce@ 000000018005a4c0     ad_block_client_wrap.obj
 0002:000184ec       ??_C@_04PJOLNDGD@data@     000000018005a4ec     ad_block_client_wrap.obj
 0002:000184f4       ??_C@_04OODOLJMA@host@     000000018005a4f4     ad_block_client_wrap.obj
 0002:00018500       ??_C@_0BD@KNKIGGMF@isDomainOnlyFilter@ 000000018005a500     ad_block_client_wrap.obj
 0002:00018518       ??_C@_0BH@ODDCGAG@isAntiDomainOnlyFilter@ 000000018005a518     ad_block_client_wrap.obj
 0002:00018530       ??_C@_0BM@CKKLGJPO@isDomainOnlyExceptionFilter@ 000000018005a530     ad_block_client_wrap.obj
 0002:00018550       ??_C@_0CA@PADLNFBI@isAntiDomainOnlyExceptionFilter@ 000000018005a550     ad_block_client_wrap.obj
 0002:00018570       ??_C@_0L@PONDCKE@domainList@ 000000018005a570     ad_block_client_wrap.obj
 0002:00018580       ??_C@_0P@EGBAALFB@antiDomainList@ 000000018005a580     ad_block_client_wrap.obj
 0002:00018590       ??_C@_0BC@NPCKBNGM@numFalsePositives@ 000000018005a590     ad_block_client_wrap.obj
 0002:000185a8       ??_C@_0BL@HJHHPLLN@numExceptionFalsePositives@ 000000018005a5a8     ad_block_client_wrap.obj
 0002:000185c8       ??_C@_0BE@FNHGADIP@numBloomFilterSaves@ 000000018005a5c8     ad_block_client_wrap.obj
 0002:000185e0       ??_C@_0BN@IMDMBGMB@numExceptionBloomFilterSaves@ 000000018005a5e0     ad_block_client_wrap.obj
 0002:00018600       ??_C@_0BA@BEBDJJEK@numHashSetSaves@ 000000018005a600     ad_block_client_wrap.obj
 0002:00018610       ??_C@_0BJ@KLDNCEAB@numExceptionHashSetSaves@ 000000018005a610     ad_block_client_wrap.obj
 0002:00018630       ??_C@_0BH@HHGMDIIK@?1default?9manifest?4json@ 000000018005a630     ad_block_client_wrap.obj
 0002:00018648       ??_C@_07MCAEODGB@Default@  000000018005a648     ad_block_client_wrap.obj
 0002:00018650       ??_C@_0P@IBPBEHPD@?9manifest?4json@ 000000018005a650     ad_block_client_wrap.obj
 0002:00018660       ??_C@_01KMDKNFGN@?1@       000000018005a660     ad_block_client_wrap.obj
 0002:00018668       ??_C@_1CE@IAEMMFJ@?$AA?$CB?$AAh?$AAa?$AAn?$AAd?$AAl?$AAe?$AA?4?$AAI?$AAs?$AAE?$AAm?$AAp?$AAt?$AAy@ 000000018005a668     ad_block_client_wrap.obj
 0002:00018690       ??_C@_0BA@JFNIOLAK@string?5too?5long@ 000000018005a690     ad_block_client_wrap.obj
 0002:000186a0       ??_C@_0BD@OLBABOEK@vector?$DMT?$DO?5too?5long@ 000000018005a6a0     ad_block_client_wrap.obj
 0002:000186b8       ??_7ObjectWrap@node@@6B@   000000018005a6b8     ad_block_client_wrap.obj
 0002:000186d0       ??_7?$basic_ofstream@DU?$char_traits@D@std@@@std@@6B@ 000000018005a6d0     ad_block_client_wrap.obj
 0002:000186d8       ??_8?$basic_ofstream@DU?$char_traits@D@std@@@std@@7B@ 000000018005a6d8     ad_block_client_wrap.obj
 0002:000186e0       ??_7exception@stdext@@6B@  000000018005a6e0     ad_block_client_wrap.obj
 0002:000186f8       ??_8?$basic_ostream@DU?$char_traits@D@std@@@std@@7B@ 000000018005a6f8     ad_block_client_wrap.obj
 0002:00018700       ??_7AdBlockClientWrap@ad_block_client_wrap@@6B@ 000000018005a700     ad_block_client_wrap.obj
 0002:00018720       ?kFingerprintSize@AdBlockClient@@2HB 000000018005a720     ad_block_client.obj
 0002:00018728       ?badSubstrings@@3PAPEBDA   000000018005a728     ad_block_client.obj
 0002:00018740       ?badFingerprints@@3PAPEBDA 000000018005a740     ad_block_client.obj
 0002:000330a0       ?separatorBuffer@@3PACA    00000001800750a0     ad_block_client.obj
 0002:000330d0       __pfnDliNotifyHook2        00000001800750d0     win_delay_load_hook.obj
 0002:000330d8       ??_C@_06FHFOAHML@system@   00000001800750d8     ad_block_client.obj
 0002:000330e0       ??_C@_02DKCKIIND@?$CFs@    00000001800750e0     ad_block_client.obj
 0002:000330e4       ??_C@_06KNEOFKNE@ttp?3?1?1@ 00000001800750e4     ad_block_client.obj
 0002:000330ec       ??_C@_06JGFMPLBO@?4com?1s@ 00000001800750ec     ad_block_client.obj
 0002:000330f4       ??_C@_06LONPNAJA@?1stati@  00000001800750f4     ad_block_client.obj
 0002:000330fc       ??_C@_06LMLJGLPA@direct@   00000001800750fc     ad_block_client.obj
 0002:00033104       ??_C@_06BDPMPKBB@banner@   0000000180075104     ad_block_client.obj
 0002:0003310c       ??_C@_06DBIFAGEF@regist@   000000018007510c     ad_block_client.obj
 0002:00033114       ??_C@_06ODBNKPGF@amazon@   0000000180075114     ad_block_client.obj
 0002:0003311c       ??_C@_06OOKIILMN@?4com?1a@ 000000018007511c     ad_block_client.obj
 0002:00033124       ??_C@_06KHOEGKBG@?1aax2?1@ 0000000180075124     ad_block_client.obj
 0002:0003312c       ??_C@_06BJGJPLEB@jquery@   000000018007512c     ad_block_client.obj
 0002:00033134       ??_C@_06NPMBAEKD@?1socia@  0000000180075134     ad_block_client.obj
 0002:0003313c       ??_C@_06FOFAGHBA@social@   000000018007513c     ad_block_client.obj
 0002:00033144       ??_C@_06MFIFNIAO@?4com?1b@ 0000000180075144     ad_block_client.obj
 0002:0003314c       ??_C@_06DBJHCKNF@?1boots@  000000018007514c     ad_block_client.obj
 0002:00033154       ??_C@_06FJKEMHGD@global@   0000000180075154     ad_block_client.obj
 0002:0003315c       ??_C@_06OCOCPMLE@intern@   000000018007515c     ad_block_client.obj
 0002:00033164       ??_C@_06CAPKNJNK@?1gatew@  0000000180075164     ad_block_client.obj
 0002:0003316c       ??_C@_06JMABKGDH@cloudf@   000000018007516c     ad_block_client.obj
 0002:00033174       ??_C@_06GNOIDGAG@locati@   0000000180075174     ad_block_client.obj
 0002:0003317c       ??_C@_06LNHBKINN@?4com?1p@ 000000018007517c     ad_block_client.obj
 0002:00033184       ??_C@_06OOHMENE@?1page?1@  0000000180075184     ad_block_client.obj
 0002:0003318c       ??_C@_06JLJPPOOK@?1count@  000000018007518c     ad_block_client.obj
 0002:00033194       ??_C@_06BEBHKDGF@?4googl@  0000000180075194     ad_block_client.obj
 0002:0003319c       ??_C@_06DBPEGNOF@google@   000000018007519c     ad_block_client.obj
 0002:000331a4       ??_C@_06ICGGBMLK@?1analy@  00000001800751a4     ad_block_client.obj
 0002:000331ac       ??_C@_06CGHBABMF@?4com?1i@ 00000001800751ac     ad_block_client.obj
 0002:000331b4       ??_C@_06BMKICPBN@?3?1?1ad?4@ 00000001800751b4     ad_block_client.obj
 0002:000331bc       ??_C@_06NOODHJEL@?1adser@  00000001800751bc     ad_block_client.obj
 0002:000331c4       ??_C@_06EAKNNFPM@adserv@   00000001800751c4     ad_block_client.obj
 0002:000331cc       ??_C@_06DLCIPPHE@adtech@   00000001800751cc     ad_block_client.obj
 0002:000331d4       ??_C@_06OAGGBBCE@?1addyn@  00000001800751d4     ad_block_client.obj
 0002:000331dc       ??_C@_06BJACFMML@channe@   00000001800751dc     ad_block_client.obj
 0002:000331e4       ??_C@_06NHCMNMEH@origin@   00000001800751e4     ad_block_client.obj
 0002:000331ec       ??_C@_06FBLPCMPI@ttps?3?1@ 00000001800751ec     ad_block_client.obj
 0002:000331f4       ??_C@_06ONAFAONA@?1messa@  00000001800751f4     ad_block_client.obj
 0002:000331fc       ??_C@_06JCDEMHIB@?9publi@  00000001800751fc     ad_block_client.obj
 0002:00033204       ??_C@_06EOMAMIIF@public@   0000000180075204     ad_block_client.obj
 0002:0003320c       ??_C@_06IACIELAE@?1ajax?1@ 000000018007520c     ad_block_client.obj
 0002:00033214       ??_C@_06NBABGNGH@emedia@   0000000180075214     ad_block_client.obj
 0002:0003321c       ??_C@_06LIEFFCHC@media?4@  000000018007521c     ad_block_client.obj
 0002:00033224       ??_C@_06KJMAKDJM@?1plugi@  0000000180075224     ad_block_client.obj
 0002:0003322c       ??_C@_06ECBNMEMB@?4com?1m@ 000000018007522c     ad_block_client.obj
 0002:00033234       ??_C@_06DBHKEHFA@?1media@  0000000180075234     ad_block_client.obj
 0002:0003323c       ??_C@_06JAGLGKIN@aka?9cd@  000000018007523c     ad_block_client.obj
 0002:00033244       ??_C@_06BAONGCOC@?1adtec@  0000000180075244     ad_block_client.obj
 0002:0003324c       ??_C@_06INMLIBCJ@mobile@   000000018007524c     ad_block_client.obj
 0002:00033254       ??_C@_06HPGLOGMF@?1json?1@ 0000000180075254     ad_block_client.obj
 0002:0003325c       ??_C@_06PKKPAFMK@?1site?1@ 000000018007525c     ad_block_client.obj
 0002:00033264       ??_C@_06LKHLDIAO@advert@   0000000180075264     ad_block_client.obj
 0002:0003326c       ??_C@_06JDNPHPII@?4com?1d@ 000000018007526c     ad_block_client.obj
 0002:00033274       ??_C@_06DHCPBNA@?1click@   0000000180075274     ad_block_client.obj
 0002:0003327c       ??_C@_06OJDNIJHJ@?1adver@  000000018007527c     ad_block_client.obj
 0002:00033284       ??_C@_06OMCANLB@?1serve@   0000000180075284     ad_block_client.obj
 0002:0003328c       ??_C@_06ONLJNEBK@?1pixel@  000000018007528c     ad_block_client.obj
 0002:00033294       ??_C@_06LGIJJMOL@?1broad@  0000000180075294     ad_block_client.obj
 0002:0003329c       ??_C@_06KBKGPKOF@broadc@   000000018007529c     ad_block_client.obj
 0002:000332a4       ??_C@_06HEBNKAD@ad?4dou@   00000001800752a4     ad_block_client.obj
 0002:000332ac       ??_C@_06BNJCAIGJ@double@   00000001800752ac     ad_block_client.obj
 0002:000332b4       ??_C@_06EIOAGMOC@?4net?1d@ 00000001800752b4     ad_block_client.obj
 0002:000332bc       ??_C@_06CCAKIBNA@?1ddm?1a@ 00000001800752bc     ad_block_client.obj
 0002:000332c4       ??_C@_06HFBGFLFO@300x25@   00000001800752c4     ad_block_client.obj
 0002:000332cc       ??_C@_06GABNKGFP@?1pagea@  00000001800752cc     ad_block_client.obj
 0002:000332d4       ??_C@_06EBNIICBF@?1js?1li@ 00000001800752d4     ad_block_client.obj
 0002:000332dc       ??_C@_06IKONHIN@syndic@    00000001800752dc     ad_block_client.obj
 0002:000332e4       ??_C@_06GFPLNGOC@search@   00000001800752e4     ad_block_client.obj
 0002:000332ec       ??_C@_06DHFFDMHB@_st?4js@  00000001800752ec     ad_block_client.obj
 0002:000332f4       ??_C@_06IPMIMECD@yimg?4c@  00000001800752f4     ad_block_client.obj
 0002:000332fc       ??_C@_06OPCCKEL@?1stats@   00000001800752fc     ad_block_client.obj
 0002:00033304       ??_C@_06BALNJMNP@player@   0000000180075304     ad_block_client.obj
 0002:0003330c       ??_C@_06KBAALIDP@?1flash@  000000018007530c     ad_block_client.obj
 0002:00033314       ??_C@_06ICODFJIH@?1js?1sw@ 0000000180075314     ad_block_client.obj
 0002:0003331c       ??_C@_06GOJPDEOF@?1perfo@  000000018007531c     ad_block_client.obj
 0002:00033324       ??_C@_06BCFHIKDD@?1rq?1da@ 0000000180075324     ad_block_client.obj
 0002:0003332c       ??_C@_06JAEMHKPA@?1darla@  000000018007532c     ad_block_client.obj
 0002:00033334       ??_C@_06FKEADHGO@yahoo?4@  0000000180075334     ad_block_client.obj
 0002:0003333c       ??_C@_06LMFPNMAB@?1embed@  000000018007533c     ad_block_client.obj
 0002:00033344       ??_C@_06JPJKMJDA@?$CGvideo@ 0000000180075344     ad_block_client.obj
 0002:0003334c       ??_C@_06IDOJBKJ@?$CGpartn@ 000000018007534c     ad_block_client.obj
 0002:00033354       ??_C@_06HEJKKHEK@config@   0000000180075354     ad_block_client.obj
 0002:0003335c       ??_C@_06ONPIBDNA@?1confi@  000000018007535c     ad_block_client.obj
 0002:00033364       ??_C@_06FKHJJFFP@?1asset@  0000000180075364     ad_block_client.obj
 0002:0003336c       ??_C@_06NDAFNEPE@?1data?1@ 000000018007536c     ad_block_client.obj
 0002:00033374       ??_C@_06MMJDELAG@?1testa@  0000000180075374     ad_block_client.obj
 0002:0003337c       ??_C@_06LJLLIGPK@?$CGcusto@ 000000018007537c     ad_block_client.obj
 0002:00033384       ??_C@_06CMCDMDCJ@?1custo@  0000000180075384     ad_block_client.obj
 0002:0003338c       ??_C@_06LIPCCMEL@?4com?1g@ 000000018007538c     ad_block_client.obj
 0002:00033394       ??_C@_06IDDKHMPE@?$CGcallb@ 0000000180075394     ad_block_client.obj
 0002:0003339c       ??_C@_06CJAOIHDL@?1html?1@ 000000018007539c     ad_block_client.obj
 0002:000333a4       ??_C@_06NNMGGBOL@?1frame@  00000001800753a4     ad_block_client.obj
 0002:000333ac       ??_C@_06NFMFCAG@?4com?1j@  00000001800753ac     ad_block_client.obj
 0002:000333b4       ??_C@_06MHEOGGPO@?1js?1jq@ 00000001800753b4     ad_block_client.obj
 0002:000333bc       ??_C@_06DJEPMOKG@?1jquer@  00000001800753bc     ad_block_client.obj
 0002:000333c4       ??_C@_06BMNOGCKO@?1js?1co@ 00000001800753c4     ad_block_client.obj
 0002:000333cc       ??_C@_06CJEOGLKO@?1strea@  00000001800753cc     ad_block_client.obj
 0002:000333d4       ??_C@_06DJAMKFID@stream@   00000001800753d4     ad_block_client.obj
 0002:000333dc       ??_C@_06JCHFHJAL@?1dicti@  00000001800753dc     ad_block_client.obj
 0002:000333e4       ??_C@_06GKLMDMEC@?1css?1t@ 00000001800753e4     ad_block_client.obj
 0002:000333ec       ??_C@_06JMMBFIPO@?1defau@  00000001800753ec     ad_block_client.obj
 0002:000333f4       ??_C@_06NLFIHLKI@?1modul@  00000001800753f4     ad_block_client.obj
 0002:000333fc       ??_C@_06LAAJOGJN@?$CGview?$DN@ 00000001800753fc     ad_block_client.obj
 0002:00033404       ??_C@_06DKJPGJGB@?1ifram@  0000000180075404     ad_block_client.obj
 0002:0003340c       ??_C@_06GGHJAEBN@static@   000000018007540c     ad_block_client.obj
 0002:00033414       ??_C@_06GNPEJIKI@?1curve@  0000000180075414     ad_block_client.obj
 0002:0003341c       ??_C@_06MOPCLNDL@?1templ@  000000018007541c     ad_block_client.obj
 0002:00033424       ??_C@_06BFDLDBJC@templa@   0000000180075424     ad_block_client.obj
 0002:0003342c       ??_C@_06FIKKLNHL@?1creat@  000000018007542c     ad_block_client.obj
 0002:00033434       ??_C@_06KLKIKCAK@creati@   0000000180075434     ad_block_client.obj
 0002:0003343c       ??_C@_06EHEJGFDN@?1loadi@  000000018007543c     ad_block_client.obj
 0002:00033444       ??_C@_06PKBHCJFE@?1js?1se@ 0000000180075444     ad_block_client.obj
 0002:0003344c       ??_C@_06KCHHECLN@?1servi@  000000018007544c     ad_block_client.obj
 0002:00033454       ??_C@_06PCKBDHB@?1utils@   0000000180075454     ad_block_client.obj
 0002:0003345c       ??_C@_06HHIDLKKN@?1Event@  000000018007545c     ad_block_client.obj
 0002:00033464       ??_C@_06EGOJBIOJ@?1chann@  0000000180075464     ad_block_client.obj
 0002:0003346c       ??_C@_06EPFJGIPI@?1updat@  000000018007546c     ad_block_client.obj
 0002:00033474       ??_C@_06HDLLMMEJ@update@   0000000180075474     ad_block_client.obj
 0002:0003347c       ??_C@_06JGPMJLBI@?1local@  000000018007547c     ad_block_client.obj
 0002:00033484       ??_C@_06BBNNIDEN@?1faceb@  0000000180075484     ad_block_client.obj
 0002:0003348c       ??_C@_06OOCEKLKM@?1navig@  000000018007548c     ad_block_client.obj
 0002:00033494       ??_C@_06KACIMOD@?1video@   0000000180075494     ad_block_client.obj
 0002:0003349c       ??_C@_06LDPHJJKN@?1share@  000000018007549c     ad_block_client.obj
 0002:000334a4       ??_C@_06GEOGKNOP@?1beaco@  00000001800754a4     ad_block_client.obj
 0002:000334ac       ??_C@_06HKIIHJCH@?1clien@  00000001800754ac     ad_block_client.obj
 0002:000334b4       ??_C@_06FPKNBMND@?1comme@  00000001800754b4     ad_block_client.obj
 0002:000334bc       ??_C@_06DLEPGFEF@format@   00000001800754bc     ad_block_client.obj
 0002:000334c4       ??_C@_06HOAMOBNF@?1accou@  00000001800754c4     ad_block_client.obj
 0002:000334cc       ??_C@_06JIBMKCHA@?$CGforce@ 00000001800754cc     ad_block_client.obj
 0002:000334d4       ??_C@_06CKKGAKDB@secure@   00000001800754d4     ad_block_client.obj
 0002:000334dc       ??_C@_06LNFFJIJD@akamai@   00000001800754dc     ad_block_client.obj
 0002:000334e4       ??_C@_06HJJFMEPF@?1js?1Li@ 00000001800754e4     ad_block_client.obj
 0002:000334ec       ??_C@_06JFMPAEPN@?1?$DPadra@ 00000001800754ec     ad_block_client.obj
 0002:000334f4       ??_C@_06HANPNBPJ@partne@   00000001800754f4     ad_block_client.obj
 0002:000334fc       ??_C@_06LJDCKPI@?1gadge@   00000001800754fc     ad_block_client.obj
 0002:00033504       ??_C@_06GCFMMJGB@?9ad?4js@ 0000000180075504     ad_block_client.obj
 0002:0003350c       ??_C@_06GGEOLLLH@?4net?1p@ 000000018007550c     ad_block_client.obj
 0002:00033514       ??_C@_06JABKHJOI@?1ads?4p@ 0000000180075514     ad_block_client.obj
 0002:0003351c       ??_C@_06HJHNNDED@?1AdSer@  000000018007551c     ad_block_client.obj
 0002:00033524       ??_C@_06BNGOIMCN@?1js?1un@ 0000000180075524     ad_block_client.obj
 0002:0003352c       ??_C@_06JDFLLIIC@?1?1imag@ 000000018007552c     ad_block_client.obj
 0002:00033534       ??_C@_06MDLHFGLL@?1image@  0000000180075534     ad_block_client.obj
 0002:0003353c       ??_C@_06FFKJGJFI@?4php?$DPc@ 000000018007553c     ad_block_client.obj
 0002:00033544       ??_C@_06BADBMGKF@?1api?1s@ 0000000180075544     ad_block_client.obj
 0002:0003354c       ??_C@_06PEBEJKEF@?1passp@  000000018007554c     ad_block_client.obj
 0002:00033554       ??_C@_06DMDPKGAA@passpo@   0000000180075554     ad_block_client.obj
 0002:0003355c       ??_C@_06GAJNKHDM@?1newfo@  000000018007555c     ad_block_client.obj
 0002:00033564       ??_C@_06MFLLJONO@?4html?$DP@ 0000000180075564     ad_block_client.obj
 0002:0003356c       ??_C@_06MKJAPLBH@?4com?1?$DP@ 000000018007556c     ad_block_client.obj
 0002:00033574       ??_C@_06FDFHECFH@?1?$DPname@ 0000000180075574     ad_block_client.obj
 0002:0003357c       ??_C@_06KODMLCEK@?1textl@  000000018007557c     ad_block_client.obj
 0002:00033584       ??_C@_06FLAGPFIA@?4com?1l@ 0000000180075584     ad_block_client.obj
 0002:0003358c       ??_C@_06HMKLDKBA@?1dp?4ht@ 000000018007558c     ad_block_client.obj
 0002:00033594       ??_C@_06FIPLOCBG@?1class@  0000000180075594     ad_block_client.obj
 0002:0003359c       ??_C@_06FNAJNKFG@?1css?1a@ 000000018007559c     ad_block_client.obj
 0002:000335a4       ??_C@_06MMLGKCCC@?1playe@  00000001800755a4     ad_block_client.obj
 0002:000335ac       ??_C@_06OLCLAPFL@?4com?1v@ 00000001800755ac     ad_block_client.obj
 0002:000335b4       ??_C@_06DIDFGDKC@?1widge@  00000001800755b4     ad_block_client.obj
 0002:000335bc       ??_C@_06KMLDNOF@?4org?1e@  00000001800755bc     ad_block_client.obj
 0002:000335c4       ??_C@_06GPKMFHJJ@?1libtr@  00000001800755c4     ad_block_client.obj
 0002:000335cc       ??_C@_06GFHFDFJE@?1tag?1j@ 00000001800755cc     ad_block_client.obj
 0002:000335d4       ??_C@_06EPDGPJDJ@?1gpt?1p@ 00000001800755d4     ad_block_client.obj
 0002:000335dc       ??_C@_06POLAJBFK@pubads@   00000001800755dc     ad_block_client.obj
 0002:000335e4       ??_C@_06NEFNLDIJ@_widge@   00000001800755e4     ad_block_client.obj
 0002:000335ec       ??_C@_06LCGAKINB@?1googl@  00000001800755ec     ad_block_client.obj
 0002:000335f4       ??_C@_06BLCCKDOK@g?4doub@  00000001800755f4     ad_block_client.obj
 0002:000335fc       ??_C@_06GOKHPIOB@?4org?1a@ 00000001800755fc     ad_block_client.obj
 0002:00033604       ??_C@_06HEDDBDAL@?4js?$DPca@ 0000000180075604     ad_block_client.obj
 0002:0003360c       ??_C@_06FEFAPEMD@?1provi@  000000018007560c     ad_block_client.obj
 0002:00033614       ??_C@_06LJOBFID@?1gampa@   0000000180075614     ad_block_client.obj
 0002:0003361c       ??_C@_06IEAFMPM@?$DN728x9@ 000000018007561c     ad_block_client.obj
 0002:00033624       ??_C@_06CHFMFANC@assist@   0000000180075624     ad_block_client.obj
 0002:0003362c       ??_C@_06FNKMPIBD@camera@   000000018007562c     ad_block_client.obj
 0002:00033634       ??_C@_06NKPHEEME@displa@   0000000180075634     ad_block_client.obj
 0002:0003363c       ??_C@_06LFFHCIPL@?9right@  000000018007563c     ad_block_client.obj
 0002:00033644       ??_C@_06CFPPLJPI@?9googl@  0000000180075644     ad_block_client.obj
 0002:0003364c       ??_C@_06KCGEJBEB@apple?9@  000000018007564c     ad_block_client.obj
 0002:00033654       ??_C@_06EPGLDIKM@academ@   0000000180075654     ad_block_client.obj
 0002:0003365c       ??_C@_06CAIDCFDA@check?9@  000000018007565c     ad_block_client.obj
 0002:00033664       ??_C@_06HBLHOEKM@school@   0000000180075664     ad_block_client.obj
 0002:0003366c       ??_C@_06JEKPBIKK@person@   000000018007566c     ad_block_client.obj
 0002:00033674       ??_C@_06CIBNNOMB@?1adcli@  0000000180075674     ad_block_client.obj
 0002:0003367c       ??_C@_06NDHIOBGC@_300x2@   000000018007567c     ad_block_client.obj
 0002:00033684       ??_C@_06KLGBADAP@?4min?4j@ 0000000180075684     ad_block_client.obj
 0002:0003368c       ??_C@_06JJCDHNOA@?1html5@  000000018007568c     ad_block_client.obj
 0002:00033694       ??_C@_06CPMLCJO@?$CGadid?$DN@ 0000000180075694     ad_block_client.obj
 0002:0003369c       ??_C@_06KIIPCAGA@?9300x2@  000000018007569c     ad_block_client.obj
 0002:000336a4       ??_C@_06KBENPKEI@?1scrip@  00000001800756a4     ad_block_client.obj
 0002:000336ac       ??_C@_06JFPCBCCE@?1style@  00000001800756ac     ad_block_client.obj
 0002:000336b4       ??_C@_06GHOANBDL@?1visit@  00000001800756b4     ad_block_client.obj
 0002:000336bc       ??_C@_06EPCBGECL@?1index@  00000001800756bc     ad_block_client.obj
 0002:000336c4       ??_C@_06NGPHLJEK@_ifram@   00000001800756c4     ad_block_client.obj
 0002:000336cc       ??_C@_06DJDNOINE@guide?9@  00000001800756cc     ad_block_client.obj
 0002:000336d4       ??_C@_06NOCHJDLP@?1ads?$DPa@ 00000001800756d4     ad_block_client.obj
 0002:000336dc       ??_C@_06NJLKPGP@?1doubl@   00000001800756dc     ad_block_client.obj
 0002:000336e4       ??_C@_06KFECPEFJ@?1commo@  00000001800756e4     ad_block_client.obj
 0002:000336ec       ??_C@_06HNLFHJGH@?1exter@  00000001800756ec     ad_block_client.obj
 0002:000336f4       ??_C@_06DGMKJFDA@hosted@   00000001800756f4     ad_block_client.obj
 0002:000336fc       ??_C@_06PADHFCEN@?1ads?1c@ 00000001800756fc     ad_block_client.obj
 0002:00033704       ??_C@_06FECKECGI@?1ad_da@  0000000180075704     ad_block_client.obj
 0002:0003370c       ??_C@_06HHAABIGL@_slide@   000000018007570c     ad_block_client.obj
 0002:00033714       ??_C@_06IMGFEPJJ@?1yahoo@  0000000180075714     ad_block_client.obj
 0002:0003371c       ??_C@_06KOBOLDGE@?1combo@  000000018007571c     ad_block_client.obj
 0002:00033724       ??_C@_06OPJDHBNA@?1metro@  0000000180075724     ad_block_client.obj
 0002:0003372c       ??_C@_06DGOKNKAP@?1theme@  000000018007572c     ad_block_client.obj
 0002:00033734       ??_C@_06BHDECBON@today?9@  0000000180075734     ad_block_client.obj
 0002:0003373c       ??_C@_06KBHNKAFJ@transi@   000000018007573c     ad_block_client.obj
 0002:00033744       ??_C@_06FECIEHJC@?9image@  0000000180075744     ad_block_client.obj
 0002:0003374c       ??_C@_06FJGNKMBC@?9templ@  000000018007574c     ad_block_client.obj
 0002:00033754       ??_C@_06MJHADKOL@?9conte@  0000000180075754     ad_block_client.obj
 0002:0003375c       ??_C@_06BBHNCKGC@?1route@  000000018007575c     ad_block_client.obj
 0002:00033764       ??_C@_06GPFDLBBP@?1view?9@ 0000000180075764     ad_block_client.obj
 0002:0003376c       ??_C@_06EBCCIKEM@tracki@   000000018007576c     ad_block_client.obj
 0002:00033774       ??_C@_06DIEHCEFB@?1skins@  0000000180075774     ad_block_client.obj
 0002:0003377c       ??_C@_06MKLKFMGK@?9main?1@ 000000018007577c     ad_block_client.obj
 0002:00033784       ??_C@_06FFONPMNP@?9galle@  0000000180075784     ad_block_client.obj
 0002:0003378c       ??_C@_06JBANEOFN@galler@   000000018007578c     ad_block_client.obj
 0002:00033794       ??_C@_06CBABMMDN@?9foote@  0000000180075794     ad_block_client.obj
 0002:0003379c       ??_C@_06FKLNGKI@?1publi@   000000018007579c     ad_block_client.obj
 0002:000337a4       ??_C@_06CEBHDDNP@?1resou@  00000001800757a4     ad_block_client.obj
 0002:000337ac       ??_C@_06OEKOLKIL@source@   00000001800757ac     ad_block_client.obj
 0002:000337b4       ??_C@_06NDBLMFED@?1today@  00000001800757b4     ad_block_client.obj
 0002:000337bc       ??_C@_06IFFEOHPM@?1js?1ga@ 00000001800757bc     ad_block_client.obj
 0002:000337c4       ??_C@_06MCHCONPG@?1galle@  00000001800757c4     ad_block_client.obj
 0002:000337cc       ??_C@_06OHGLEEHF@?1logo_@  00000001800757cc     ad_block_client.obj
 0002:000337d4       ??_C@_06FLHNHFL@?1js?1to@  00000001800757d4     ad_block_client.obj
 0002:000337dc       ??_C@_06ILKDAGIL@?1top_b@  00000001800757dc     ad_block_client.obj
 0002:000337e4       ??_C@_06BONAGDNB@?1home_@  00000001800757e4     ad_block_client.obj
 0002:000337ec       ??_C@_06BNDNPKJK@?1searc@  00000001800757ec     ad_block_client.obj
 0002:000337f4       ??_C@_06GIJBHGK@?1cache@   00000001800757f4     ad_block_client.obj
 0002:000337fc       ??_C@_06EGKFGOKH@?1globa@  00000001800757fc     ad_block_client.obj
 0002:00033804       ??_C@_06KOPKFEJH@?1all_a@  0000000180075804     ad_block_client.obj
 0002:0003380c       ??_C@_06PBFFCKLB@_searc@   000000018007580c     ad_block_client.obj
 0002:00033814       ??_C@_06DBOPBKCH@?1home?1@ 0000000180075814     ad_block_client.obj
 0002:0003381c       ??_C@_06MPNFCHNC@ww?1ass@  000000018007581c     ad_block_client.obj
 0002:00033824       ??_C@_06ONKLCIL@ww?1js?1@  0000000180075824     ad_block_client.obj
 0002:0003382c       ??_C@_06FAGBBBMN@?1sport@  000000018007582c     ad_block_client.obj
 0002:00033834       ??_C@_06DJIPIFME@sports@   0000000180075834     ad_block_client.obj
 0002:0003383c       ??_C@_06PGCNDJJL@?1tools@  000000018007583c     ad_block_client.obj
 0002:00033844       ??_C@_06LFMGENKE@?1calen@  0000000180075844     ad_block_client.obj
 0002:0003384c       ??_C@_06MDLBKGFE@_takeo@   000000018007584c     ad_block_client.obj
 0002:00033854       ??_C@_06GBOIBLEG@takeov@   0000000180075854     ad_block_client.obj
 0002:0003385c       ??_C@_06JGMAPIBO@_butto@   000000018007585c     ad_block_client.obj
 0002:00033864       ??_C@_06LMJAHHDN@_botto@   0000000180075864     ad_block_client.obj
 0002:0003386c       ??_C@_06CDFIFMAN@match?4@  000000018007586c     ad_block_client.obj
 0002:00033874       ??_C@_06OFNHNLDO@?1inter@  0000000180075874     ad_block_client.obj
 0002:0003387c       ??_C@_06CKDLHGLM@interf@   000000018007587c     ad_block_client.obj
 0002:00033884       ??_C@_06MAPIAMI@financ@    0000000180075884     ad_block_client.obj
 0002:0003388c       ??_C@_06CIMODFMN@?1smart@  000000018007588c     ad_block_client.obj
 0002:00033894       ??_C@_06GBNFBNPF@?1weath@  0000000180075894     ad_block_client.obj
 0002:0003389c       ??_C@_06LGHPBNBK@?1house@  000000018007589c     ad_block_client.obj
 0002:000338a4       ??_C@_06KIECJDKJ@?$DPrando@ 00000001800758a4     ad_block_client.obj
 0002:000338ac       ??_C@_06LECIGPFH@?1lives@  00000001800758ac     ad_block_client.obj
 0002:000338b4       ??_C@_06FHPDHEBC@?1viewe@  00000001800758b4     ad_block_client.obj
 0002:000338bc       ??_C@_06NDMFNBKB@?1group@  00000001800758bc     ad_block_client.obj
 0002:000338c4       ??_C@_06KMNOEHJF@fashio@   00000001800758c4     ad_block_client.obj
 0002:000338cc       ??_C@_06LIBCHCAN@?1displ@  00000001800758cc     ad_block_client.obj
 0002:000338d4       ??_C@_06EILGIIJA@?1match@  00000001800758d4     ad_block_client.obj
 0002:000338dc       ??_C@_06FNCFENED@?1main?1@ 00000001800758dc     ad_block_client.obj
 0002:000338e4       ??_C@_06FPMJPHJG@?1delay@  00000001800758e4     ad_block_client.obj
 0002:000338ec       ??_C@_06DDKGKGOC@?1src?1a@ 00000001800758ec     ad_block_client.obj
 0002:000338f4       ??_C@_06JHKJDMKE@?1gener@  00000001800758f4     ad_block_client.obj
 0002:000338fc       ??_C@_06EGGOLKLL@?1show?4@ 00000001800758fc     ad_block_client.obj
 0002:00033904       ??_C@_06FGDDKANH@?1featu@  0000000180075904     ad_block_client.obj
 0002:0003390c       ??_C@_06ILBBEGDD@auctio@   000000018007590c     ad_block_client.obj
 0002:00033914       ??_C@_06NHEJEAOB@?1world@  0000000180075914     ad_block_client.obj
 0002:0003391c       ??_C@_06CMEECBHC@first?9@  000000018007591c     ad_block_client.obj
 0002:00033924       ??_C@_06KMKNHBIJ@?9banne@  0000000180075924     ad_block_client.obj
 0002:0003392c       ??_C@_06HDFBHOOK@?9floor@  000000018007592c     ad_block_client.obj
 0002:00033934       ??_C@_06IHPGBGJA@?1layou@  0000000180075934     ad_block_client.obj
 0002:0003393c       ??_C@_06INFPDMOH@?1disco@  000000018007593c     ad_block_client.obj
 0002:00033944       ??_C@_06INAGMJPF@?1trans@  0000000180075944     ad_block_client.obj
 0002:0003394c       ??_C@_06HMFMCPP@?1track@   000000018007594c     ad_block_client.obj
 0002:00033954       ??_C@_06DKIDOOMG@?1conta@  0000000180075954     ad_block_client.obj
 0002:0003395c       ??_C@_06FLGMKPFE@?1contr@  000000018007595c     ad_block_client.obj
 0002:00033964       ??_C@_06JLMCCEDK@?1exten@  0000000180075964     ad_block_client.obj
 0002:0003396c       ??_C@_06FOOPCLMC@?1conte@  000000018007596c     ad_block_client.obj
 0002:00033974       ??_C@_06NEJLBODN@prefer@   0000000180075974     ad_block_client.obj
 0002:0003397c       ??_C@_06CNIKDHNO@?$CGdispl@ 000000018007597c     ad_block_client.obj
 0002:00033984       ??_C@_06BKDKIMBK@offlin@   0000000180075984     ad_block_client.obj
 0002:0003398c       ??_C@_06JCFEFBBJ@?1stora@  000000018007598c     ad_block_client.obj
 0002:00033994       ??_C@_06OCAINKFE@?1proce@  0000000180075994     ad_block_client.obj
 0002:0003399c       ??_C@_06PGBFPMBJ@?1recom@  000000018007599c     ad_block_client.obj
 0002:000339a4       ??_C@_06OFEEAAKH@?$CGtype?$DN@ 00000001800759a4     ad_block_client.obj
 0002:000339ac       ??_C@_06JFILNKNN@_repor@   00000001800759ac     ad_block_client.obj
 0002:000339b4       ??_C@_06HCAHGPHN@?1bundl@  00000001800759b4     ad_block_client.obj
 0002:000339bc       ??_C@_06GMIGILJB@?1front@  00000001800759bc     ad_block_client.obj
 0002:000339c4       ??_C@_06LLDNEMEO@?1live?4@ 00000001800759c4     ad_block_client.obj
 0002:000339cc       ??_C@_06DKNNHAIG@?1heade@  00000001800759cc     ad_block_client.obj
 0002:000339d4       ??_C@_06CFPNKKIF@?1css?1s@ 00000001800759d4     ad_block_client.obj
 0002:000339dc       ??_C@_06DHIDIIPK@?1linke@  00000001800759dc     ad_block_client.obj
 0002:000339e4       ??_C@_06BHACNJLK@?$DPtype?$DN@ 00000001800759e4     ad_block_client.obj
 0002:000339ec       ??_C@_06EKPGEBJM@?1js?1th@ 00000001800759ec     ad_block_client.obj
 0002:000339f4       ??_C@_06HCFNLALL@?1third@  00000001800759f4     ad_block_client.obj
 0002:000339fc       ??_C@_06IFCNGDJ@?1js?1in@  00000001800759fc     ad_block_client.obj
 0002:00033a04       ??_C@_06IAHKIHIK@images@   0000000180075a04     ad_block_client.obj
 0002:00033a0c       ??_C@_06KFOJGBBB@?1js?1ou@ 0000000180075a0c     ad_block_client.obj
 0002:00033a14       ??_C@_06CJEINFKK@_layer@   0000000180075a14     ad_block_client.obj
 0002:00033a1c       ??_C@_06NIFFJFAN@?1user_@  0000000180075a1c     ad_block_client.obj
 0002:00033a24       ??_C@_06EENDEHLD@_panel@   0000000180075a24     ad_block_client.obj
 0002:00033a2c       ??_C@_06MLNOPHAG@?12015?1@ 0000000180075a2c     ad_block_client.obj
 0002:00033a34       ??_C@_06KDEJLEAA@_index@   0000000180075a34     ad_block_client.obj
 0002:00033a3c       ??_C@_06MPFDILLE@?12013?1@ 0000000180075a3c     ad_block_client.obj
 0002:00033a44       ??_C@_06HJNOMLPC@?3?1?1fin@ 0000000180075a44     ad_block_client.obj
 0002:00033a4c       ??_C@_06MDFHDJNP@_compa@   0000000180075a4c     ad_block_client.obj
 0002:00033a54       ??_C@_06MKBMJNDB@?12014?1@ 0000000180075a54     ad_block_client.obj
 0002:00033a5c       ??_C@_06EIHGFHLD@?1profi@  0000000180075a5c     ad_block_client.obj
 0002:00033a64       ??_C@_06CIPECLGG@?1home?4@ 0000000180075a64     ad_block_client.obj
 0002:00033a6c       ??_C@_06PGDIJEBN@?1store@  0000000180075a6c     ad_block_client.obj
 0002:00033a74       ??_C@_06CBCCOBJH@?$DPhandl@ 0000000180075a74     ad_block_client.obj
 0002:00033a7c       ??_C@_06LKIIGAOE@domain@   0000000180075a7c     ad_block_client.obj
 0002:00033a84       ??_C@_06PNPLHKCM@?1img?4a@ 0000000180075a84     ad_block_client.obj
 0002:00033a8c       ??_C@_06BAKEHCL@?1demo?1@  0000000180075a8c     ad_block_client.obj
 0002:00033a94       ??_C@_06IDJPCFBH@?1js?1ba@ 0000000180075a94     ad_block_client.obj
 0002:00033a9c       ??_C@_06MBDOCEON@?1adbox@  0000000180075a9c     ad_block_client.obj
 0002:00033aa4       ??_C@_06FMELOGB@?3?1?1pro@ 0000000180075aa4     ad_block_client.obj
 0002:00033aac       ??_C@_06BEAMMLJI@?1proxy@  0000000180075aac     ad_block_client.obj
 0002:00033ab4       ??_C@_06CDFFLOAK@_960_9@   0000000180075ab4     ad_block_client.obj
 0002:00033abc       ??_C@_06MKNOOEIG@?$DNifram@ 0000000180075abc     ad_block_client.obj
 0002:00033ac4       ??_C@_06FAGJKELD@?1js?1vi@ 0000000180075ac4     ad_block_client.obj
 0002:00033acc       ??_C@_06GCGPBFDC@?1b?4php@ 0000000180075acc     ad_block_client.obj
 0002:00033ad4       ??_C@_06MBPFAMHP@?1amazo@  0000000180075ad4     ad_block_client.obj
 0002:00033adc       ??_C@_06FGGKBNFG@?9amazo@  0000000180075adc     ad_block_client.obj
 0002:00033ae4       ??_C@_06NDLMJHCG@_engin@   0000000180075ae4     ad_block_client.obj
 0002:00033aec       ??_C@_06KCBFLGIM@?1redir@  0000000180075aec     ad_block_client.obj
 0002:00033af4       ??_C@_06HNCEHMBB@?1Clien@  0000000180075af4     ad_block_client.obj
 0002:00033afc       ??_C@_06GIFHENCM@?1blogs@  0000000180075afc     ad_block_client.obj
 0002:00033b04       ??_C@_06BBANBIJM@ww?4blo@  0000000180075b04     ad_block_client.obj
 0002:00033b0c       ??_C@_06MFKJNOHD@?$DPservi@ 0000000180075b0c     ad_block_client.obj
 0002:00033b14       ??_C@_06PHPEMGAM@?1wordp@  0000000180075b14     ad_block_client.obj
 0002:00033b1c       ??_C@_06MMMFLLM@?1homep@   0000000180075b1c     ad_block_client.obj
 0002:00033b24       ??_C@_06NECIMKIO@?9scrol@  0000000180075b24     ad_block_client.obj
 0002:00033b2c       ??_C@_06BLBEFKDJ@?1light@  0000000180075b2c     ad_block_client.obj
 0002:00033b34       ??_C@_06DEIAKPII@?1?$DPpid?$DN@ 0000000180075b34     ad_block_client.obj
 0002:00033b3c       ??_C@_06BIOJNGIM@?1pages@  0000000180075b3c     ad_block_client.obj
 0002:00033b44       ??_C@_06OKPLKJGN@?1watch@  0000000180075b44     ad_block_client.obj
 0002:00033b4c       ??_C@_06KEMHOGEO@?1empty@  0000000180075b4c     ad_block_client.obj
 0002:00033b54       ??_C@_06FFAIGPFH@?1javas@  0000000180075b54     ad_block_client.obj
 0002:00033b5c       ??_C@_06CODPKMPJ@?1listi@  0000000180075b5c     ad_block_client.obj
 0002:00033b64       ??_C@_06NGECLKOB@?1deliv@  0000000180075b64     ad_block_client.obj
 0002:00033b6c       ??_C@_06CPCKMHIJ@?1ajs?4p@ 0000000180075b6c     ad_block_client.obj
 0002:00033b74       ??_C@_06NKGKGENN@?1Frame@  0000000180075b74     ad_block_client.obj
 0002:00033b7c       ??_C@_06JFNAFAFO@?1css?1i@ 0000000180075b7c     ad_block_client.obj
 0002:00033b84       ??_C@_06FKPDELNE@?1bucke@  0000000180075b84     ad_block_client.obj
 0002:00033b8c       ??_C@_06GPBDCPMB@?1main?9@ 0000000180075b8c     ad_block_client.obj
 0002:00033b94       ??_C@_06JLGIMIEA@?1slide@  0000000180075b94     ad_block_client.obj
 0002:00033b9c       ??_C@_06PBKJIJJN@?1categ@  0000000180075b9c     ad_block_client.obj
 0002:00033ba4       ??_C@_06PFHIAEHM@?1js?1js@ 0000000180075ba4     ad_block_client.obj
 0002:00033bac       ??_C@_06GPCDNLP@proxy?9@   0000000180075bac     ad_block_client.obj
 0002:00033bb4       ??_C@_06HACPLPJL@?1event@  0000000180075bb4     ad_block_client.obj
 0002:00033bbc       ??_C@_06MKFEFOOB@?1basic@  0000000180075bbc     ad_block_client.obj
 0002:00033bc4       ??_C@_06IJABAIBN@?1js?1la@ 0000000180075bc4     ad_block_client.obj
 0002:00033bcc       ??_C@_06DBKOLBMA@_frame@   0000000180075bcc     ad_block_client.obj
 0002:00033bd4       ??_C@_06GHJPALNK@?4php?$DPa@ 0000000180075bd4     ad_block_client.obj
 0002:00033bdc       ??_C@_06OCAGOMAH@?1notif@  0000000180075bdc     ad_block_client.obj
 0002:00033be4       ??_C@_06JJMJECDA@?1adi?1e@ 0000000180075be4     ad_block_client.obj
 0002:00033bec       ??_C@_06LHMGILAJ@?1uploa@  0000000180075bec     ad_block_client.obj
 0002:00033bf4       ??_C@_06KAOCKAGB@upload@   0000000180075bf4     ad_block_client.obj
 0002:00033bfc       ??_C@_06DOGHCOLI@?110000@  0000000180075bfc     ad_block_client.obj
 0002:00033c04       ??_C@_06GNEDOJHI@?1show?9@ 0000000180075c04     ad_block_client.obj
 0002:00033c0c       ??_C@_06EMEJHAJG@?1matri@  0000000180075c0c     ad_block_client.obj
 0002:00033c14       ??_C@_06HFKFHEBB@?1ad?1sp@ 0000000180075c14     ad_block_client.obj
 0002:00033c1c       ??_C@_06NNFEFEPC@?1speci@  0000000180075c1c     ad_block_client.obj
 0002:00033c24       ??_C@_06PHJAONGP@specia@   0000000180075c24     ad_block_client.obj
 0002:00033c2c       ??_C@_06BFKGKBPN@?1temp?1@ 0000000180075c2c     ad_block_client.obj
 0002:00033c34       ??_C@_06PMKOGPAL@?1js?1ad@ 0000000180075c34     ad_block_client.obj
 0002:00033c3c       ??_C@_06BNBMAIJJ@?1js?1bo@ 0000000180075c3c     ad_block_client.obj
 0002:00033c44       ??_C@_06BBMJLBBF@?1ad?1st@ 0000000180075c44     ad_block_client.obj
 0002:00033c4c       ??_C@_06NIMGNCG@?1form?1@  0000000180075c4c     ad_block_client.obj
 0002:00033c54       ??_C@_06KENJNJPP@?1ad?1co@ 0000000180075c54     ad_block_client.obj
 0002:00033c5c       ??_C@_06MHGDIFII@?1price@  0000000180075c5c     ad_block_client.obj
 0002:00033c64       ??_C@_06HGOIBDOF@finger@   0000000180075c64     ad_block_client.obj
 0002:00033c6c       ??_C@_06CHJFFJAD@ads?4ru@  0000000180075c6c     ad_block_client.obj
 0002:00033c74       ??_C@_06KKADGHFH@optimi@   0000000180075c74     ad_block_client.obj
 0002:00033c7c       ??_C@_06DIFILGAF@?1adsby@  0000000180075c7c     ad_block_client.obj
 0002:00033c84       ??_C@_06IOBMNJNF@?1pub?9c@ 0000000180075c84     ad_block_client.obj
 0002:00033c8c       ??_C@_06HAEKPCAM@?1show_@  0000000180075c8c     ad_block_client.obj
 0002:00033c94       ??_C@_06CADHIDDD@?1ads?4j@ 0000000180075c94     ad_block_client.obj
 0002:00033c9c       ??_C@_06BGNHAHBC@?1choic@  0000000180075c9c     ad_block_client.obj
 0002:00033ca4       ??_C@_06LKPFEABM@?1ads?1s@ 0000000180075ca4     ad_block_client.obj
 0002:00033cac       ??_C@_06BDDPOHAH@?1moder@  0000000180075cac     ad_block_client.obj
 0002:00033cb4       ??_C@_06HJODAKPG@?1repor@  0000000180075cb4     ad_block_client.obj
 0002:00033cbc       ??_C@_06CCDNCEGD@_load_@   0000000180075cbc     ad_block_client.obj
 0002:00033cc4       ??_C@_06DJAFBPII@_reque@   0000000180075cc4     ad_block_client.obj
 0002:00033ccc       ??_C@_06LCIHPLOJ@_conte@   0000000180075ccc     ad_block_client.obj
 0002:00033cd4       ??_C@_06JEDBGPPF@instal@   0000000180075cd4     ad_block_client.obj
 0002:00033cdc       ??_C@_06KKGDLHJN@?1img?1g@ 0000000180075cdc     ad_block_client.obj
 0002:00033ce4       ??_C@_06KNIFNOIA@?1produ@  0000000180075ce4     ad_block_client.obj
 0002:00033cec       ??_C@_06ILCHAOOO@?$CGaffil@ 0000000180075cec     ad_block_client.obj
 0002:00033cf4       ??_C@_06DEFBFDFJ@affili@   0000000180075cf4     ad_block_client.obj
 0002:00033cfc       ??_C@_06LCAPIEGI@?4net?1n@ 0000000180075cfc     ad_block_client.obj
 0002:00033d04       ??_C@_06KPEGIBNC@?4php?$DPi@ 0000000180075d04     ad_block_client.obj
 0002:00033d0c       ??_C@_06PGDOJHLC@?1selec@  0000000180075d0c     ad_block_client.obj
 0002:00033d14       ??_C@_06ECKOIEKC@?1ad?1cs@ 0000000180075d14     ad_block_client.obj
 0002:00033d1c       ??_C@_06ENHPLPCN@?1ad?1js@ 0000000180075d1c     ad_block_client.obj
 0002:00033d24       ??_C@_06KMENIONC@?1js?1sc@ 0000000180075d24     ad_block_client.obj
 0002:00033d2c       ??_C@_06EDLHNLKH@?1scrol@  0000000180075d2c     ad_block_client.obj
 0002:00033d34       ??_C@_06HLAHLOAN@?4php?$DPw@ 0000000180075d34     ad_block_client.obj
 0002:00033d3c       ??_C@_06FNAKKMOF@?1brand@  0000000180075d3c     ad_block_client.obj
 0002:00033d44       ??_C@_06EALGLFC@?1insta@   0000000180075d44     ad_block_client.obj
 0002:00033d4c       ??_C@_06FPHFILPK@?1show?1@ 0000000180075d4c     ad_block_client.obj
 0002:00033d54       ??_C@_06DKNOPPFB@?1api?4p@ 0000000180075d54     ad_block_client.obj
 0002:00033d5c       ??_C@_06GIIJBJFA@?1inclu@  0000000180075d5c     ad_block_client.obj
 0002:00033d64       ??_C@_06IFCDCBCO@?1feed?1@ 0000000180075d64     ad_block_client.obj
 0002:00033d6c       ??_C@_06FKBHMNDB@_house@   0000000180075d6c     ad_block_client.obj
 0002:00033d74       ??_C@_06OOOJBJHH@?1js?1ne@ 0000000180075d74     ad_block_client.obj
 0002:00033d7c       ??_C@_06LBLMMEHK@?1compo@  0000000180075d7c     ad_block_client.obj
 0002:00033d84       ??_C@_06MGCEGKCF@?1switc@  0000000180075d84     ad_block_client.obj
 0002:00033d8c       ??_C@_06MCABDAMP@?1ads?1a@ 0000000180075d8c     ad_block_client.obj
 0002:00033d94       ??_C@_06LANFDLAF@?1js?1su@ 0000000180075d94     ad_block_client.obj
 0002:00033d9c       ??_C@_06LHBAABMK@?1js?1pb@ 0000000180075d9c     ad_block_client.obj
 0002:00033da4       ??_C@_06JLDEPKNF@?1js?1ta@ 0000000180075da4     ad_block_client.obj
 0002:00033dac       ??_C@_06MDIBNKND@?1webse@  0000000180075dac     ad_block_client.obj
 0002:00033db4       ??_C@_06JNNLGIDM@?1direc@  0000000180075db4     ad_block_client.obj
 0002:00033dbc       ??_C@_06KDFIONHP@?1ads1?4@ 0000000180075dbc     ad_block_client.obj
 0002:00033dc4       ??_C@_06KMOGKLJ@?1libra@   0000000180075dc4     ad_block_client.obj
 0002:00033dcc       ??_C@_06EDHDKIJP@?1dapms@  0000000180075dcc     ad_block_client.obj
 0002:00033dd4       ??_C@_06JLGAKHKM@?1ADSAd@  0000000180075dd4     ad_block_client.obj
 0002:00033ddc       ??_C@_06PHBMEHPJ@?$CGsize?$DN@ 0000000180075ddc     ad_block_client.obj
 0002:00033de4       ??_C@_06FMHHAKMM@?1post_@  0000000180075de4     ad_block_client.obj
 0002:00033dec       ??_C@_06DBFOBIAK@?4gif?$DPa@ 0000000180075dec     ad_block_client.obj
 0002:00033df4       ??_C@_06MFCCMENN@?1?1widg@ 0000000180075df4     ad_block_client.obj
 0002:00033dfc       ??_C@_06KLKLDLLI@widget@   0000000180075dfc     ad_block_client.obj
 0002:00033e04       ??_C@_06LBLAFNKH@?1tumbl@  0000000180075e04     ad_block_client.obj
 0002:00033e0c       ??_C@_06OBKCAHIE@?1secur@  0000000180075e0c     ad_block_client.obj
 0002:00033e14       ??_C@_06ONNBGLFO@?1prod?1@ 0000000180075e14     ad_block_client.obj
 0002:00033e1c       ??_C@_06KABKMLAK@?1landi@  0000000180075e1c     ad_block_client.obj
 0002:00033e24       ??_C@_06GFEGGBGC@?1posts@  0000000180075e24     ad_block_client.obj
 0002:00033e2c       ??_C@_06LABPNKOH@_post_@   0000000180075e2c     ad_block_client.obj
 0002:00033e34       ??_C@_06KBINOLLB@?1vendo@  0000000180075e34     ad_block_client.obj
 0002:00033e3c       ??_C@_06BKPHHGFI@?1popov@  0000000180075e3c     ad_block_client.obj
 0002:00033e44       ??_C@_06KJLLCICD@?1regis@  0000000180075e44     ad_block_client.obj
 0002:00033e4c       ??_C@_06BBAGADK@?1about@   0000000180075e4c     ad_block_client.obj
 0002:00033e54       ??_C@_06BDPFDFMN@?1splas@  0000000180075e54     ad_block_client.obj
 0002:00033e5c       ??_C@_06BOLKMLGE@?4net?1b@ 0000000180075e5c     ad_block_client.obj
 0002:00033e64       ??_C@_06OHKNPDPH@?1micro@  0000000180075e64     ad_block_client.obj
 0002:00033e6c       ??_C@_06PPDEJAJE@micros@   0000000180075e6c     ad_block_client.obj
 0002:00033e74       ??_C@_06PIIOOBKC@?1jQuer@  0000000180075e74     ad_block_client.obj
 0002:00033e7c       ??_C@_06ENHIHFNE@?4mobil@  0000000180075e7c     ad_block_client.obj
 0002:00033e84       ??_C@_06KCAFCIHM@?1broke@  0000000180075e84     ad_block_client.obj
 0002:00033e8c       ??_C@_06IDEACNEJ@?1respo@  0000000180075e8c     ad_block_client.obj
 0002:00033e94       ??_C@_06EPLJFHBJ@?1js?1sh@ 0000000180075e94     ad_block_client.obj
 0002:00033e9c       ??_C@_06PKHIEILE@?$DPpartn@ 0000000180075e9c     ad_block_client.obj
 0002:00033ea4       ??_C@_06LJHDNFKG@?1Stati@  0000000180075ea4     ad_block_client.obj
 0002:00033eac       ??_C@_06KCOOPBGP@?1Commo@  0000000180075eac     ad_block_client.obj
 0002:00033eb4       ??_C@_06FJEDCOPE@?1Conte@  0000000180075eb4     ad_block_client.obj
 0002:00033ebc       ??_C@_06NLPPLHKA@?1xvide@  0000000180075ebc     ad_block_client.obj
 0002:00033ec4       ??_C@_06OLAPHOGA@?1mobil@  0000000180075ec4     ad_block_client.obj
 0002:00033ecc       ??_C@_06OEPPLHGF@?1v2?1js@ 0000000180075ecc     ad_block_client.obj
 0002:00033ed4       ??_C@_06HOCEOJCN@traffi@   0000000180075ed4     ad_block_client.obj
 0002:00033edc       ??_C@_06LGJONNBE@?1foote@  0000000180075edc     ad_block_client.obj
 0002:00033ee4       ??_C@_06FCPDILML@paypal@   0000000180075ee4     ad_block_client.obj
 0002:00033eec       ??_C@_06NPGENLEC@?1cgi?9b@ 0000000180075eec     ad_block_client.obj
 0002:00033ef4       ??_C@_06NFJAHMDM@?1site_@  0000000180075ef4     ad_block_client.obj
 0002:00033efc       ??_C@_06JMDNFCAJ@?1js?1pa@ 0000000180075efc     ad_block_client.obj
 0002:00033f04       ??_C@_06NKOIJNF@?1Video@   0000000180075f04     ad_block_client.obj
 0002:00033f0c       ??_C@_06GHAEKEI@?4php?$DPr@ 0000000180075f0c     ad_block_client.obj
 0002:00033f14       ??_C@_06GPDPLINE@?1css?1c@ 0000000180075f14     ad_block_client.obj
 0002:00033f1c       ??_C@_06PGDAACLF@?1ads?9t@ 0000000180075f1c     ad_block_client.obj
 0002:00033f24       ??_C@_06OHPDOABD@?1js?1be@ 0000000180075f24     ad_block_client.obj
 0002:00033f2c       ??_C@_06OFNCLHNP@?$CGshow_@ 0000000180075f2c     ad_block_client.obj
 0002:00033f34       ??_C@_06GPCIPNGC@_respo@   0000000180075f34     ad_block_client.obj
 0002:00033f3c       ??_C@_06BCHJBPNE@?1promo@  0000000180075f3c     ad_block_client.obj
 0002:00033f44       ??_C@_06FKDKJNHP@?1shop?1@ 0000000180075f44     ad_block_client.obj
 0002:00033f4c       ??_C@_06GEKDAGMC@xinhua@   0000000180075f4c     ad_block_client.obj
 0002:00033f54       ??_C@_06NGBBAEPC@ww?4new@  0000000180075f54     ad_block_client.obj
 0002:00033f5c       ??_C@_06LINLDNCH@?1audio@  0000000180075f5c     ad_block_client.obj
 0002:00033f64       ??_C@_06OKBGMIIP@video?4@  0000000180075f64     ad_block_client.obj
 0002:00033f6c       ??_C@_06DBHJFMMN@ww?4xin@  0000000180075f6c     ad_block_client.obj
 0002:00033f74       ??_C@_06EEKJNEFK@?1ad?1ad@ 0000000180075f74     ad_block_client.obj
 0002:00033f7c       ??_C@_06DDLLCOJG@action@   0000000180075f7c     ad_block_client.obj
 0002:00033f84       ??_C@_06HKKICIDF@?1butto@  0000000180075f84     ad_block_client.obj
 0002:00033f8c       ??_C@_06EMPBGILI@?1follo@  0000000180075f8c     ad_block_client.obj
 0002:00033f94       ??_C@_06CJEJCICC@xhamst@   0000000180075f94     ad_block_client.obj
 0002:00033f9c       ??_C@_06HKCLLBDF@xhcdn?4@  0000000180075f9c     ad_block_client.obj
 0002:00033fa4       ??_C@_06IIMDGCCK@?1js?1ma@ 0000000180075fa4     ad_block_client.obj
 0002:00033fac       ??_C@_06PBPFDIHK@?1ads?4c@ 0000000180075fac     ad_block_client.obj
 0002:00033fb4       ??_C@_06BBBMFELN@?12?4htm@ 0000000180075fb4     ad_block_client.obj
 0002:00033fbc       ??_C@_06MKIJFMPG@?1ados?4@ 0000000180075fbc     ad_block_client.obj
 0002:00033fc4       ??_C@_06JJFAHPOG@?1ados?$DP@ 0000000180075fc4     ad_block_client.obj
 0002:00033fcc       ??_C@_06HHKPEOIC@?1ads?1l@ 0000000180075fcc     ad_block_client.obj
 0002:00033fd4       ??_C@_06JJEPAAFN@?9ad?9co@ 0000000180075fd4     ad_block_client.obj
 0002:00033fdc       ??_C@_06MNGLIIPL@?1keywo@  0000000180075fdc     ad_block_client.obj
 0002:00033fe4       ??_C@_06DDAJCAPJ@?1auto_@  0000000180075fe4     ad_block_client.obj
 0002:00033fec       ??_C@_06FKECFHHJ@beijin@   0000000180075fec     ad_block_client.obj
 0002:00033ff4       ??_C@_06HJNIIAKP@?1requi@  0000000180075ff4     ad_block_client.obj
 0002:00033ffc       ??_C@_06CIFDAPCD@?1unive@  0000000180075ffc     ad_block_client.obj
 0002:00034004       ??_C@_06DGAHGGOC@?1wrapp@  0000000180076004     ad_block_client.obj
 0002:0003400c       ??_C@_06HMMPLJHE@?1bbcco@  000000018007600c     ad_block_client.obj
 0002:00034014       ??_C@_06IIBPGFKO@888888@   0000000180076014     ad_block_client.obj
 0002:0003401c       ??_C@_06PLFOEGGF@?1iFram@  000000018007601c     ad_block_client.obj
 0002:00034024       ??_C@_06KCKBAJGD@techno@   0000000180076024     ad_block_client.obj
 0002:0003402c       ??_C@_06FIGFHEEC@?1l?4php@ 000000018007602c     ad_block_client.obj
 0002:00034034       ??_C@_06GEEPMGBH@?1dist?1@ 0000000180076034     ad_block_client.obj
 0002:0003403c       ??_C@_06BCICCKKN@sights@   000000018007603c     ad_block_client.obj
 0002:00034044       ??_C@_06OMKBBHJC@?1sites@  0000000180076044     ad_block_client.obj
 0002:0003404c       ??_C@_06EGPJJKHJ@?1blogg@  000000018007604c     ad_block_client.obj
 0002:00034054       ??_C@_06LPHGMEIK@?1ads?1d@ 0000000180076054     ad_block_client.obj
 0002:0003405c       ??_C@_06DPBADBEJ@?1300x2@  000000018007605c     ad_block_client.obj
 0002:00034064       ??_C@_06NFGNMPKD@?1reque@  0000000180076064     ad_block_client.obj
 0002:0003406c       ??_C@_06POBBMPPP@_promo@   000000018007606c     ad_block_client.obj
 0002:00034074       ??_C@_06CPDPOJPE@?1compa@  0000000180076074     ad_block_client.obj
 0002:0003407c       ??_C@_06LOJGPIE@design@    000000018007607c     ad_block_client.obj
 0002:00034084       ??_C@_06MNKCMPEA@?1js?1sp@ 0000000180076084     ad_block_client.obj
 0002:0003408c       ??_C@_06JPHBBIEC@?1notic@  000000018007608c     ad_block_client.obj
 0002:00034094       ??_C@_06EJDBNMIP@?4php?$DPu@ 0000000180076094     ad_block_client.obj
 0002:0003409c       ??_C@_06LNGLDKIB@blog?4f@  000000018007609c     ad_block_client.obj
 0002:000340a4       ??_C@_06IIDLPPHE@nation@   00000001800760a4     ad_block_client.obj
 0002:000340ac       ??_C@_06OHAHJKAD@?1domai@  00000001800760ac     ad_block_client.obj
 0002:000340b4       ??_C@_06GNKPBOIM@?1img?12@ 00000001800760b4     ad_block_client.obj
 0002:000340bc       ??_C@_06DOLGOFOA@chinas@   00000001800760bc     ad_block_client.obj
 0002:000340c4       ??_C@_06OEMMLMAH@ww?4peo@  00000001800760c4     ad_block_client.obj
 0002:000340cc       ??_C@_06FKLDHFCH@?1wp?9in@ 00000001800760cc     ad_block_client.obj
 0002:000340d4       ??_C@_06OHFLIGGH@iphone@   00000001800760d4     ad_block_client.obj
 0002:000340dc       ??_C@_06EDHAMACH@profil@   00000001800760dc     ad_block_client.obj
 0002:000340e4       ??_C@_06EJCKCEHC@_commo@   00000001800760e4     ad_block_client.obj
 0002:000340ec       ??_C@_06BFBCLABD@about?4@  00000001800760ec     ad_block_client.obj
 0002:000340f4       ??_C@_06JKIEOGDE@?1js?11?4@ 00000001800760f4     ad_block_client.obj
 0002:000340fc       ??_C@_06DFJHJIKH@?4net?1a@ 00000001800760fc     ad_block_client.obj
 0002:00034104       ??_C@_06IIBLDEFA@previe@   0000000180076104     ad_block_client.obj
 0002:0003410c       ??_C@_06FOAIHIPK@_googl@   000000018007610c     ad_block_client.obj
 0002:00034114       ??_C@_06DCJPCEDI@educat@   0000000180076114     ad_block_client.obj
 0002:0003411c       ??_C@_06KFDOHGAC@_secti@   000000018007611c     ad_block_client.obj
 0002:00034124       ??_C@_06BBILFCMN@?1satel@  0000000180076124     ad_block_client.obj
 0002:0003412c       ??_C@_06DIEMKGKM@adobe?9@  000000018007612c     ad_block_client.obj
 0002:00034134       ??_C@_06LDOPPJMM@?1js?1ac@ 0000000180076134     ad_block_client.obj
 0002:0003413c       ??_C@_06BKMAIIHL@?1stand@  000000018007613c     ad_block_client.obj
 0002:00034144       ??_C@_06LMCEOIKI@?1check@  0000000180076144     ad_block_client.obj
 0002:0003414c       ??_C@_06HHJLNLI@organi@    000000018007614c     ad_block_client.obj
 0002:00034154       ??_C@_06IHCEJKDE@projec@   0000000180076154     ad_block_client.obj
 0002:0003415c       ??_C@_06BACBKLPJ@privat@   000000018007615c     ad_block_client.obj
 0002:00034164       ??_C@_06JEMGGIEB@?1tags?4@ 0000000180076164     ad_block_client.obj
 0002:0003416c       ??_C@_06JCFNIHCM@?$CGtrack@ 000000018007616c     ad_block_client.obj
 0002:00034174       ??_C@_06OBKPMBMC@france@   0000000180076174     ad_block_client.obj
 0002:0003417c       ??_C@_06NONBPCED@?9onlin@  000000018007617c     ad_block_client.obj
 0002:00034184       ??_C@_06GNLMCJKK@online@   0000000180076184     ad_block_client.obj
 0002:0003418c       ??_C@_06IFOGAOPN@?9promo@  000000018007618c     ad_block_client.obj
 0002:00034194       ??_C@_06FCLDBGBD@promo?4@  0000000180076194     ad_block_client.obj
 0002:0003419c       ??_C@_06GJDIPACP@centra@   000000018007619c     ad_block_client.obj
 0002:000341a4       ??_C@_06OILJHFJG@forums@   00000001800761a4     ad_block_client.obj
 0002:000341ac       ??_C@_06JFEPJODB@licens@   00000001800761ac     ad_block_client.obj
 0002:000341b4       ??_C@_06BBLOAEEI@center@   00000001800761b4     ad_block_client.obj
 0002:000341bc       ??_C@_06LNAMBHG@worlds@    00000001800761bc     ad_block_client.obj
 0002:000341c4       ??_C@_06MAELBDAC@_custo@   00000001800761c4     ad_block_client.obj
 0002:000341cc       ??_C@_06POJIMNGI@?9api?4a@ 00000001800761cc     ad_block_client.obj
 0002:000341d4       ??_C@_06NABKCPAB@?4ads?4l@ 00000001800761d4     ad_block_client.obj
 0002:000341dc       ??_C@_06EIBFALMI@?1res?1c@ 00000001800761dc     ad_block_client.obj
 0002:000341e4       ??_C@_06ONAPJEG@?1css?1p@  00000001800761e4     ad_block_client.obj
 0002:000341ec       ??_C@_06FDFCKNCN@?1core?1@ 00000001800761ec     ad_block_client.obj
 0002:000341f4       ??_C@_06FBAODKIJ@?1res?1b@ 00000001800761f4     ad_block_client.obj
 0002:000341fc       ??_C@_06DIKDFKCG@?1app?1d@ 00000001800761fc     ad_block_client.obj
 0002:00034204       ??_C@_06EGKPPMPH@?1insig@  0000000180076204     ad_block_client.obj
 0002:0003420c       ??_C@_06GBGNJEKE@?1j?1rou@ 000000018007620c     ad_block_client.obj
 0002:00034214       ??_C@_06ELFBEEJM@perfec@   0000000180076214     ad_block_client.obj
 0002:0003421c       ??_C@_06FNGLPPKM@?1conve@  000000018007621c     ad_block_client.obj
 0002:00034224       ??_C@_06DCMLIBPN@?1csp?1d@ 0000000180076224     ad_block_client.obj
 0002:0003422c       ??_C@_06GBCNCKHO@?1cms?1j@ 000000018007622c     ad_block_client.obj
 0002:00034234       ??_C@_06COOIAACM@?1js?1cm@ 0000000180076234     ad_block_client.obj
 0002:0003423c       ??_C@_06PLNFEDGD@?1js?1re@ 000000018007623c     ad_block_client.obj
 0002:00034244       ??_C@_06CLOHPIH@?1js?1po@  0000000180076244     ad_block_client.obj
 0002:0003424c       ??_C@_06FNBMPHHI@?1popup@  000000018007624c     ad_block_client.obj
 0002:00034254       ??_C@_06IEMNGAMI@?1img?1s@ 0000000180076254     ad_block_client.obj
 0002:0003425c       ??_C@_06NGPEEAI@?1js?1yo@  000000018007625c     ad_block_client.obj
 0002:00034264       ??_C@_06DABFLGHK@?1html?4@ 0000000180076264     ad_block_client.obj
 0002:0003426c       ??_C@_06LJOCOJKA@?1hover@  000000018007626c     ad_block_client.obj
 0002:00034274       ??_C@_06HEHCFFHO@?1perso@  0000000180076274     ad_block_client.obj
 0002:0003427c       ??_C@_06LOAKNPB@?1eleme@   000000018007627c     ad_block_client.obj
 0002:00034284       ??_C@_06OLPMCKDB@?1loade@  0000000180076284     ad_block_client.obj
 0002:0003428c       ??_C@_06FCLHAALL@_stati@   000000018007628c     ad_block_client.obj
 0002:00034294       ??_C@_06DPOIGIFN@?1relat@  0000000180076294     ad_block_client.obj
 0002:0003429c       ??_C@_06EMFCMMJ@?1china@   000000018007629c     ad_block_client.obj
 0002:000342a4       ??_C@_06JLAGCOOE@?1a?4htm@ 00000001800762a4     ad_block_client.obj
 0002:000342ac       ??_C@_06KDIELFH@?1autos@   00000001800762ac     ad_block_client.obj
 0002:000342b4       ??_C@_06PEACKHIE@?1signu@  00000001800762b4     ad_block_client.obj
 0002:000342bc       ??_C@_06HCEIMKBH@?9inter@  00000001800762bc     ad_block_client.obj
 0002:000342c4       ??_C@_06BNIOJAKI@inters@   00000001800762c4     ad_block_client.obj
 0002:000342cc       ??_C@_06CLABHNJO@namema@   00000001800762cc     ad_block_client.obj
 0002:000342d4       ??_C@_06OBBGCLEO@?1color@  00000001800762d4     ad_block_client.obj
 0002:000342dc       ??_C@_06FNGFNDJN@?1view?1@ 00000001800762dc     ad_block_client.obj
 0002:000342e4       ??_C@_06MDDCAKGD@simple@   00000001800762e4     ad_block_client.obj
 0002:000342ec       ??_C@_06EOGGDCGF@import@   00000001800762ec     ad_block_client.obj
 0002:000342f4       ??_C@_06JNJJIANP@better@   00000001800762f4     ad_block_client.obj
 0002:000342fc       ??_C@_06EGPMHNFJ@?1handl@  00000001800762fc     ad_block_client.obj
 0002:00034304       ??_C@_06JPHGNOKI@?1money@  0000000180076304     ad_block_client.obj
 0002:0003430c       ??_C@_06MIJJGHEI@?1site?9@ 000000018007630c     ad_block_client.obj
 0002:00034314       ??_C@_06CGHHCLED@?1sampl@  0000000180076314     ad_block_client.obj
 0002:0003431c       ??_C@_06KNAAHIEI@?9ifram@  000000018007631c     ad_block_client.obj
 0002:00034324       ??_C@_06DMNBKGFG@?1page?9@ 0000000180076324     ad_block_client.obj
 0002:0003432c       ??_C@_06IKKCOLLD@?9searc@  000000018007632c     ad_block_client.obj
 0002:00034334       ??_C@_06HNDELGLB@?1dropd@  0000000180076334     ad_block_client.obj
 0002:0003433c       ??_C@_06CLNOAIAI@?1photo@  000000018007633c     ad_block_client.obj
 0002:00034344       ??_C@_06MMPDLOHN@?9contr@  0000000180076344     ad_block_client.obj
 0002:0003434c       ??_C@_06KLEOLHHP@?9page?9@ 000000018007634c     ad_block_client.obj
 0002:00034354       ??_C@_06ONHMHHHN@?$DNsearc@ 0000000180076354     ad_block_client.obj
 0002:0003435c       ??_C@_06NHGLAMDL@downlo@   000000018007635c     ad_block_client.obj
 0002:00034364       ??_C@_06FKPGANDP@_foote@   0000000180076364     ad_block_client.obj
 0002:0003436c       ??_C@_06HLMBOMIP@_gener@   000000018007636c     ad_block_client.obj
 0002:00034374       ??_C@_06GBGEMPKP@?1core?9@ 0000000180076374     ad_block_client.obj
 0002:0003437c       ??_C@_06DLDCGAKA@?1banne@  000000018007637c     ad_block_client.obj
 0002:00034384       ??_C@_06GDPEKMEF@indust@   0000000180076384     ad_block_client.obj
 0002:0003438c       ??_C@_06NNGDPKOC@aliexp@   000000018007638c     ad_block_client.obj
 0002:00034394       ??_C@_06ODPDMDIG@home?4j@  0000000180076394     ad_block_client.obj
 0002:0003439c       ??_C@_06MBNKEOEB@?1under@  000000018007639c     ad_block_client.obj
 0002:000343a4       ??_C@_06KCFBEJMC@messen@   00000001800763a4     ad_block_client.obj
 0002:000343ac       ??_C@_06GKEKFFLD@?1buyer@  00000001800763ac     ad_block_client.obj
 0002:000343b4       ??_C@_06HLLCGJNF@?1pool?1@ 00000001800763b4     ad_block_client.obj
 0002:000343bc       ??_C@_06MCOKPDKL@?1beta?9@ 00000001800763bc     ad_block_client.obj
 0002:000343c4       ??_C@_06IDNJIEJJ@motion@   00000001800763c4     ad_block_client.obj
 0002:000343cc       ??_C@_06OJMIJHOI@?4aspx?$DP@ 00000001800763cc     ad_block_client.obj
 0002:000343d4       ??_C@_06DLDOGJJB@pornhu@   00000001800763d4     ad_block_client.obj
 0002:000343dc       ??_C@_06CLJOFIDG@?1premi@  00000001800763dc     ad_block_client.obj
 0002:000343e4       ??_C@_06BECGNCHI@?1large@  00000001800763e4     ad_block_client.obj
 0002:000343ec       ??_C@_06LJLNEGNF@?1js?1ht@ 00000001800763ec     ad_block_client.obj
 0002:000343f4       ??_C@_06NDFMOPDM@?1load?9@ 00000001800763f4     ad_block_client.obj
 0002:000343fc       ??_C@_06JICFGFHG@cdn?4en@  00000001800763fc     ad_block_client.obj
 0002:00034404       ??_C@_06KGOBPPHO@?1Scrip@  0000000180076404     ad_block_client.obj
 0002:0003440c       ??_C@_06OEIDEGFK@?1Tag?4e@ 000000018007640c     ad_block_client.obj
 0002:00034414       ??_C@_06DGNGECGG@?1Media@  0000000180076414     ad_block_client.obj
 0002:0003441c       ??_C@_06GPMMMBJF@?1netwo@  000000018007641c     ad_block_client.obj
 0002:00034424       ??_C@_06FBKLMOIE@?1js?1wi@ 0000000180076424     ad_block_client.obj
 0002:0003442c       ??_C@_06MKIDOGFB@?9popup@  000000018007642c     ad_block_client.obj
 0002:00034434       ??_C@_06BKBFKAEF@?1js?1fo@ 0000000180076434     ad_block_client.obj
 0002:0003443c       ??_C@_06OFHJMMFJ@?1js?1fr@ 000000018007643c     ad_block_client.obj
 0002:00034444       ??_C@_06MKJFLNMM@?9brand@  0000000180076444     ad_block_client.obj
 0002:0003444c       ??_C@_06ICCGCFNE@en?4min@  000000018007644c     ad_block_client.obj
 0002:00034454       ??_C@_06EJHMCDCD@?1sales@  0000000180076454     ad_block_client.obj
 0002:0003445c       ??_C@_06DKEJMGIA@?1suppo@  000000018007645c     ad_block_client.obj
 0002:00034464       ??_C@_06NAMFMGCH@?1utag?1@ 0000000180076464     ad_block_client.obj
 0002:0003446c       ??_C@_06INMFMKFG@canada@   000000018007646c     ad_block_client.obj
 0002:00034474       ??_C@_06KMGLNGKK@?4spons@  0000000180076474     ad_block_client.obj
 0002:0003447c       ??_C@_06MAHICGDL@sponso@   000000018007647c     ad_block_client.obj
 0002:00034484       ??_C@_06ECGAGODA@master@   0000000180076484     ad_block_client.obj
 0002:0003448c       ??_C@_06BJPNBBFM@_frien@   000000018007648c     ad_block_client.obj
 0002:00034494       ??_C@_06BHBNKPBA@friend@   0000000180076494     ad_block_client.obj
 0002:0003449c       ??_C@_06GKOKIAPL@feeds?4@  000000018007649c     ad_block_client.obj
 0002:000344a4       ??_C@_06MMFPFDBI@_ads?4j@  00000001800764a4     ad_block_client.obj
 0002:000344ac       ??_C@_06JOECGIBG@?4widge@  00000001800764ac     ad_block_client.obj
 0002:000344b4       ??_C@_06NPDGBKPM@backgr@   00000001800764b4     ad_block_client.obj
 0002:000344bc       ??_C@_06CPNPIGJA@_image@   00000001800764bc     ad_block_client.obj
 0002:000344c4       ??_C@_06EGINNOBH@?1os?1mo@ 00000001800764c4     ad_block_client.obj
 0002:000344cc       ??_C@_06OBGEPOKD@?1users@  00000001800764cc     ad_block_client.obj
 0002:000344d4       ??_C@_06CDDDAFIP@?$DPfile?$DN@ 00000001800764d4     ad_block_client.obj
 0002:000344dc       ??_C@_06EMJLGBBL@?1_uac?1@ 00000001800764dc     ad_block_client.obj
 0002:000344e4       ??_C@_06KABMDMHO@?1api?1i@ 00000001800764e4     ad_block_client.obj
 0002:000344ec       ??_C@_06DBJGOEOB@?1intel@  00000001800764ec     ad_block_client.obj
 0002:000344f4       ??_C@_06CAJMKHLD@?1quick@  00000001800764f4     ad_block_client.obj
 0002:000344fc       ??_C@_06MAPDEBCN@?1rende@  00000001800764fc     ad_block_client.obj
 0002:00034504       ??_C@_06DJPEJKLL@?1adlin@  0000000180076504     ad_block_client.obj
 0002:0003450c       ??_C@_06GALMJEFE@?$DPactio@ 000000018007650c     ad_block_client.obj
 0002:00034514       ??_C@_06FJAFFLBB@?1netfl@  0000000180076514     ad_block_client.obj
 0002:0003451c       ??_C@_06LKPLLABE@?1siteu@  000000018007651c     ad_block_client.obj
 0002:00034524       ??_C@_06DGEECPGD@anonym@   0000000180076524     ad_block_client.obj
 0002:0003452c       ??_C@_06JMGCKBIC@?1activ@  000000018007652c     ad_block_client.obj
 0002:00034534       ??_C@_06DJOOJLEN@bp?4blo@  0000000180076534     ad_block_client.obj
 0002:0003453c       ??_C@_06CKBHPLMK@?1files@  000000018007653c     ad_block_client.obj
 0002:00034544       ??_C@_06IEJIMJAP@?1setti@  0000000180076544     ad_block_client.obj
 0002:0003454c       ??_C@_06FOKMGAEA@?1break@  000000018007654c     ad_block_client.obj
 0002:00034554       ??_C@_06NNBCJHHL@_media@   0000000180076554     ad_block_client.obj
 0002:0003455c       ??_C@_06GBMIOIIN@?9artic@  000000018007655c     ad_block_client.obj
 0002:00034564       ??_C@_06JNJNJNMK@?9video@  0000000180076564     ad_block_client.obj
 0002:0003456c       ??_C@_06ENINGNPE@?1js?1gi@ 000000018007656c     ad_block_client.obj
 0002:00034574       ??_C@_06LGCAHKBP@?1icon_@  0000000180076574     ad_block_client.obj
 0002:0003457c       ??_C@_06JFEPDCDH@?1daily@  000000018007657c     ad_block_client.obj
 0002:00034584       ??_C@_06DMBCBOEM@?1async@  0000000180076584     ad_block_client.obj
 0002:0003458c       ??_C@_06LAGDIPDK@dailym@   000000018007658c     ad_block_client.obj
 0002:00034594       ??_C@_06DPNEEHAN@?1engin@  0000000180076594     ad_block_client.obj
 0002:0003459c       ??_C@_06IBEIPNNO@?1admin@  000000018007659c     ad_block_client.obj
 0002:000345a4       ??_C@_06NKDNCCGF@?1js?1Br@ 00000001800765a4     ad_block_client.obj
 0002:000345ac       ??_C@_06PBMNIO@?1short@    00000001800765ac     ad_block_client.obj
 0002:000345b4       ??_C@_06JEHAFKEH@?1long_@  00000001800765b4     ad_block_client.obj
 0002:000345bc       ??_C@_06FECJJMJ@?1blank@   00000001800765bc     ad_block_client.obj
 0002:000345c4       ??_C@_06OFKEPEIL@?1advie@  00000001800765c4     ad_block_client.obj
 0002:000345cc       ??_C@_06EEPPBDOG@?4swf?$DPc@ 00000001800765cc     ad_block_client.obj
 0002:000345d4       ??_C@_06MLHDEHDP@?$CGaduni@ 00000001800765d4     ad_block_client.obj
 0002:000345dc       ??_C@_06DBPPAHNK@?1impre@  00000001800765dc     ad_block_client.obj
 0002:000345e4       ??_C@_06PEBGKPMA@?1Burst@  00000001800765e4     ad_block_client.obj
 0002:000345ec       ??_C@_06HONBNGHF@?1adSer@  00000001800765ec     ad_block_client.obj
 0002:000345f4       ??_C@_06DBIPOJHB@?1showa@  00000001800765f4     ad_block_client.obj
 0002:000345fc       ??_C@_06CHPIONAC@?$CGgoogl@ 00000001800765fc     ad_block_client.obj
 0002:00034604       ??_C@_06CDPMPCP@?3?1?1syn@ 0000000180076604     ad_block_client.obj
 0002:0003460c       ??_C@_06CDLPIEKL@cnet?4c@  000000018007660c     ad_block_client.obj
 0002:00034614       ??_C@_06CLDGAGKN@revenu@   0000000180076614     ad_block_client.obj
 0002:0003461c       ??_C@_06OPIKELME@?1deskt@  000000018007661c     ad_block_client.obj
 0002:00034624       ??_C@_06BKGEPHJN@?1cbsi?1@ 0000000180076624     ad_block_client.obj
 0002:0003462c       ??_C@_06EKGJGIOE@?1cnwk?4@ 000000018007662c     ad_block_client.obj
 0002:00034634       ??_C@_06KDHJJLDJ@rackcd@   0000000180076634     ad_block_client.obj
 0002:0003463c       ??_C@_06FADECPAI@?1stick@  000000018007663c     ad_block_client.obj
 0002:00034644       ??_C@_06DPLKAPKE@?1form?9@ 0000000180076644     ad_block_client.obj
 0002:0003464c       ??_C@_06KJHABMOD@?1js?1cb@ 000000018007664c     ad_block_client.obj
 0002:00034654       ??_C@_06MDLIGPKC@active@   0000000180076654     ad_block_client.obj
 0002:0003465c       ??_C@_06NLDNOMFK@?1st?4js@ 000000018007665c     ad_block_client.obj
 0002:00034664       ??_C@_06MGPLBOCC@?1adblo@  0000000180076664     ad_block_client.obj
 0002:0003466c       ??_C@_06PDHPGEOD@?4javas@  000000018007666c     ad_block_client.obj
 0002:00034674       ??_C@_06CAKKHAH@?1syndi@   0000000180076674     ad_block_client.obj
 0002:0003467c       ??_C@_06MKJMODJD@?1yad?4j@ 000000018007667c     ad_block_client.obj
 0002:00034684       ??_C@_06GFPGGCAF@?1libs?1@ 0000000180076684     ad_block_client.obj
 0002:0003468c       ??_C@_06EKEJJMGM@?1core?4@ 000000018007668c     ad_block_client.obj
 0002:00034694       ??_C@_06MOPMKNJ@espn?4g@   0000000180076694     ad_block_client.obj
 0002:0003469c       ??_C@_06OGGKFMMI@_video@   000000018007669c     ad_block_client.obj
 0002:000346a4       ??_C@_06JCAONBMK@f5ba59@   00000001800766a4     ad_block_client.obj
 0002:000346ac       ??_C@_06KCCGHNAP@?1live?1@ 00000001800766ac     ad_block_client.obj
 0002:000346b4       ??_C@_06CLPAPONA@?1aclk?$DP@ 00000001800766b4     ad_block_client.obj
 0002:000346bc       ??_C@_06CHCGEBNE@turbob@   00000001800766bc     ad_block_client.obj
 0002:000346c4       ??_C@_06EGFLLJLA@?$DPad_id@ 00000001800766c4     ad_block_client.obj
 0002:000346cc       ??_C@_06EIJPMBFH@?$CGplace@ 00000001800766cc     ad_block_client.obj
 0002:000346d4       ??_C@_06HMKFMMKK@?$CGadver@ 00000001800766d4     ad_block_client.obj
 0002:000346dc       ??_C@_06FANBAOKF@?1devel@  00000001800766dc     ad_block_client.obj
 0002:000346e4       ??_C@_06NHFKLAIL@_banne@   00000001800766e4     ad_block_client.obj
 0002:000346ec       ??_C@_06LIAKOFEP@?1float@  00000001800766ec     ad_block_client.obj
 0002:000346f4       ??_C@_06NPMIMLAH@?1super@  00000001800766f4     ad_block_client.obj
 0002:000346fc       ??_C@_06NPLKJPFP@liquid@   00000001800766fc     ad_block_client.obj
 0002:00034704       ??_C@_06LPAHOJKK@?1utili@  0000000180076704     ad_block_client.obj
 0002:0003470c       ??_C@_06LBHECHFD@_popup@   000000018007670c     ad_block_client.obj
 0002:00034714       ??_C@_06PCKMPBEH@?1bookm@  0000000180076714     ad_block_client.obj
 0002:0003471c       ??_C@_06EMLEFCMJ@bookma@   000000018007671c     ad_block_client.obj
 0002:00034724       ??_C@_06ICFNEPCA@?1js?1ca@ 0000000180076724     ad_block_client.obj
 0002:0003472c       ??_C@_06BLJCMMAH@?1texta@  000000018007672c     ad_block_client.obj
 0002:00034734       ??_C@_06DMEOBAAJ@?1?$DPsour@ 0000000180076734     ad_block_client.obj
 0002:0003473c       ??_C@_06BNHJBOGP@?4jp?1ad@ 000000018007673c     ad_block_client.obj
 0002:00034744       ??_C@_06GGJJDDHM@indiat@   0000000180076744     ad_block_client.obj
 0002:0003474c       ??_C@_06LAJPMEBA@?4lazyl@  000000018007674c     ad_block_client.obj
 0002:00034754       ??_C@_06IAMNDLLN@?1cdn?4m@ 0000000180076754     ad_block_client.obj
 0002:0003475c       ??_C@_06ONNJOBNL@?1proje@  000000018007675c     ad_block_client.obj
 0002:00034764       ??_C@_06DEHHIGFL@?1ip?4ph@ 0000000180076764     ad_block_client.obj
 0002:0003476c       ??_C@_06MPIBFJIF@openx?4@  000000018007676c     ad_block_client.obj
 0002:00034774       ??_C@_06KLNCCOIF@?1w?11?40@ 0000000180076774     ad_block_client.obj
 0002:0003477c       ??_C@_06IMHNNFIC@?1GetAd@  000000018007677c     ad_block_client.obj
 0002:00034784       ??_C@_06NMBDOJOG@?1js?1ip@ 0000000180076784     ad_block_client.obj
 0002:0003478c       ??_C@_06FGFCHKHD@conten@   000000018007678c     ad_block_client.obj
 0002:00034794       ??_C@_06FPIPDMJC@?$CGad_ty@ 0000000180076794     ad_block_client.obj
 0002:0003479c       ??_C@_06GOLPOBO@?4gif?$DPt@ 000000018007679c     ad_block_client.obj
 0002:000347a4       ??_C@_06JCMKMMFL@?1xbbe?1@ 00000001800767a4     ad_block_client.obj
 0002:000347ac       ??_C@_06BAJOENFH@?1invit@  00000001800767ac     ad_block_client.obj
 0002:000347b4       ??_C@_06NGGAPILJ@?1marke@  00000001800767b4     ad_block_client.obj
 0002:000347bc       ??_C@_06KOIIJOIA@?1downl@  00000001800767bc     ad_block_client.obj
 0002:000347c4       ??_C@_06BOEBGKBL@ads?4ma@  00000001800767c4     ad_block_client.obj
 0002:000347cc       ??_C@_06BLNHMKHC@?1js?1go@ 00000001800767cc     ad_block_client.obj
 0002:000347d4       ??_C@_06CPCIMGEP@?1livej@  00000001800767d4     ad_block_client.obj
 0002:000347dc       ??_C@_06HJKGHLJB@?1maste@  00000001800767dc     ad_block_client.obj
 0002:000347e4       ??_C@_06IHBJJPGD@?1?1flas@ 00000001800767e4     ad_block_client.obj
 0002:000347ec       ??_C@_06EGJDFOLA@?1overl@  00000001800767ec     ad_block_client.obj
 0002:000347f4       ??_C@_06KBHFMLCG@?9theme@  00000001800767f4     ad_block_client.obj
 0002:000347fc       ??_C@_06MBDLJLEM@video?9@  00000001800767fc     ad_block_client.obj
 0002:00034804       ??_C@_06GPHGBFPE@?1ads?4m@ 0000000180076804     ad_block_client.obj
 0002:0003480c       ??_C@_06PLKDFCIO@?1targe@  000000018007680c     ad_block_client.obj
 0002:00034814       ??_C@_06COKKNJGM@?1chrom@  0000000180076814     ad_block_client.obj
 0002:0003481c       ??_C@_06NKAIGJCN@webser@   000000018007681c     ad_block_client.obj
 0002:00034824       ??_C@_06NJKBMAMJ@grafic@   0000000180076824     ad_block_client.obj
 0002:0003482c       ??_C@_06NAMBNNCH@?9text?9@ 000000018007682c     ad_block_client.obj
 0002:00034834       ??_C@_06IPFLKMGG@?1adman@  0000000180076834     ad_block_client.obj
 0002:0003483c       ??_C@_06BNNAJKIK@?1js?1ex@ 000000018007683c     ad_block_client.obj
 0002:00034844       ??_C@_06IGIDEFJE@?92?4htm@ 0000000180076844     ad_block_client.obj
 0002:0003484c       ??_C@_06PIABNBBL@?1728x9@  000000018007684c     ad_block_client.obj
 0002:00034854       ??_C@_06JNKGNEHK@?1partn@  0000000180076854     ad_block_client.obj
 0002:0003485c       ??_C@_06GFOECKMA@?1instr@  000000018007685c     ad_block_client.obj
 0002:00034864       ??_C@_06MMEDDKLC@redtub@   0000000180076864     ad_block_client.obj
 0002:0003486c       ??_C@_06MMELCAKB@?1porns@  000000018007686c     ad_block_client.obj
 0002:00034874       ??_C@_06DCFGBEEB@pornst@   0000000180076874     ad_block_client.obj
 0002:0003487c       ??_C@_06OPCALLEH@?1min?1a@ 000000018007687c     ad_block_client.obj
 0002:00034884       ??_C@_06GMFJLDHG@ads?4tr@  0000000180076884     ad_block_client.obj
 0002:0003488c       ??_C@_06KGNDODGM@?1ads?$DPs@ 000000018007688c     ad_block_client.obj
 0002:00034894       ??_C@_06NOJJIFBI@?1ads?1w@ 0000000180076894     ad_block_client.obj
 0002:0003489c       ??_C@_06MBKCCKIB@?1adfra@  000000018007689c     ad_block_client.obj
 0002:000348a4       ??_C@_06BFGPAOIC@?1commu@  00000001800768a4     ad_block_client.obj
 0002:000348ac       ??_C@_06LDJMJGFE@?1getad@  00000001800768ac     ad_block_client.obj
 0002:000348b4       ??_C@_06IGFMJKPH@?1youpo@  00000001800768b4     ad_block_client.obj
 0002:000348bc       ??_C@_06BAILINEP@?1js?1ho@ 00000001800768bc     ad_block_client.obj
 0002:000348c4       ??_C@_06OKJKBBOO@?1busin@  00000001800768c4     ad_block_client.obj
 0002:000348cc       ??_C@_06BDKJBLLB@?1expan@  00000001800768cc     ad_block_client.obj
 0002:000348d4       ??_C@_06MAHHHAAE@?1modal@  00000001800768d4     ad_block_client.obj
 0002:000348dc       ??_C@_06HPMGHHGN@coffee@   00000001800768dc     ad_block_client.obj
 0002:000348e4       ??_C@_06DHFHGOED@?1clean@  00000001800768e4     ad_block_client.obj
 0002:000348ec       ??_C@_06KPBHDCPC@?1ajax_@  00000001800768ec     ad_block_client.obj
 0002:000348f4       ??_C@_06IHMOHCCH@nytime@   00000001800768f4     ad_block_client.obj
 0002:000348fc       ??_C@_06DOCNOEAN@?1adx?1b@ 00000001800768fc     ad_block_client.obj
 0002:00034904       ??_C@_06HJPJDKJJ@?1taxon@  0000000180076904     ad_block_client.obj
 0002:0003490c       ??_C@_06ELGLMBMF@?1views@  000000018007690c     ad_block_client.obj
 0002:00034914       ??_C@_06ECGHNHGJ@?1ad?9vi@ 0000000180076914     ad_block_client.obj
 0002:0003491c       ??_C@_06CPJFMGE@_Adver@    000000018007691c     ad_block_client.obj
 0002:00034924       ??_C@_06PKKJDPPD@?1js?1cs@ 0000000180076924     ad_block_client.obj
 0002:0003492c       ??_C@_06LHMKPMCA@?1graph@  000000018007692c     ad_block_client.obj
 0002:00034934       ??_C@_06MDENEIMA@?1webtr@  0000000180076934     ad_block_client.obj
 0002:0003493c       ??_C@_06GEBIHIB@?1js?1an@  000000018007693c     ad_block_client.obj
 0002:00034944       ??_C@_06GAAGAMNI@?1mainp@  0000000180076944     ad_block_client.obj
 0002:0003494c       ??_C@_06DABGNGNA@constr@   000000018007694c     ad_block_client.obj
 0002:00034954       ??_C@_06EABKOICC@?1js?1mi@ 0000000180076954     ad_block_client.obj
 0002:0003495c       ??_C@_06IEPJINDE@falcon@   000000018007695c     ad_block_client.obj
 0002:00034964       ??_C@_06JGOKLEAD@?$CGclick@ 0000000180076964     ad_block_client.obj
 0002:0003496c       ??_C@_06OJKJIBBG@cadast@   000000018007696c     ad_block_client.obj
 0002:00034974       ??_C@_06GMEBDIIG@jornal@   0000000180076974     ad_block_client.obj
 0002:0003497c       ??_C@_06GEDKCJJO@?1excel@  000000018007697c     ad_block_client.obj
 0002:00034984       ??_C@_06LNFGHABO@?$CGsmart@ 0000000180076984     ad_block_client.obj
 0002:0003498c       ??_C@_06DLONBEKH@?1previ@  000000018007698c     ad_block_client.obj
 0002:00034994       ??_C@_06DFJIIAIH@adf?4ly@  0000000180076994     ad_block_client.obj
 0002:0003499c       ??_C@_06CMHIHELB@?1cdn?4a@ 000000018007699c     ad_block_client.obj
 0002:000349a4       ??_C@_06MFCAAFIB@?1layer@  00000001800769a4     ad_block_client.obj
 0002:000349ac       ??_C@_06DBKDMGPJ@china?4@  00000001800769ac     ad_block_client.obj
 0002:000349b4       ??_C@_06JABFBEJF@englis@   00000001800769b4     ad_block_client.obj
 0002:000349bc       ??_C@_06EMEPAHMD@?1js?1fi@ 00000001800769bc     ad_block_client.obj
 0002:000349c4       ??_C@_06PAOPLPJE@?1fixed@  00000001800769c4     ad_block_client.obj
 0002:000349cc       ??_C@_06OMKPKHCO@?1js?1me@ 00000001800769cc     ad_block_client.obj
 0002:000349d4       ??_C@_06NGLFKAKN@_heade@   00000001800769d4     ad_block_client.obj
 0002:000349dc       ??_C@_06LCJDIFFM@?1js?1pu@ 00000001800769dc     ad_block_client.obj
 0002:000349e4       ??_C@_06BKOIPPJP@?4php?$DPd@ 00000001800769e4     ad_block_client.obj
 0002:000349ec       ??_C@_06PNBOIBII@?1js?1we@ 00000001800769ec     ad_block_client.obj
 0002:000349f4       ??_C@_06HOFJFPHE@?1blog?1@ 00000001800769f4     ad_block_client.obj
 0002:000349fc       ??_C@_06JGMADEED@?1booki@  00000001800769fc     ad_block_client.obj
 0002:00034a04       ??_C@_06HCBKDELF@?1main_@  0000000180076a04     ad_block_client.obj
 0002:00034a0c       ??_C@_06LGGMHNFK@?1js?1at@ 0000000180076a0c     ad_block_client.obj
 0002:00034a14       ??_C@_06IBEOOEFO@?1img?1d@ 0000000180076a14     ad_block_client.obj
 0002:00034a1c       ??_C@_06JMGCDFML@?1print@  0000000180076a1c     ad_block_client.obj
 0002:00034a24       ??_C@_06BBKPOIHN@?4net?1?$DP@ 0000000180076a24     ad_block_client.obj
 0002:00034a2c       ??_C@_06EABKKIJG@?1ads?1y@ 0000000180076a2c     ad_block_client.obj
 0002:00034a34       ??_C@_06FEHKKCCG@_displ@   0000000180076a34     ad_block_client.obj
 0002:00034a3c       ??_C@_06FKJOHIGK@?1your_@  0000000180076a3c     ad_block_client.obj
 0002:00034a44       ??_C@_06JCBGECOA@_dynam@   0000000180076a44     ad_block_client.obj
 0002:00034a4c       ??_C@_06CANOHCAJ@_playe@   0000000180076a4c     ad_block_client.obj
 0002:00034a54       ??_C@_06LHFAHBGL@medias@   0000000180076a54     ad_block_client.obj
 0002:00034a5c       ??_C@_06BOLPELDN@?1affil@  0000000180076a5c     ad_block_client.obj
 0002:00034a64       ??_C@_06PCJLPHMK@electr@   0000000180076a64     ad_block_client.obj
 0002:00034a6c       ??_C@_06OKEJLPK@?1wikia@   0000000180076a6c     ad_block_client.obj
 0002:00034a74       ??_C@_06HEFCIDNK@?4net?1_@ 0000000180076a74     ad_block_client.obj
 0002:00034a7c       ??_C@_06EFDFAOPP@?1sasse@  0000000180076a7c     ad_block_client.obj
 0002:00034a84       ??_C@_06PNKFBIBE@?1backg@  0000000180076a84     ad_block_client.obj
 0002:00034a8c       ??_C@_06GKDKAJDN@?9backg@  0000000180076a8c     ad_block_client.obj
 0002:00034a94       ??_C@_06DMAIFPGO@?1oasis@  0000000180076a94     ad_block_client.obj
 0002:00034a9c       ??_C@_06MDIKPHNI@?1css?1o@ 0000000180076a9c     ad_block_client.obj
 0002:00034aa4       ??_C@_06KCKCHDOC@?1Porta@  0000000180076aa4     ad_block_client.obj
 0002:00034aac       ??_C@_06LFMMKNOH@?1Googl@  0000000180076aac     ad_block_client.obj
 0002:00034ab4       ??_C@_06LGPGKIEB@_your_@   0000000180076ab4     ad_block_client.obj
 0002:00034abc       ??_C@_06JNEFGLBE@?4banne@  0000000180076abc     ad_block_client.obj
 0002:00034ac4       ??_C@_06JAHBHIPN@?1adeng@  0000000180076ac4     ad_block_client.obj
 0002:00034acc       ??_C@_06BLHHMJCG@_ads_r@   0000000180076acc     ad_block_client.obj
 0002:00034ad4       ??_C@_06NDODJLIG@?1__spo@  0000000180076ad4     ad_block_client.obj
 0002:00034adc       ??_C@_06JIJJPCKM@gorill@   0000000180076adc     ad_block_client.obj
 0002:00034ae4       ??_C@_06LJEKIPFM@?1adj?1g@ 0000000180076ae4     ad_block_client.obj
 0002:00034aec       ??_C@_06JAAMAJLD@?1hoots@  0000000180076aec     ad_block_client.obj
 0002:00034af4       ??_C@_06MPLMEEEC@?1adome@  0000000180076af4     ad_block_client.obj
 0002:00034afc       ??_C@_06DABEBMDB@?4net?1v@ 0000000180076afc     ad_block_client.obj
 0002:00034b04       ??_C@_06FKCJCCCK@?1misc?1@ 0000000180076b04     ad_block_client.obj
 0002:00034b0c       ??_C@_06LLDCOJFB@?4info?1@ 0000000180076b0c     ad_block_client.obj
 0002:00034b14       ??_C@_06DIJECEBG@?1adsen@  0000000180076b14     ad_block_client.obj
 0002:00034b1c       ??_C@_06JBBDPALB@?1rmgds@  0000000180076b1c     ad_block_client.obj
 0002:00034b24       ??_C@_06BMIHGPLP@_fixed@   0000000180076b24     ad_block_client.obj
 0002:00034b2c       ??_C@_06EIGCPKGA@?1subna@  0000000180076b2c     ad_block_client.obj
 0002:00034b34       ??_C@_06NOFDOLAO@?1devic@  0000000180076b34     ad_block_client.obj
 0002:00034b3c       ??_C@_06CBPBIIDF@?1outbr@  0000000180076b3c     ad_block_client.obj
 0002:00034b44       ??_C@_06DLFPIJCK@freigh@   0000000180076b44     ad_block_client.obj
 0002:00034b4c       ??_C@_06FMIMONEJ@?1sitei@  0000000180076b4c     ad_block_client.obj
 0002:00034b54       ??_C@_06JAAPFHJF@?1campa@  0000000180076b54     ad_block_client.obj
 0002:00034b5c       ??_C@_06DDPOMJDK@?1ancho@  0000000180076b5c     ad_block_client.obj
 0002:00034b64       ??_C@_06DCOEMOC@anchor@    0000000180076b64     ad_block_client.obj
 0002:00034b6c       ??_C@_06EHPFPHEL@?1purch@  0000000180076b6c     ad_block_client.obj
 0002:00034b74       ??_C@_06NPDLDEOM@?1play?4@ 0000000180076b74     ad_block_client.obj
 0002:00034b7c       ??_C@_06OMLLFNEA@?1adlog@  0000000180076b7c     ad_block_client.obj
 0002:00034b84       ??_C@_06LMGNCDOO@?1small@  0000000180076b84     ad_block_client.obj
 0002:00034b8c       ??_C@_06OAPFAPIM@?1rotat@  0000000180076b8c     ad_block_client.obj
 0002:00034b94       ??_C@_06DKPDDJGH@?1js?1Po@ 0000000180076b94     ad_block_client.obj
 0002:00034b9c       ??_C@_06LAGKIODP@?1Uploa@  0000000180076b9c     ad_block_client.obj
 0002:00034ba4       ??_C@_06CPCPPHAP@?1jsapi@  0000000180076ba4     ad_block_client.obj
 0002:00034bac       ??_C@_06FKEGHAEC@?1uds?1a@ 0000000180076bac     ad_block_client.obj
 0002:00034bb4       ??_C@_06PCPJCPLI@?1v2?1de@ 0000000180076bb4     ad_block_client.obj
 0002:00034bbc       ??_C@_06HMGFOIJI@?4ashx?$DP@ 0000000180076bbc     ad_block_client.obj
 0002:00034bc4       ??_C@_06HFJMHAMN@_160x6@   0000000180076bc4     ad_block_client.obj
 0002:00034bcc       ??_C@_06HEFAPNGM@torren@   0000000180076bcc     ad_block_client.obj
 0002:00034bd4       ??_C@_06DNHCMGDM@?1discu@  0000000180076bd4     ad_block_client.obj
 0002:00034bdc       ??_C@_06PIKPANBN@?3?1?1ban@ 0000000180076bdc     ad_block_client.obj
 0002:00034be4       ??_C@_06GCAKCDLF@americ@   0000000180076be4     ad_block_client.obj
 0002:00034bec       ??_C@_06CJMNDPDI@invest@   0000000180076bec     ad_block_client.obj
 0002:00034bf4       ??_C@_06EJEOODGK@?1onlin@  0000000180076bf4     ad_block_client.obj
 0002:00034bfc       ??_C@_06JAIEEPAI@?1royal@  0000000180076bfc     ad_block_client.obj
 0002:00034c04       ??_C@_06EBPNOMLE@access@   0000000180076c04     ad_block_client.obj
 0002:00034c0c       ??_C@_06JCBFBLEF@?1enter@  0000000180076c0c     ad_block_client.obj
 0002:00034c14       ??_C@_06KDOAIBFF@?1sitet@  0000000180076c14     ad_block_client.obj
 0002:00034c1c       ??_C@_06BNNLHKJJ@?1singl@  0000000180076c1c     ad_block_client.obj
 0002:00034c24       ??_C@_06CEELCCDP@?1membe@  0000000180076c24     ad_block_client.obj
 0002:00034c2c       ??_C@_06DNCACNH@?1intro@   0000000180076c2c     ad_block_client.obj
 0002:00034c34       ??_C@_06MFJHOGBK@?1welco@  0000000180076c34     ad_block_client.obj
 0002:00034c3c       ??_C@_06MEGINJE@?1forbe@   0000000180076c3c     ad_block_client.obj
 0002:00034c44       ??_C@_06FOOLACOM@?1aduni@  0000000180076c44     ad_block_client.obj
 0002:00034c4c       ??_C@_06OAAHBHBF@?4php?$DPn@ 0000000180076c4c     ad_block_client.obj
 0002:00034c54       ??_C@_06COEBMNCD@feedbu@   0000000180076c54     ad_block_client.obj
 0002:00034c5c       ??_C@_06KNKNCGHB@?$CGwidge@ 0000000180076c5c     ad_block_client.obj
 0002:00034c64       ??_C@_06EOLGPLLM@?1tapes@  0000000180076c64     ad_block_client.obj
 0002:00034c6c       ??_C@_06JDCNDDHG@?1feeds@  0000000180076c6c     ad_block_client.obj
 0002:00034c74       ??_C@_06ICBNGABE@?1quote@  0000000180076c74     ad_block_client.obj
 0002:00034c7c       ??_C@_06EFNEKOGD@?1app?1a@ 0000000180076c7c     ad_block_client.obj
 0002:00034c84       ??_C@_06CGCAKFGO@?1code?1@ 0000000180076c84     ad_block_client.obj
 0002:00034c8c       ??_C@_06KONFHICE@?1maxcd@  0000000180076c8c     ad_block_client.obj
 0002:00034c94       ??_C@_06GBIEDGEJ@indeed@   0000000180076c94     ad_block_client.obj
 0002:00034c9c       ??_C@_06DGHJNDDH@?1jobse@  0000000180076c9c     ad_block_client.obj
 0002:00034ca4       ??_C@_06KFNLEHIL@?1Servi@  0000000180076ca4     ad_block_client.obj
 0002:00034cac       ??_C@_06INOBNODI@?1desig@  0000000180076cac     ad_block_client.obj
 0002:00034cb4       ??_C@_06CLNFJCBN@?1js?1sl@ 0000000180076cb4     ad_block_client.obj
 0002:00034cbc       ??_C@_06OGICEEDM@prospe@   0000000180076cbc     ad_block_client.obj
 0002:00034cc4       ??_C@_06INNNFJAA@?1tags?1@ 0000000180076cc4     ad_block_client.obj
 0002:00034ccc       ??_C@_06FPAGLIEN@?1Creat@  0000000180076ccc     ad_block_client.obj
 0002:00034cd4       ??_C@_06DBDIPDIG@?1js?1fl@ 0000000180076cd4     ad_block_client.obj
 0002:00034cdc       ??_C@_06MMNMBPIE@?1livea@  0000000180076cdc     ad_block_client.obj
 0002:00034ce4       ??_C@_06BAOKMEDJ@?1syste@  0000000180076ce4     ad_block_client.obj
 0002:00034cec       ??_C@_06LODKEAAL@?1chat?1@ 0000000180076cec     ad_block_client.obj
 0002:00034cf4       ??_C@_06GJIHAEML@?1games@  0000000180076cf4     ad_block_client.obj
 0002:00034cfc       ??_C@_06GOMCKDLH@?1funct@  0000000180076cfc     ad_block_client.obj
 0002:00034d04       ??_C@_06PIOCHAKD@ww?4chi@  0000000180076d04     ad_block_client.obj
 0002:00034d0c       ??_C@_06HEHEPHLB@chinac@   0000000180076d0c     ad_block_client.obj
 0002:00034d14       ??_C@_06INMDIOCD@728x90@   0000000180076d14     ad_block_client.obj
 0002:00034d1c       ??_C@_06KEGNDGMB@?1hostg@  0000000180076d1c     ad_block_client.obj
 0002:00034d24       ??_C@_06HKNGAOGA@?4net?1f@ 0000000180076d24     ad_block_client.obj
 0002:00034d2c       ??_C@_06EGICENEP@?1img?11@ 0000000180076d2c     ad_block_client.obj
 0002:00034d34       ??_C@_06GIMFLGHG@?1api?1a@ 0000000180076d34     ad_block_client.obj
 0002:00034d3c       ??_C@_06PBLMJFFK@?1css?1m@ 0000000180076d3c     ad_block_client.obj
 0002:00034d44       ??_C@_06LKOBLBDJ@?1ad3?1j@ 0000000180076d44     ad_block_client.obj
 0002:00034d4c       ??_C@_06KMHFIHFH@?4video@  0000000180076d4c     ad_block_client.obj
 0002:00034d54       ??_C@_06JEFLJHEJ@?1ads?1g@ 0000000180076d54     ad_block_client.obj
 0002:00034d5c       ??_C@_06MHICLEFJ@?1ads?1v@ 0000000180076d5c     ad_block_client.obj
 0002:00034d64       ??_C@_06NMEBMDIN@Banner@   0000000180076d64     ad_block_client.obj
 0002:00034d6c       ??_C@_06KPCBNFBF@?1windo@  0000000180076d6c     ad_block_client.obj
 0002:00034d74       ??_C@_06MDKHMDAN@?1Anima@  0000000180076d74     ad_block_client.obj
 0002:00034d7c       ??_C@_06CKCMCNHG@ww?4sof@  0000000180076d7c     ad_block_client.obj
 0002:00034d84       ??_C@_06INNBPCJK@wallpa@   0000000180076d84     ad_block_client.obj
 0002:00034d8c       ??_C@_06IOLLNOJK@?1adima@  0000000180076d8c     ad_block_client.obj
 0002:00034d94       ??_C@_06BAGIHGD@?1refer@   0000000180076d94     ad_block_client.obj
 0002:00034d9c       ??_C@_06PNEOBCKP@?4net?1i@ 0000000180076d9c     ad_block_client.obj
 0002:00034da4       ??_C@_06GAHHPIBB@?1adgea@  0000000180076da4     ad_block_client.obj
 0002:00034dac       ??_C@_06FJPDAAML@succes@   0000000180076dac     ad_block_client.obj
 0002:00034db4       ??_C@_06OLHNDLKC@ad?4yie@  0000000180076db4     ad_block_client.obj
 0002:00034dbc       ??_C@_06NCAALIFO@?1js?1ap@ 0000000180076dbc     ad_block_client.obj
 0002:00034dc4       ??_C@_06HMPDLLGJ@?1js?112@ 0000000180076dc4     ad_block_client.obj
 0002:00034dcc       ??_C@_06IHBCFJKF@?1js?1da@ 0000000180076dcc     ad_block_client.obj
 0002:00034dd4       ??_C@_06FOPPLLAJ@?$CGzonei@ 0000000180076dd4     ad_block_client.obj
 0002:00034ddc       ??_C@_06KKPEMIIN@?1js?1ab@ 0000000180076ddc     ad_block_client.obj
 0002:00034de4       ??_C@_06NIOBHJBM@?1adimg@  0000000180076de4     ad_block_client.obj
 0002:00034dec       ??_C@_06KKPLIOJL@_overl@   0000000180076dec     ad_block_client.obj
 0002:00034df4       ??_C@_06JOHCOEJO@_main_@   0000000180076df4     ad_block_client.obj
 0002:00034dfc       ??_C@_06KEAKEAFO@?1walma@  0000000180076dfc     ad_block_client.obj
 0002:00034e04       ??_C@_06MCELMIAD@?1web?1a@ 0000000180076e04     ad_block_client.obj
 0002:00034e0c       ??_C@_06LGBBEFHE@_asset@   0000000180076e0c     ad_block_client.obj
 0002:00034e14       ??_C@_06CLGLIHFK@?1filte@  0000000180076e14     ad_block_client.obj
 0002:00034e1c       ??_C@_06JHCPAHKD@?1swfob@  0000000180076e1c     ad_block_client.obj
 0002:00034e24       ??_C@_06MJCNLLII@?1ad_fo@  0000000180076e24     ad_block_client.obj
 0002:00034e2c       ??_C@_06IMDNCDIL@?1topba@  0000000180076e2c     ad_block_client.obj
 0002:00034e34       ??_C@_06HAJMDFIK@?1gamer@  0000000180076e34     ad_block_client.obj
 0002:00034e3c       ??_C@_06PFMDNIEI@?1ad?4js@ 0000000180076e3c     ad_block_client.obj
 0002:00034e44       ??_C@_06LAFFGNGI@?1ad?1in@ 0000000180076e44     ad_block_client.obj
 0002:00034e4c       ??_C@_06ILMHMCGH@tripad@   0000000180076e4c     ad_block_client.obj
 0002:00034e54       ??_C@_06HPBGJAC@?1js?1wo@  0000000180076e54     ad_block_client.obj
 0002:00034e5c       ??_C@_06PPFKAJID@?1dylan@  0000000180076e5c     ad_block_client.obj
 0002:00034e64       ??_C@_06MGHPCLOB@_files@   0000000180076e64     ad_block_client.obj
 0002:00034e6c       ??_C@_06IKHCHPIC@politi@   0000000180076e6c     ad_block_client.obj
 0002:00034e74       ??_C@_06MNLKEJMN@?1p1?4js@ 0000000180076e74     ad_block_client.obj
 0002:00034e7c       ??_C@_06PKNLLLEH@?1js?1tr@ 0000000180076e7c     ad_block_client.obj
 0002:00034e84       ??_C@_06JMCKPNJ@?1trust@   0000000180076e84     ad_block_client.obj
 0002:00034e8c       ??_C@_06EPPPPKNM@?$DNDispl@ 0000000180076e8c     ad_block_client.obj
 0002:00034e94       ??_C@_06DCMOKDFM@?1js?1sm@ 0000000180076e94     ad_block_client.obj
 0002:00034e9c       ??_C@_06COEJDGAJ@?1skin?1@ 0000000180076e9c     ad_block_client.obj
 0002:00034ea4       ??_C@_06DNNBACLK@?1ad_ne@  0000000180076ea4     ad_block_client.obj
 0002:00034eac       ??_C@_06FEDGCNOF@?4openx@  0000000180076eac     ad_block_client.obj
 0002:00034eb4       ??_C@_06INMKCCDC@?1remot@  0000000180076eb4     ad_block_client.obj
 0002:00034ebc       ??_C@_06LOAEFCBP@?1bridg@  0000000180076ebc     ad_block_client.obj
 0002:00034ec4       ??_C@_06BNJNOIFB@_ads?4c@  0000000180076ec4     ad_block_client.obj
 0002:00034ecc       ??_C@_06FDDINAA@?1extra@   0000000180076ecc     ad_block_client.obj
 0002:00034ed4       ??_C@_06BMCKBGKE@?1diff?1@ 0000000180076ed4     ad_block_client.obj
 0002:00034edc       ??_C@_06KCGIKMLI@?1adpla@  0000000180076edc     ad_block_client.obj
 0002:00034ee4       ??_C@_06BGAHGAIC@?1simpl@  0000000180076ee4     ad_block_client.obj
 0002:00034eec       ??_C@_06MOBJFDBC@sticke@   0000000180076eec     ad_block_client.obj
 0002:00034ef4       ??_C@_06PCLILDPK@_home_@   0000000180076ef4     ad_block_client.obj
 0002:00034efc       ??_C@_06NEIJGGOF@?1defer@  0000000180076efc     ad_block_client.obj
 0002:00034f04       ??_C@_06MMLADGJH@?1pubma@  0000000180076f04     ad_block_client.obj
 0002:00034f0c       ??_C@_06CDFLBLKD@?1hserv@  0000000180076f0c     ad_block_client.obj
 0002:00034f14       ??_C@_06PLEGDLBO@?1viewi@  0000000180076f14     ad_block_client.obj
 0002:00034f1c       ??_C@_06GCIEACCK@?1size?$DN@ 0000000180076f1c     ad_block_client.obj
 0002:00034f24       ??_C@_06MPJMAPGH@?1rando@  0000000180076f24     ad_block_client.obj
 0002:00034f2c       ??_C@_06ICFLHFBJ@?1site?$DN@ 0000000180076f2c     ad_block_client.obj
 0002:00034f34       ??_C@_06BOHFMIPL@?1pbkt?1@ 0000000180076f34     ad_block_client.obj
 0002:00034f3c       ??_C@_06OCACOADB@?1js?1us@ 0000000180076f3c     ad_block_client.obj
 0002:00034f44       ??_C@_06BJAPKEDH@?1value@  0000000180076f44     ad_block_client.obj
 0002:00034f4c       ??_C@_06HDIIAPDK@?1adtag@  0000000180076f4c     ad_block_client.obj
 0002:00034f54       ??_C@_06EDEBOIHD@?1_js?1a@ 0000000180076f54     ad_block_client.obj
 0002:00034f5c       ??_C@_06BAMGLPCA@_js?1ad@  0000000180076f5c     ad_block_client.obj
 0002:00034f64       ??_C@_06DEHBEOOB@bleach@   0000000180076f64     ad_block_client.obj
 0002:00034f6c       ??_C@_06FOHMKOIC@_redes@   0000000180076f6c     ad_block_client.obj
 0002:00034f74       ??_C@_06GEFKNJEH@strate@   0000000180076f74     ad_block_client.obj
 0002:00034f7c       ??_C@_06PADOEMO@premie@    0000000180076f7c     ad_block_client.obj
 0002:00034f84       ??_C@_06BMAIKIGK@?1cdn?9c@ 0000000180076f84     ad_block_client.obj
 0002:00034f8c       ??_C@_06FJPFMDIB@?1100x1@  0000000180076f8c     ad_block_client.obj
 0002:00034f94       ??_C@_06KOALDAIL@?1js?1pc@ 0000000180076f94     ad_block_client.obj
 0002:00034f9c       ??_C@_06BJKLAIGD@_ad?4js@  0000000180076f9c     ad_block_client.obj
 0002:00034fa4       ??_C@_06BOKANMID@?1open?4@ 0000000180076fa4     ad_block_client.obj
 0002:00034fac       ??_C@_06CFBAFCHE@?4swf?$DPp@ 0000000180076fac     ad_block_client.obj
 0002:00034fb4       ??_C@_06BHGEPPP@?1skin_@   0000000180076fb4     ad_block_client.obj
 0002:00034fbc       ??_C@_06DMNLIFLB@?1matom@  0000000180076fbc     ad_block_client.obj
 0002:00034fc4       ??_C@_06GJHBAFLI@?1js?1nj@ 0000000180076fc4     ad_block_client.obj
 0002:00034fcc       ??_C@_06OHKMFGIP@forum?4@  0000000180076fcc     ad_block_client.obj
 0002:00034fd4       ??_C@_06LBILOFEE@?1vbull@  0000000180076fd4     ad_block_client.obj
 0002:00034fdc       ??_C@_06BEGFEFL@zedo?4c@   0000000180076fdc     ad_block_client.obj
 0002:00034fe4       ??_C@_06EODPMBLA@?1wp?9co@ 0000000180076fe4     ad_block_client.obj
 0002:00034fec       ??_C@_06IPBBBBLB@?1icons@  0000000180076fec     ad_block_client.obj
 0002:00034ff4       ??_C@_06LFDHNNA@?1css?1g@  0000000180076ff4     ad_block_client.obj
 0002:00034ffc       ??_C@_06IEFKBPNI@?1js?1av@ 0000000180076ffc     ad_block_client.obj
 0002:00035004       ??_C@_06HOHOJCML@?1dynam@  0000000180077004     ad_block_client.obj
 0002:0003500c       ??_C@_06MPHNJGJ@?9slide@   000000018007700c     ad_block_client.obj
 0002:00035014       ??_C@_06ICLPNEIF@?1colla@  0000000180077014     ad_block_client.obj
 0002:0003501c       ??_C@_06BJFEEKMM@?1carbo@  000000018007701c     ad_block_client.obj
 0002:00035024       ??_C@_06FBOFLKPM@?1c?4asp@ 0000000180077024     ad_block_client.obj
 0002:0003502c       ??_C@_06NNPGLCGJ@?1forum@  000000018007702c     ad_block_client.obj
 0002:00035034       ??_C@_06DCOEALNH@?1baner@  0000000180077034     ad_block_client.obj
 0002:0003503c       ??_C@_06CNPKAGLM@ww?1del@  000000018007703c     ad_block_client.obj
 0002:00035044       ??_C@_06FCGGENON@?1afr?4p@ 0000000180077044     ad_block_client.obj
 0002:0003504c       ??_C@_06BCFAMBPM@?1infor@  000000018007704c     ad_block_client.obj
 0002:00035054       ??_C@_06HLFELEKG@?4js?$DPt?$DN@ 0000000180077054     ad_block_client.obj
 0002:0003505c       ??_C@_06GOMKPIEB@?3?1?1adv@ 000000018007705c     ad_block_client.obj
 0002:00035064       ??_C@_06FKINNLBB@?1stori@  0000000180077064     ad_block_client.obj
 0002:0003506c       ??_C@_06GBLDAGIA@workin@   000000018007706c     ad_block_client.obj
 0002:00035074       ??_C@_06PHEDANJL@?1horiz@  0000000180077074     ad_block_client.obj
 0002:0003507c       ??_C@_06DAJLDDG@_sideb@    000000018007707c     ad_block_client.obj
 0002:00035084       ??_C@_06NCIJLEDF@?$DNright@ 0000000180077084     ad_block_client.obj
 0002:0003508c       ??_C@_06EDEACMCM@?1na_st@  000000018007708c     ad_block_client.obj
 0002:00035094       ??_C@_06ODABHAOJ@?1adifr@  0000000180077094     ad_block_client.obj
 0002:0003509c       ??_C@_06JJGHDKPN@?4300x2@  000000018007709c     ad_block_client.obj
 0002:000350a4       ??_C@_06LFIPFPBD@?1quikr@  00000001800770a4     ad_block_client.obj
 0002:000350ac       ??_C@_06GLPPPBBD@?1ganne@  00000001800770ac     ad_block_client.obj
 0002:000350b4       ??_C@_06OMEFGENL@?1pictu@  00000001800770b4     ad_block_client.obj
 0002:000350bc       ??_C@_06DDBLHJK@?1gads?4@  00000001800770bc     ad_block_client.obj
 0002:000350c4       ??_C@_06HEIAOIAA@ads?4us@  00000001800770c4     ad_block_client.obj
 0002:000350cc       ??_C@_06GIEECAEC@?1adapt@  00000001800770cc     ad_block_client.obj
 0002:000350d4       ??_C@_06DEEGCIMK@?4php?$DPp@ 00000001800770d4     ad_block_client.obj
 0002:000350dc       ??_C@_06PHPDJBJB@?1toppe@  00000001800770dc     ad_block_client.obj
 0002:000350e4       ??_C@_06JFEBNFLH@?1adlib@  00000001800770e4     ad_block_client.obj
 0002:000350ec       ??_C@_06EOFMLDLK@?1adfox@  00000001800770ec     ad_block_client.obj
 0002:000350f4       ??_C@_06NAFCHPCJ@?1src?1j@ 00000001800770f4     ad_block_client.obj
 0002:000350fc       ??_C@_06ONEFHNKJ@?1block@  00000001800770fc     ad_block_client.obj
 0002:00035104       ??_C@_06HGMJHBGE@?4swf?$DPa@ 0000000180077104     ad_block_client.obj
 0002:0003510c       ??_C@_06MEPEAADI@?1ad?112@ 000000018007710c     ad_block_client.obj
 0002:00035114       ??_C@_06OIPLJIJP@?3?1?1del@ 0000000180077114     ad_block_client.obj
 0002:0003511c       ??_C@_06DJDFJOCC@?$DPaduni@ 000000018007711c     ad_block_client.obj
 0002:00035124       ??_C@_06JKPPJGBK@?$DNprero@ 0000000180077124     ad_block_client.obj
 0002:0003512c       ??_C@_06GEOEJHPJ@agency@   000000018007712c     ad_block_client.obj
 0002:00035134       ??_C@_06FBJEJDIJ@?$CGadTyp@ 0000000180077134     ad_block_client.obj
 0002:0003513c       ??_C@_06DDKBPAH@?1vast?4@  000000018007713c     ad_block_client.obj
 0002:00035144       ??_C@_06DNIJAOHN@ad4?4li@  0000000180077144     ad_block_client.obj
 0002:0003514c       ??_C@_06IPBGJKDE@?1?$DPLR_P@ 000000018007714c     ad_block_client.obj
 0002:00035154       ??_C@_06BPAFKCFK@LR_VID@   0000000180077154     ad_block_client.obj
 0002:0003515c       ??_C@_06BKCBCOEG@?1vast?1@ 000000018007715c     ad_block_client.obj
 0002:00035164       ??_C@_06KNDDFOBG@?1liver@  0000000180077164     ad_block_client.obj
 0002:0003516c       ??_C@_06BOGFHJLJ@?4displ@  000000018007716c     ad_block_client.obj
 0002:00035174       ??_C@_06HFGLKBNO@?1?$DPurl?$DN@ 0000000180077174     ad_block_client.obj
 0002:0003517c       ??_C@_06LBFAODNP@_tile_@   000000018007717c     ad_block_client.obj
 0002:00035184       ??_C@_06FOFKIKML@?1realm@  0000000180077184     ad_block_client.obj
 0002:0003518c       ??_C@_06FMJPNBHG@sparkl@   000000018007718c     ad_block_client.obj
 0002:00035194       ??_C@_06MMHCKLFP@?1RealM@  0000000180077194     ad_block_client.obj
 0002:0003519c       ??_C@_06MDAHLAAM@?1adstr@  000000018007719c     ad_block_client.obj
 0002:000351a4       ??_C@_06GHBJNMOE@?1shopp@  00000001800771a4     ad_block_client.obj
 0002:000351ac       ??_C@_06KFPEBKIL@?1toolb@  00000001800771ac     ad_block_client.obj
 0002:000351b4       ??_C@_06BFMEJLMK@?1js?1oo@ 00000001800771b4     ad_block_client.obj
 0002:000351bc       ??_C@_06DDJPLBBG@?1viewa@  00000001800771bc     ad_block_client.obj
 0002:000351c4       ??_C@_06HABMPHHK@?1poll?4@ 00000001800771c4     ad_block_client.obj
 0002:000351cc       ??_C@_06BMDBGILJ@?1sdk?1v@ 00000001800771cc     ad_block_client.obj
 0002:000351d4       ??_C@_06EDBFBJNC@casino@   00000001800771d4     ad_block_client.obj
 0002:000351dc       ??_C@_06MGAFPAGE@fantas@   00000001800771dc     ad_block_client.obj
 0002:000351e4       ??_C@_06LPNCEOC@?9print@   00000001800771e4     ad_block_client.obj
 0002:000351ec       ??_C@_06NNOPCPPL@photo?4@  00000001800771ec     ad_block_client.obj
 0002:000351f4       ??_C@_06JJMBKDCC@ww?4com@  00000001800771f4     ad_block_client.obj
 0002:000351fc       ??_C@_06GPCFBMGG@?1Inclu@  00000001800771fc     ad_block_client.obj
 0002:00035204       ??_C@_06CPNJHGHP@?1takeo@  0000000180077204     ad_block_client.obj
 0002:0003520c       ??_C@_06IMABKJJ@down?4c@   000000018007720c     ad_block_client.obj
 0002:00035214       ??_C@_06KPBODFCG@?1?$HO?1med@ 0000000180077214     ad_block_client.obj
 0002:0003521c       ??_C@_06IGNADDJC@?1js?1ea@ 000000018007721c     ad_block_client.obj
 0002:00035224       ??_C@_06BPIMHMAE@?1cdn?1c@ 0000000180077224     ad_block_client.obj
 0002:0003522c       ??_C@_06OLMJKILJ@harmon@   000000018007722c     ad_block_client.obj
 0002:00035234       ??_C@_06NEHGNMPC@?1minif@  0000000180077234     ad_block_client.obj
 0002:0003523c       ??_C@_06PHGKOMPL@?1user?1@ 000000018007723c     ad_block_client.obj
 0002:00035244       ??_C@_06OABOKKIL@?1get_a@  0000000180077244     ad_block_client.obj
 0002:0003524c       ??_C@_06BELANPAJ@?1adsam@  000000018007724c     ad_block_client.obj
 0002:00035254       ??_C@_06MNBFDFON@?12010?1@ 0000000180077254     ad_block_client.obj
 0002:0003525c       ??_C@_06POIDIMKJ@?1space@  000000018007725c     ad_block_client.obj
 0002:00035264       ??_C@_06BKIOJFDK@china?9@  0000000180077264     ad_block_client.obj
 0002:0003526c       ??_C@_06OICGEOPC@?1Deskt@  000000018007726c     ad_block_client.obj
 0002:00035274       ??_C@_06DPOLCBGH@?1Skins@  0000000180077274     ad_block_client.obj
 0002:0003527c       ??_C@_06NBEPAMMC@?1logo?4@ 000000018007727c     ad_block_client.obj
 0002:00035284       ??_C@_06OPGBGDBN@?1sideb@  0000000180077284     ad_block_client.obj
 0002:0003528c       ??_C@_06FLFOLLEL@?1badge@  000000018007728c     ad_block_client.obj
 0002:00035294       ??_C@_06BHPEEADH@?1nativ@  0000000180077294     ad_block_client.obj
 0002:0003529c       ??_C@_06CJPFGGDN@?$CGsmall@ 000000018007729c     ad_block_client.obj
 0002:000352a4       ??_C@_06CALCDDGP@tfd?4co@  00000001800772a4     ad_block_client.obj
 0002:000352ac       ??_C@_06HBIMGFGK@?1e?1cm?$DP@ 00000001800772ac     ad_block_client.obj
 0002:000352b4       ??_C@_06NDGJMNFO@?1RM?1Bo@ 00000001800772b4     ad_block_client.obj
 0002:000352bc       ??_C@_06LPAMDINJ@?1adsea@  00000001800772bc     ad_block_client.obj
 0002:000352c4       ??_C@_06JPIKHEBC@beta?4s@  00000001800772c4     ad_block_client.obj
 0002:000352cc       ??_C@_06GGLPAHEJ@databa@   00000001800772cc     ad_block_client.obj
 0002:000352d4       ??_C@_06CNLKBOIG@?1cdn?1a@ 00000001800772d4     ad_block_client.obj
 0002:000352dc       ??_C@_06IEEJIFJF@?1resto@  00000001800772dc     ad_block_client.obj
 0002:000352e4       ??_C@_06HJDPIIGN@?$CGutm_c@ 00000001800772e4     ad_block_client.obj
 0002:000352ec       ??_C@_06CBPFOJAE@?1ads?1j@ 00000001800772ec     ad_block_client.obj
 0002:000352f4       ??_C@_06FOLLAKNK@?1pulse@  00000001800772f4     ad_block_client.obj
 0002:000352fc       ??_C@_06OOHKLBAH@_300_2@   00000001800772fc     ad_block_client.obj
 0002:00035304       ??_C@_06KNILKMH@?1ads?1i@  0000000180077304     ad_block_client.obj
 0002:0003530c       ??_C@_06MBFCLMJF@sunday@   000000018007730c     ad_block_client.obj
 0002:00035314       ??_C@_06HMKNBHMB@?1?$DPcomp@ 0000000180077314     ad_block_client.obj
 0002:0003531c       ??_C@_06FEDJFEBI@?1?1uplo@ 000000018007731c     ad_block_client.obj
 0002:00035324       ??_C@_06EJJHGOFG@?1img?1l@ 0000000180077324     ad_block_client.obj
 0002:0003532c       ??_C@_06HLKBAMNE@?1img?1n@ 000000018007732c     ad_block_client.obj
 0002:00035334       ??_C@_06FJKOLEMG@?1js2?1a@ 0000000180077334     ad_block_client.obj
 0002:0003533c       ??_C@_06HIMKCHGD@longta@   000000018007733c     ad_block_client.obj
 0002:00035344       ??_C@_06FEGCDFGE@_float@   0000000180077344     ad_block_client.obj
 0002:0003534c       ??_C@_06EDKANAIK@?4inter@  000000018007734c     ad_block_client.obj
 0002:00035354       ??_C@_06JJJAIOHA@?1usera@  0000000180077354     ad_block_client.obj
 0002:0003535c       ??_C@_06CLBLDNCN@?1links@  000000018007735c     ad_block_client.obj
 0002:00035364       ??_C@_06KJFNBIMF@?4utils@  0000000180077364     ad_block_client.obj
 0002:0003536c       ??_C@_06ICEKEKBI@_surve@   000000018007736c     ad_block_client.obj
 0002:00035374       ??_C@_06ENEEDFHE@?1ad?4ph@ 0000000180077374     ad_block_client.obj
 0002:0003537c       ??_C@_06PEEILMJC@?1ad?1fi@ 000000018007737c     ad_block_client.obj
 0002:00035384       ??_C@_06HHAEFNLM@?1attac@  0000000180077384     ad_block_client.obj
 0002:0003538c       ??_C@_06MOKAOJPJ@_right@   000000018007738c     ad_block_client.obj
 0002:00035394       ??_C@_06MNDLJCGD@?1first@  0000000180077394     ad_block_client.obj
 0002:0003539c       ??_C@_06HIDGHIPO@?1newpo@  000000018007739c     ad_block_client.obj
 0002:000353a4       ??_C@_06EKAAHJLN@?1cms?1i@ 00000001800773a4     ad_block_client.obj
 0002:000353ac       ??_C@_06OGMJEGPH@cheshi@   00000001800773ac     ad_block_client.obj
 0002:000353b4       ??_C@_06POHFJMIM@?1tag?1s@ 00000001800773b4     ad_block_client.obj
 0002:000353bc       ??_C@_06OJHMKHAL@_left_@   00000001800773bc     ad_block_client.obj
 0002:000353c4       ??_C@_06GDMNDPCB@?4net?1g@ 00000001800773c4     ad_block_client.obj
 0002:000353cc       ??_C@_06DMOPHELI@?1jobs?1@ 00000001800773cc     ad_block_client.obj
 0002:000353d4       ??_C@_06ONBOJPNE@_skin_@   00000001800773d4     ad_block_client.obj
 0002:000353dc       ??_C@_06JNPJJJBP@estudi@   00000001800773dc     ad_block_client.obj
 0002:000353e4       ??_C@_06KICJDIDE@?1pp?4js@ 00000001800773e4     ad_block_client.obj
 0002:000353ec       ??_C@_06GHPELMMG@?1cross@  00000001800773ec     ad_block_client.obj
 0002:000353f4       ??_C@_06DCLLCJJ@_platf@    00000001800773f4     ad_block_client.obj
 0002:000353fc       ??_C@_06ODAMBIBF@?1js?1sd@ 00000001800773fc     ad_block_client.obj
 0002:00035404       ??_C@_06PPCCDBOA@?1js?1m?4@ 0000000180077404     ad_block_client.obj
 0002:0003540c       ??_C@_06GAOKJOGG@?1b?1ss?1@ 000000018007740c     ad_block_client.obj
 0002:00035414       ??_C@_06EJFMLKIG@?1jenga@  0000000180077414     ad_block_client.obj
 0002:0003541c       ??_C@_06NOHJHEII@?1autom@  000000018007741c     ad_block_client.obj
 0002:00035424       ??_C@_06EAKEBKDF@?4colle@  0000000180077424     ad_block_client.obj
 0002:0003542c       ??_C@_06NFLACICH@?1SemiC@  000000018007742c     ad_block_client.obj
 0002:00035434       ??_C@_06IIELIBCM@?9mediu@  0000000180077434     ad_block_client.obj
 0002:0003543c       ??_C@_06PDIIJNAN@?1adj?1w@ 000000018007743c     ad_block_client.obj
 0002:00035444       ??_C@_06FHGAAMGP@?1js?1ri@ 0000000180077444     ad_block_client.obj
 0002:0003544c       ??_C@_06JEHANMGP@?1perfe@  000000018007744c     ad_block_client.obj
 0002:00035454       ??_C@_06OGEGONGF@?$DNsimpl@ 0000000180077454     ad_block_client.obj
 0002:0003545c       ??_C@_06CFEFFHDO@simply@   000000018007745c     ad_block_client.obj
 0002:00035464       ??_C@_06EONAKIGG@?1compr@  0000000180077464     ad_block_client.obj
 0002:0003546c       ??_C@_06FFFFJFC@_adver@    000000018007746c     ad_block_client.obj
 0002:00035474       ??_C@_06JBFAJOCO@?1Local@  0000000180077474     ad_block_client.obj
 0002:0003547c       ??_C@_06BJODPAJP@?1js?1sn@ 000000018007747c     ad_block_client.obj
 0002:00035484       ??_C@_06LGDOEDLP@?1agent@  0000000180077484     ad_block_client.obj
 0002:0003548c       ??_C@_06LCBOCJIG@?1ajax?9@ 000000018007748c     ad_block_client.obj
 0002:00035494       ??_C@_06MBKMLBPO@?9featu@  0000000180077494     ad_block_client.obj
 0002:0003549c       ??_C@_06GOKKNHFK@?1lib?1a@ 000000018007749c     ad_block_client.obj
 0002:000354a4       ??_C@_06ENCEOCLL@_leade@   00000001800774a4     ad_block_client.obj
 0002:000354ac       ??_C@_06LJOCCBBH@?1priva@  00000001800774ac     ad_block_client.obj
 0002:000354b4       ??_C@_06IOLDHGIJ@ladybu@   00000001800774b4     ad_block_client.obj
 0002:000354bc       ??_C@_06CNPLKLFC@?1img?1h@ 00000001800774bc     ad_block_client.obj
 0002:000354c4       ??_C@_06ILCJFEHP@planet@   00000001800774c4     ad_block_client.obj
 0002:000354cc       ??_C@_06LPDBDMAC@?1samsu@  00000001800774cc     ad_block_client.obj
 0002:000354d4       ??_C@_06PJOOOMPG@?1offer@  00000001800774d4     ad_block_client.obj
 0002:000354dc       ??_C@_06POOKHNAG@?1livec@  00000001800774dc     ad_block_client.obj
 0002:000354e4       ??_C@_06CLPCDCMH@?9small@  00000001800774e4     ad_block_client.obj
 0002:000354ec       ??_C@_06BCCKFGID@?1link_@  00000001800774ec     ad_block_client.obj
 0002:000354f4       ??_C@_06GJAHNMEB@?1api?4a@ 00000001800774f4     ad_block_client.obj
 0002:000354fc       ??_C@_06HOAKHOKH@?1Maste@  00000001800774fc     ad_block_client.obj
 0002:00035504       ??_C@_06JHJGINAM@511564@   0000000180077504     ad_block_client.obj
 0002:0003550c       ??_C@_06INBDMMEO@?1marqu@  000000018007750c     ad_block_client.obj
 0002:00035514       ??_C@_06NKICAKCE@_theme@   0000000180077514     ad_block_client.obj
 0002:0003551c       ??_C@_06BDLAJAPM@?1queen@  000000018007751c     ad_block_client.obj
 0002:00035524       ??_C@_06CAHNDJO@?1Publi@   0000000180077524     ad_block_client.obj
 0002:0003552c       ??_C@_06NBCFFKBF@?1skin2@  000000018007752c     ad_block_client.obj
 0002:00035534       ??_C@_06BFNEIGGC@snapde@   0000000180077534     ad_block_client.obj
 0002:0003553c       ??_C@_06DAHJBMJB@?$CGadspa@ 000000018007753c     ad_block_client.obj
 0002:00035544       ??_C@_06FEHHCOLJ@?1blues@  0000000180077544     ad_block_client.obj
 0002:0003554c       ??_C@_06MNKAIGBA@?1unity@  000000018007754c     ad_block_client.obj
 0002:00035554       ??_C@_06BPFLFNOM@?1getvi@  0000000180077554     ad_block_client.obj
 0002:0003555c       ??_C@_06JDEOPPJC@extrat@   000000018007755c     ad_block_client.obj
 0002:00035564       ??_C@_06MBGGBEKA@mgid?4c@  0000000180077564     ad_block_client.obj
 0002:0003556c       ??_C@_06BDLNAMAE@?3?1?1ads@ 000000018007756c     ad_block_client.obj
 0002:00035574       ??_C@_06BEEKPALK@ww?4inf@  0000000180077574     ad_block_client.obj
 0002:0003557c       ??_C@_06EOAMOMLI@?1fancy@  000000018007757c     ad_block_client.obj
 0002:00035584       ??_C@_06CMGDDEJL@counti@   0000000180077584     ad_block_client.obj
 0002:0003558c       ??_C@_06PCNHJLBG@_affil@   000000018007758c     ad_block_client.obj
 0002:00035594       ??_C@_06NIJOJFFE@?1js?1op@ 0000000180077594     ad_block_client.obj
 0002:0003559c       ??_C@_06JKLOLGLA@?1node?1@ 000000018007759c     ad_block_client.obj
 0002:000355a4       ??_C@_06KILLJHJI@?1panel@  00000001800775a4     ad_block_client.obj
 0002:000355ac       ??_C@_06HNJIIGIA@?1?$DPkey?$DN@ 00000001800775ac     ad_block_client.obj
 0002:000355b4       ??_C@_06CALEPKNI@?1anti_@  00000001800775b4     ad_block_client.obj
 0002:000355bc       ??_C@_06FJEMBLLE@?1app?1w@ 00000001800775bc     ad_block_client.obj
 0002:000355c4       ??_C@_06CHOBAIHP@?1homes@  00000001800775c4     ad_block_client.obj
 0002:000355cc       ??_C@_06EJPMEHEP@?1middl@  00000001800775cc     ad_block_client.obj
 0002:000355d4       ??_C@_06HCEIJONO@?1liber@  00000001800775d4     ad_block_client.obj
 0002:000355dc       ??_C@_06MFOHJNEG@libera@   00000001800775dc     ad_block_client.obj
 0002:000355e4       ??_C@_06CBOAAMDD@?9house@  00000001800775e4     ad_block_client.obj
 0002:000355ec       ??_C@_06CAIKFCIF@?9feed?9@ 00000001800775ec     ad_block_client.obj
 0002:000355f4       ??_C@_06PGFHPJKE@?1artic@  00000001800775f4     ad_block_client.obj
 0002:000355fc       ??_C@_06HDDOCMMN@orange@   00000001800775fc     ad_block_client.obj
 0002:00035604       ??_C@_06FLMNDCMD@?1reute@  0000000180077604     ad_block_client.obj
 0002:0003560c       ??_C@_06MAHOCNGK@?1rcom?9@ 000000018007760c     ad_block_client.obj
 0002:00035614       ??_C@_06KNIPOEOF@?1js?1rc@ 0000000180077614     ad_block_client.obj
 0002:0003561c       ??_C@_06ECEPDPIA@?$DPview?$DN@ 000000018007761c     ad_block_client.obj
 0002:00035624       ??_C@_06BNOMLGAA@?1refre@  0000000180077624     ad_block_client.obj
 0002:0003562c       ??_C@_06NABKJKGO@?1?1asyn@ 000000018007762c     ad_block_client.obj
 0002:00035634       ??_C@_06ODENPNKJ@?$DLtype?$DN@ 0000000180077634     ad_block_client.obj
 0002:0003563c       ??_C@_06CCMJKLKD@?1globe@  000000018007763c     ad_block_client.obj
 0002:00035644       ??_C@_06GOOCJKCP@?1ast?1j@ 0000000180077644     ad_block_client.obj
 0002:0003564c       ??_C@_06JKCPMJAB@?9Spons@  000000018007764c     ad_block_client.obj
 0002:00035654       ??_C@_06EBHOBBLI@?1post?9@ 0000000180077654     ad_block_client.obj
 0002:0003565c       ??_C@_06LCOMPAOB@ww?4con@  000000018007765c     ad_block_client.obj
 0002:00035664       ??_C@_06NCBFHNPE@?1_scri@  0000000180077664     ad_block_client.obj
 0002:0003566c       ??_C@_06MJMHLJ@_sites@     000000018007766c     ad_block_client.obj
 0002:00035674       ??_C@_06EKJIJFKN@?9place@  0000000180077674     ad_block_client.obj
 0002:0003567c       ??_C@_06HBMOAEFB@_partn@   000000018007767c     ad_block_client.obj
 0002:00035684       ??_C@_06MNILKGPH@?1img?9c@ 0000000180077684     ad_block_client.obj
 0002:0003568c       ??_C@_06OPHEFOKJ@chinaz@   000000018007768c     ad_block_client.obj
 0002:00035694       ??_C@_06OAOLLAJK@?11?1adn@ 0000000180077694     ad_block_client.obj
 0002:0003569c       ??_C@_06GNEGDCOA@?1api?1v@ 000000018007769c     ad_block_client.obj
 0002:000356a4       ??_C@_06ILEDOPDL@virtua@   00000001800776a4     ad_block_client.obj
 0002:000356ac       ??_C@_06EDOIOFLF@?1api?1b@ 00000001800776ac     ad_block_client.obj
 0002:000356b4       ??_C@_06MEBLFDIN@?1Image@  00000001800776b4     ad_block_client.obj
 0002:000356bc       ??_C@_06MOFFPEEI@?1load_@  00000001800776bc     ad_block_client.obj
 0002:000356c4       ??_C@_06IOEFFOKC@fireho@   00000001800776c4     ad_block_client.obj
 0002:000356cc       ??_C@_06DCJLMOFP@comput@   00000001800776cc     ad_block_client.obj
 0002:000356d4       ??_C@_06NNKOHAGH@distro@   00000001800776d4     ad_block_client.obj
 0002:000356dc       ??_C@_06NOFKCPNL@?1logos@  00000001800776dc     ad_block_client.obj
 0002:000356e4       ??_C@_06MOFGPAFB@future@   00000001800776e4     ad_block_client.obj
 0002:000356ec       ??_C@_06HNOEGIGA@?1spark@  00000001800776ec     ad_block_client.obj
 0002:000356f4       ??_C@_06FDKMOFKO@?1cssjs@  00000001800776f4     ad_block_client.obj
 0002:000356fc       ??_C@_06ODHOJMKB@?1js?1de@ 00000001800776fc     ad_block_client.obj
 0002:00035704       ??_C@_06ICNMADKO@?1ck?4ph@ 0000000180077704     ad_block_client.obj
 0002:0003570c       ??_C@_06BEIANGOA@?1adv_l@  000000018007770c     ad_block_client.obj
 0002:00035714       ??_C@_06EAHBLOLA@?1adv?1l@ 0000000180077714     ad_block_client.obj
 0002:0003571c       ??_C@_06OGHEANDF@_spons@   000000018007771c     ad_block_client.obj
 0002:00035724       ??_C@_06BCABOBLB@?1ads?4h@ 0000000180077724     ad_block_client.obj
 0002:0003572c       ??_C@_06IKADPLGO@?1adv_b@  000000018007772c     ad_block_client.obj
 0002:00035734       ??_C@_06JJHCEEIM@?1js?1wa@ 0000000180077734     ad_block_client.obj
 0002:0003573c       ??_C@_06OBCJMHLK@?4text?9@ 000000018007773c     ad_block_client.obj
 0002:00035744       ??_C@_06KKFMLBND@?1gravi@  0000000180077744     ad_block_client.obj
 0002:0003574c       ??_C@_06GPCJAAID@?1email@  000000018007774c     ad_block_client.obj
 0002:00035754       ??_C@_06KIPJHMFA@?1radio@  0000000180077754     ad_block_client.obj
 0002:0003575c       ??_C@_06OCPBKNAE@stacks@   000000018007775c     ad_block_client.obj
 0002:00035764       ??_C@_06PGEGJLPI@?1api?1o@ 0000000180077764     ad_block_client.obj
 0002:0003576c       ??_C@_06IBNJJLEO@?1js?1aa@ 000000018007776c     ad_block_client.obj
 0002:00035774       ??_C@_06PHMNFMOP@?1cgi?1a@ 0000000180077774     ad_block_client.obj
 0002:0003577c       ??_C@_06KGGNPFML@?1ads?1e@ 000000018007777c     ad_block_client.obj
 0002:00035784       ??_C@_06MMLFPKPD@ww?4web@  0000000180077784     ad_block_client.obj
 0002:0003578c       ??_C@_06KHOPOKPA@?1table@  000000018007778c     ad_block_client.obj
 0002:00035794       ??_C@_06COFBNBOJ@tablet@   0000000180077794     ad_block_client.obj
 0002:0003579c       ??_C@_06FBFNJFGE@?1newsl@  000000018007779c     ad_block_client.obj
 0002:000357a4       ??_C@_06MGMCIEEN@?9newsl@  00000001800777a4     ad_block_client.obj
 0002:000357ac       ??_C@_06BAFIEFAB@?1Nativ@  00000001800777ac     ad_block_client.obj
 0002:000357b4       ??_C@_06DPCEIGLB@?9panel@  00000001800777b4     ad_block_client.obj
 0002:000357bc       ??_C@_06GKPNDAHE@?1curre@  00000001800777bc     ad_block_client.obj
 0002:000357c4       ??_C@_06BFLOBBPN@youjiz@   00000001800777c4     ad_block_client.obj
 0002:000357cc       ??_C@_06KCADLKJO@?1adult@  00000001800777cc     ad_block_client.obj
 0002:000357d4       ??_C@_06NPAALGPI@?1servl@  00000001800777d4     ad_block_client.obj
 0002:000357dc       ??_C@_06JFMGOKJ@?1ads?9i@  00000001800777dc     ad_block_client.obj
 0002:000357e4       ??_C@_06PGIFLCGD@?1digit@  00000001800777e4     ad_block_client.obj
 0002:000357ec       ??_C@_06PBEMDCIF@?1ac?1bs@ 00000001800777ec     ad_block_client.obj
 0002:000357f4       ??_C@_06CNELGOEE@?1js15?4@ 00000001800777f4     ad_block_client.obj
 0002:000357fc       ??_C@_06FOCJNCJH@?1ads_i@  00000001800777fc     ad_block_client.obj
 0002:00035804       ??_C@_06NAIFDLHH@mother@   0000000180077804     ad_block_client.obj
 0002:0003580c       ??_C@_06EIAJECBG@?1multi@  000000018007780c     ad_block_client.obj
 0002:00035814       ??_C@_06PHDDELCM@ww?4cai@  0000000180077814     ad_block_client.obj
 0002:0003581c       ??_C@_06HFFPHANE@?1stock@  000000018007781c     ad_block_client.obj
 0002:00035824       ??_C@_06GOBPLFEH@xing?4c@  0000000180077824     ad_block_client.obj
 0002:0003582c       ??_C@_06NKPCFBEI@?1mini_@  000000018007782c     ad_block_client.obj
 0002:00035834       ??_C@_06CDHPIFPK@?1js?1im@ 0000000180077834     ad_block_client.obj
 0002:0003583c       ??_C@_06JGEDDHBH@down?4m@  000000018007783c     ad_block_client.obj
 0002:00035844       ??_C@_06OLAIPNCK@?1gazet@  0000000180077844     ad_block_client.obj
 0002:0003584c       ??_C@_06BKCEEFBB@?4pl?1ad@ 000000018007784c     ad_block_client.obj
 0002:00035854       ??_C@_06MDHEGID@brands@    0000000180077854     ad_block_client.obj
 0002:0003585c       ??_C@_06BNEFOCOF@?1info?1@ 000000018007785c     ad_block_client.obj
 0002:00035864       ??_C@_06KCMMOIEK@adv?4ad@  0000000180077864     ad_block_client.obj
 0002:0003586c       ??_C@_06KGOJNLD@utm_so@    000000018007786c     ad_block_client.obj
 0002:00035874       ??_C@_06HHHHOFDB@?1pub?1i@ 0000000180077874     ad_block_client.obj
 0002:0003587c       ??_C@_06LIAFGCGH@?1ads2?1@ 000000018007787c     ad_block_client.obj
 0002:00035884       ??_C@_06PLGLPMMM@?4popup@  0000000180077884     ad_block_client.obj
 0002:0003588c       ??_C@_06MKJFINMO@commis@   000000018007788c     ad_block_client.obj
 0002:00035894       ??_C@_06MFJCEBJM@missio@   0000000180077894     ad_block_client.obj
 0002:0003589c       ??_C@_06PODNCDGP@PopUnd@   000000018007789c     ad_block_client.obj
 0002:000358a4       ??_C@_06OFLGAFOB@?1movie@  00000001800778a4     ad_block_client.obj
 0002:000358ac       ??_C@_06MBJGFFCC@?1homeo@  00000001800778ac     ad_block_client.obj
 0002:000358b4       ??_C@_06BIGCANAL@?1j?4ad?$DP@ 00000001800778b4     ad_block_client.obj
 0002:000358bc       ??_C@_06IEJGINML@?1js?1fa@ 00000001800778bc     ad_block_client.obj
 0002:000358c4       ??_C@_06CEAOBODE@?1link?4@ 00000001800778c4     ad_block_client.obj
 0002:000358cc       ??_C@_06EFJJCMAA@?1ads?1n@ 00000001800778cc     ad_block_client.obj
 0002:000358d4       ??_C@_06IKAJIJKC@?1news?1@ 00000001800778d4     ad_block_client.obj
 0002:000358dc       ??_C@_06CCDPMDGI@?$DPlink?$DN@ 00000001800778dc     ad_block_client.obj
 0002:000358e4       ??_C@_06NGPHPFCG@?1spotl@  00000001800778e4     ad_block_client.obj
 0002:000358ec       ??_C@_06EBFAHIGP@?1Handl@  00000001800778ec     ad_block_client.obj
 0002:000358f4       ??_C@_06OFMCKBJC@?9third@  00000001800778f4     ad_block_client.obj
 0002:000358fc       ??_C@_06CHEIDNKO@argent@   00000001800778fc     ad_block_client.obj
 0002:00035904       ??_C@_06DNPNADHG@?1colum@  0000000180077904     ad_block_client.obj
 0002:0003590c       ??_C@_06MDPEINPE@timedi@   000000018007790c     ad_block_client.obj
 0002:00035914       ??_C@_06LLIPEGBJ@?1ima3?4@ 0000000180077914     ad_block_client.obj
 0002:0003591c       ??_C@_06NNAHIEIE@?1place@  000000018007791c     ad_block_client.obj
 0002:00035924       ??_C@_06FPJEFEJC@?1deals@  0000000180077924     ad_block_client.obj
 0002:0003592c       ??_C@_06CFABJPKL@?1menu?1@ 000000018007792c     ad_block_client.obj
 0002:00035934       ??_C@_06FAPCLJNH@?4digit@  0000000180077934     ad_block_client.obj
 0002:0003593c       ??_C@_06GFKKCJBL@monste@   000000018007793c     ad_block_client.obj
 0002:00035944       ??_C@_06LLDHCKCL@?1ads?4s@ 0000000180077944     ad_block_client.obj
 0002:0003594c       ??_C@_06PKMDIHNI@?1zdcse@  000000018007794c     ad_block_client.obj
 0002:00035954       ??_C@_06GFOIIKCI@?1js?113@ 0000000180077954     ad_block_client.obj
 0002:0003595c       ??_C@_06PECEKFJO@consol@   000000018007795c     ad_block_client.obj
 0002:00035964       ??_C@_06MPCEELIF@sextub@   0000000180077964     ad_block_client.obj
 0002:0003596c       ??_C@_06KKDIFKJO@?1js?1fu@ 000000018007796c     ad_block_client.obj
 0002:00035974       ??_C@_06PJCNOLJN@?1js?1as@ 0000000180077974     ad_block_client.obj
 0002:0003597c       ??_C@_06GNBBPIBJ@v?4fwmr@  000000018007797c     ad_block_client.obj
 0002:00035984       ??_C@_06FDKJDOCG@?1ad?1g?1@ 0000000180077984     ad_block_client.obj
 0002:0003598c       ??_C@_06NECMCNDK@?1exit?4@ 000000018007798c     ad_block_client.obj
 0002:00035994       ??_C@_06JJBFPHND@federa@   0000000180077994     ad_block_client.obj
 0002:0003599c       ??_C@_06BIJNNCIN@bianca@   000000018007799c     ad_block_client.obj
 0002:000359a4       ??_C@_06KDJGHDOL@?1ws?1co@ 00000001800779a4     ad_block_client.obj
 0002:000359ac       ??_C@_06PFKJLJNM@?3?1?1oas@ 00000001800779ac     ad_block_client.obj
 0002:000359b4       ??_C@_06CPKAPKAJ@?9news?9@ 00000001800779b4     ad_block_client.obj
 0002:000359bc       ??_C@_06CEMNKGP@italia@    00000001800779bc     ad_block_client.obj
 0002:000359c4       ??_C@_06OBPDHPEE@_doubl@   00000001800779c4     ad_block_client.obj
 0002:000359cc       ??_C@_06KFCGDDEB@_onlin@   00000001800779cc     ad_block_client.obj
 0002:000359d4       ??_C@_06BJJBHECL@?1js?1do@ 00000001800779d4     ad_block_client.obj
 0002:000359dc       ??_C@_06FCCLMENN@?1pagec@  00000001800779dc     ad_block_client.obj
 0002:000359e4       ??_C@_06LMJFOLPF@?1artis@  00000001800779e4     ad_block_client.obj
 0002:000359ec       ??_C@_06JEFFGHEB@?1sitea@  00000001800779ec     ad_block_client.obj
 0002:000359f4       ??_C@_06IPDEBBCE@pop?4js@  00000001800779f4     ad_block_client.obj
 0002:000359fc       ??_C@_06ILOAEFKC@?9skin?9@ 00000001800779fc     ad_block_client.obj
 0002:00035a04       ??_C@_06NJKAKJK@?1black@   0000000180077a04     ad_block_client.obj
 0002:00035a0c       ??_C@_06GJEBOJLG@?1sid?4h@ 0000000180077a0c     ad_block_client.obj
 0002:00035a14       ??_C@_06FIIKFOMA@?1css?1v@ 0000000180077a14     ad_block_client.obj
 0002:00035a1c       ??_C@_06KINDBPME@?1inc_i@  0000000180077a1c     ad_block_client.obj
 0002:00035a24       ??_C@_06IEDHMPI@?1advan@   0000000180077a24     ad_block_client.obj
 0002:00035a2c       ??_C@_06CFKGHBNL@advanc@   0000000180077a2c     ad_block_client.obj
 0002:00035a34       ??_C@_06JDDAOLFN@?3?1?1fee@ 0000000180077a34     ad_block_client.obj
 0002:00035a3c       ??_C@_06NHDILMDA@?1adban@  0000000180077a3c     ad_block_client.obj
 0002:00035a44       ??_C@_06LCCMHINH@?1getwe@  0000000180077a44     ad_block_client.obj
 0002:00035a4c       ??_C@_06DBMFKMFM@?4php?$DPg@ 0000000180077a4c     ad_block_client.obj
 0002:00035a54       ??_C@_06NALEJPCB@?1adp?1a@ 0000000180077a54     ad_block_client.obj
 0002:00035a5c       ??_C@_06EOIIBLDM@?1apps?1@ 0000000180077a5c     ad_block_client.obj
 0002:00035a64       ??_C@_06NBKBPLM@?11x1?4g@  0000000180077a64     ad_block_client.obj
 0002:00035a6c       ??_C@_06DPJJGGJE@?1Widge@  0000000180077a6c     ad_block_client.obj
 0002:00035a74       ??_C@_06JPPFBONF@?1adcod@  0000000180077a74     ad_block_client.obj
 0002:00035a7c       ??_C@_06KNGOJGNL@?1w?1get@ 0000000180077a7c     ad_block_client.obj
 0002:00035a84       ??_C@_06PCEKJNMH@homein@   0000000180077a84     ad_block_client.obj
 0002:00035a8c       ??_C@_06HOMOHPLG@?1showf@  0000000180077a8c     ad_block_client.obj
 0002:00035a94       ??_C@_06CEGAOKGI@?38080?1@ 0000000180077a94     ad_block_client.obj
 0002:00035a9c       ??_C@_06MIFEDNID@?1logo?1@ 0000000180077a9c     ad_block_client.obj
 0002:00035aa4       ??_C@_06DGMKMGJP@?1evere@  0000000180077aa4     ad_block_client.obj
 0002:00035aac       ??_C@_06BNFGNHEL@_verti@   0000000180077aac     ad_block_client.obj
 0002:00035ab4       ??_C@_06MLAPAPEH@?1m?4js?$DP@ 0000000180077ab4     ad_block_client.obj
 0002:00035abc       ??_C@_06CKMKFBIP@?1adnet@  0000000180077abc     ad_block_client.obj
 0002:00035ac4       ??_C@_06PFENKHCC@?1door?1@ 0000000180077ac4     ad_block_client.obj
 0002:00035acc       ??_C@_06PEAJBABA@?1adins@  0000000180077acc     ad_block_client.obj
 0002:00035ad4       ??_C@_06NKGOAFPJ@?1adscr@  0000000180077ad4     ad_block_client.obj
 0002:00035adc       ??_C@_06LAEFPGMB@?1pics?4@ 0000000180077adc     ad_block_client.obj
 0002:00035ae4       ??_C@_06NHBEEDNI@?1img?1b@ 0000000180077ae4     ad_block_client.obj
 0002:00035aec       ??_C@_06BAEPMJEA@?1story@  0000000180077aec     ad_block_client.obj
 0002:00035af4       ??_C@_06EEBFDKI@?1swf?1i@  0000000180077af4     ad_block_client.obj
 0002:00035afc       ??_C@_06HIAAODIH@?1inser@  0000000180077afc     ad_block_client.obj
 0002:00035b04       ??_C@_06JADNJON@clickb@    0000000180077b04     ad_block_client.obj
 0002:00035b0c       ??_C@_06MANAKDLD@?1_part@  0000000180077b0c     ad_block_client.obj
 0002:00035b14       ??_C@_06LMFMPPCD@_stick@   0000000180077b14     ad_block_client.obj
 0002:00035b1c       ??_C@_06JBFMGGJK@_dropd@   0000000180077b1c     ad_block_client.obj
 0002:00035b24       ??_C@_06IHHELGAI@?1adtim@  0000000180077b24     ad_block_client.obj
 0002:00035b2c       ??_C@_06BBNMLHPF@?1centr@  0000000180077b2c     ad_block_client.obj
 0002:00035b34       ??_C@_06LHOAPELE@?1t?4php@ 0000000180077b34     ad_block_client.obj
 0002:00035b3c       ??_C@_06EMGNEIIP@?1addit@  0000000180077b3c     ad_block_client.obj
 0002:00035b44       ??_C@_06CICFOIHE@?$DPwmid?$DN@ 0000000180077b44     ad_block_client.obj
 0002:00035b4c       ??_C@_06CCMIDJNC@?1right@  0000000180077b4c     ad_block_client.obj
 0002:00035b54       ??_C@_06MPOEHBBJ@?1js?1pp@ 0000000180077b54     ad_block_client.obj
 0002:00035b5c       ??_C@_06OHIIHNNK@_eleme@   0000000180077b5c     ad_block_client.obj
 0002:00035b64       ??_C@_06IGNGMLNG@_prero@   0000000180077b64     ad_block_client.obj
 0002:00035b6c       ??_C@_06KMIBBMMB@?1js?1tt@ 0000000180077b6c     ad_block_client.obj
 0002:00035b74       ??_C@_06LPKOGPDJ@?1pub?1a@ 0000000180077b74     ad_block_client.obj
 0002:00035b7c       ??_C@_06CFPFJEPO@?1adam?1@ 0000000180077b7c     ad_block_client.obj
 0002:00035b84       ??_C@_06MPFBLMKO@?$DN300x2@ 0000000180077b84     ad_block_client.obj
 0002:00035b8c       ??_C@_06MMODOFGE@?9300x6@  0000000180077b8c     ad_block_client.obj
 0002:00035b94       ??_C@_06PHLLNNKB@centro@   0000000180077b94     ad_block_client.obj
 0002:00035b9c       ??_C@_06LKMCKJIN@?1vpaid@  0000000180077b9c     ad_block_client.obj
 0002:00035ba4       ??_C@_06BEOHADEB@?1locat@  0000000180077ba4     ad_block_client.obj
 0002:00035bac       ??_C@_06ELHLDMJI@?$CGadser@ 0000000180077bac     ad_block_client.obj
 0002:00035bb4       ??_C@_06LBFFJBKN@?1webma@  0000000180077bb4     ad_block_client.obj
 0002:00035bbc       ??_C@_06BFLHJJKL@?1show?$DP@ 0000000180077bbc     ad_block_client.obj
 0002:00035bc4       ??_C@_06DIOACIEN@?1sitem@  0000000180077bc4     ad_block_client.obj
 0002:00035bcc       ??_C@_06PLEKEEJE@?1imgad@  0000000180077bcc     ad_block_client.obj
 0002:00035bd4       ??_C@_06IODPBPCM@?$DNdynam@ 0000000180077bd4     ad_block_client.obj
 0002:00035bdc       ??_C@_06OMJLHNML@?1ecom?1@ 0000000180077bdc     ad_block_client.obj
 0002:00035be4       ??_C@_06ELEJGGBI@?1retri@  0000000180077be4     ad_block_client.obj
 0002:00035bec       ??_C@_06HENICNMM@?1cobra@  0000000180077bec     ad_block_client.obj
 0002:00035bf4       ??_C@_06NACMCHKN@?1nexp?1@ 0000000180077bf4     ad_block_client.obj
 0002:00035bfc       ??_C@_06HDHFMGGM@?1rocke@  0000000180077bfc     ad_block_client.obj
 0002:00035c04       ??_C@_06NHDMJEKK@rocket@   0000000180077c04     ad_block_client.obj
 0002:00035c0c       ??_C@_06NDABMHKE@segund@   0000000180077c0c     ad_block_client.obj
 0002:00035c14       ??_C@_06JNPHJLEF@videoa@   0000000180077c14     ad_block_client.obj
 0002:00035c1c       ??_C@_06IPFOFMD@?1mod_p@   0000000180077c1c     ad_block_client.obj
 0002:00035c24       ??_C@_06MKEJMLBF@winner@   0000000180077c24     ad_block_client.obj
 0002:00035c2c       ??_C@_06ENLPHEBB@?1game?9@ 0000000180077c2c     ad_block_client.obj
 0002:00035c34       ??_C@_06CCDIDIOO@?1spect@  0000000180077c34     ad_block_client.obj
 0002:00035c3c       ??_C@_06DLBMJFGG@?1api?1p@ 0000000180077c3c     ad_block_client.obj
 0002:00035c44       ??_C@_06EMGPDNPG@?1blog?9@ 0000000180077c44     ad_block_client.obj
 0002:00035c4c       ??_C@_06GLCKIOKH@?1Front@  0000000180077c4c     ad_block_client.obj
 0002:00035c54       ??_C@_06GOKKKIMB@?1subsc@  0000000180077c54     ad_block_client.obj
 0002:00035c5c       ??_C@_06MHPLEKDM@?1mini?9@ 0000000180077c5c     ad_block_client.obj
 0002:00035c64       ??_C@_06BPHJPCAK@implie@   0000000180077c64     ad_block_client.obj
 0002:00035c6c       ??_C@_06FHICDDMO@?4ads?4c@ 0000000180077c6c     ad_block_client.obj
 0002:00035c74       ??_C@_06BJBDEOAL@?1Affil@  0000000180077c74     ad_block_client.obj
 0002:00035c7c       ??_C@_06CKGMNANB@?1ticke@  0000000180077c7c     ad_block_client.obj
 0002:00035c84       ??_C@_06MHCLEIEN@?1skinn@  0000000180077c84     ad_block_client.obj
 0002:00035c8c       ??_C@_06PFGHHEBM@_value@   0000000180077c8c     ad_block_client.obj
 0002:00035c94       ??_C@_06DBBFPCH@?1other@   0000000180077c94     ad_block_client.obj
 0002:00035c9c       ??_C@_06BEFPDDGD@?1cente@  0000000180077c9c     ad_block_client.obj
 0002:00035ca4       ??_C@_06CJJDCMEE@?1js?1pl@ 0000000180077ca4     ad_block_client.obj
 0002:00035cac       ??_C@_06IDPHDEOF@?1playb@  0000000180077cac     ad_block_client.obj
 0002:00035cb4       ??_C@_06PKALDMMH@?1all?1a@ 0000000180077cb4     ad_block_client.obj
 0002:00035cbc       ??_C@_06KNGEDNHC@?1firef@  0000000180077cbc     ad_block_client.obj
 0002:00035cc4       ??_C@_06GJEBIPEJ@?1opena@  0000000180077cc4     ad_block_client.obj
 0002:00035ccc       ??_C@_06EECLCIAO@?1langu@  0000000180077ccc     ad_block_client.obj
 0002:00035cd4       ??_C@_06FGKCGGFI@?1js?1si@ 0000000180077cd4     ad_block_client.obj
 0002:00035cdc       ??_C@_06IMEOBOJI@?1js?1ka@ 0000000180077cdc     ad_block_client.obj
 0002:00035ce4       ??_C@_06ONGNMNBJ@?1js?1le@ 0000000180077ce4     ad_block_client.obj
 0002:00035cec       ??_C@_06JFEKKPGL@?9book?9@ 0000000180077cec     ad_block_client.obj
 0002:00035cf4       ??_C@_06FILLMLPM@?1eagle@  0000000180077cf4     ad_block_client.obj
 0002:00035cfc       ??_C@_06HBBCGJOM@?1outpu@  0000000180077cfc     ad_block_client.obj
 0002:00035d04       ??_C@_06IEABAABH@?1js?1_b@ 0000000180077d04     ad_block_client.obj
 0002:00035d0c       ??_C@_06MOAPHCJJ@?1img?1c@ 0000000180077d0c     ad_block_client.obj
 0002:00035d14       ??_C@_06JOFPNCBG@?1origi@  0000000180077d14     ad_block_client.obj
 0002:00035d1c       ??_C@_06FAPIKHBG@?1botto@  0000000180077d1c     ad_block_client.obj
 0002:00035d24       ??_C@_06JEFLNHPN@?1js?1mw@ 0000000180077d24     ad_block_client.obj
 0002:00035d2c       ??_C@_06KLONLLNE@tatic?1@  0000000180077d2c     ad_block_client.obj
 0002:00035d34       ??_C@_06CEDODFLC@redire@   0000000180077d34     ad_block_client.obj
 0002:00035d3c       ??_C@_06BIEEJMKO@module@   0000000180077d3c     ad_block_client.obj
 0002:00035d44       ??_C@_06LMBKLMFI@brandi@   0000000180077d44     ad_block_client.obj
 0002:00035d4c       ??_C@_06OINAKLDO@anner?$CF@ 0000000180077d4c     ad_block_client.obj
 0002:00035d54       ??_C@_06KGJLILGH@deskto@   0000000180077d54     ad_block_client.obj
 0002:00035d5c       ??_C@_06ELMJEKAF@defaul@   0000000180077d5c     ad_block_client.obj
 0002:00035d64       ??_C@_06GDMDKJEN@layout@   0000000180077d64     ad_block_client.obj
 0002:00035d6c       ??_C@_06HEJKFKFH@messag@   0000000180077d6c     ad_block_client.obj
 0002:00035d74       ??_C@_06NLFLNJH@egistr@    0000000180077d74     ad_block_client.obj
 0002:00035d7c       ??_C@_06PJBOHCKF@mazon?9@  0000000180077d7c     ad_block_client.obj
 0002:00035d84       ??_C@_06FAINHLDA@aax2?1a@  0000000180077d84     ad_block_client.obj
 0002:00035d8c       ??_C@_06GDPKAMEN@ads?4js@  0000000180077d8c     ad_block_client.obj
 0002:00035d94       ??_C@_06PAMNHHEG@extern@   0000000180077d94     ad_block_client.obj
 0002:00035d9c       ??_C@_06LDKAKNLF@query?4@  0000000180077d9c     ad_block_client.obj
 0002:00035da4       ??_C@_06MBPAJAPM@header@   0000000180077da4     ad_block_client.obj
 0002:00035dac       ??_C@_06IFFFPPAB@countr@   0000000180077dac     ad_block_client.obj
 0002:00035db4       ??_C@_06BPJHPPIO@tp?3?1?1c@ 0000000180077db4     ad_block_client.obj
 0002:00035dbc       ??_C@_06GFMDHNGO@bootst@   0000000180077dbc     ad_block_client.obj
 0002:00035dc4       ??_C@_06BOCDNFJ@callba@    0000000180077dc4     ad_block_client.obj
 0002:00035dcc       ??_C@_06JGFNHBBM@storag@   0000000180077dcc     ad_block_client.obj
 0002:00035dd4       ??_C@_06LLKHDPKL@events@   0000000180077dd4     ad_block_client.obj
 0002:00035ddc       ??_C@_06NKHGCJAI@plugin@   0000000180077ddc     ad_block_client.obj
 0002:00035de4       ??_C@_06IHOCHEAI@nterna@   0000000180077de4     ad_block_client.obj
 0002:00035dec       ??_C@_06HHKGKONL@librar@   0000000180077dec     ad_block_client.obj
 0002:00035df4       ??_C@_06NPHNCBDJ@footer@   0000000180077df4     ad_block_client.obj
 0002:00035dfc       ??_C@_06LDFNLDJM@settin@   0000000180077dfc     ad_block_client.obj
 0002:00035e04       ??_C@_06LCEHCPF@anner?4@   0000000180077e04     ad_block_client.obj
 0002:00035e0c       ??_C@_06MCNIOLBI@gatewa@   0000000180077e0c     ad_block_client.obj
 0002:00035e14       ??_C@_06DACBIJC@loudfr@    0000000180077e14     ad_block_client.obj
 0002:00035e1c       ??_C@_06HEGBIPII@ocatio@   0000000180077e1c     ad_block_client.obj
 0002:00035e24       ??_C@_06BFBPOCFK@perfor@   0000000180077e24     ad_block_client.obj
 0002:00035e2c       ??_C@_06NCBLBBMA@oogle?9@  0000000180077e2c     ad_block_client.obj
 0002:00035e34       ??_C@_06LIHNPAJB@analyt@   0000000180077e34     ad_block_client.obj
 0002:00035e3c       ??_C@_06LCPGIKJF@tatic?4@  0000000180077e3c     ad_block_client.obj
 0002:00035e44       ??_C@_06DCABOHCL@facebo@   0000000180077e44     ad_block_client.obj
 0002:00035e4c       ??_C@_06LAOOMHOP@proces@   0000000180077e4c     ad_block_client.obj
 0002:00035e54       ??_C@_06GPHHDING@serve?4@  0000000180077e54     ad_block_client.obj
 0002:00035e5c       ??_C@_06EIMOCMDC@dserve@   0000000180077e5c     ad_block_client.obj
 0002:00035e64       ??_C@_06LIFLDEME@dtech?4@  0000000180077e64     ad_block_client.obj
 0002:00035e6c       ??_C@_06GGCFBJPH@homepa@   0000000180077e6c     ad_block_client.obj
 0002:00035e74       ??_C@_06HLNNEOHH@produc@   0000000180077e74     ad_block_client.obj
 0002:00035e7c       ??_C@_06MABNGEEO@articl@   0000000180077e7c     ad_block_client.obj
 0002:00035e84       ??_C@_06JJLAMBGK@target@   0000000180077e84     ad_block_client.obj
 0002:00035e8c       ??_C@_06GDMNJKIA@hannel@   0000000180077e8c     ad_block_client.obj
 0002:00035e94       ??_C@_06HBHPGCBC@tps?3?1?1@ 0000000180077e94     ad_block_client.obj
 0002:00035e9c       ??_C@_06IBBENCAA@tp?3?1?1m@ 0000000180077e9c     ad_block_client.obj
 0002:00035ea4       ??_C@_06GDDDECDH@standa@   0000000180077ea4     ad_block_client.obj
 0002:00035eac       ??_C@_06IONHBBMJ@ooglea@   0000000180077eac     ad_block_client.obj
 0002:00035eb4       ??_C@_06BGLNLIBE@ajax?1l@  0000000180077eb4     ad_block_client.obj
 0002:00035ebc       ??_C@_06HOHILOBM@tp?3?1?1p@ 0000000180077ebc     ad_block_client.obj
 0002:00035ec4       ??_C@_06IMOIHCOM@ka?9cdn@  0000000180077ec4     ad_block_client.obj
 0002:00035ecc       ??_C@_06OBBELAFL@dtechu@   0000000180077ecc     ad_block_client.obj
 0002:00035ed4       ??_C@_06KBFOGDDD@media?1@  0000000180077ed4     ad_block_client.obj
 0002:00035edc       ??_C@_06IBGMPKPI@adServ@   0000000180077edc     ad_block_client.obj
 0002:00035ee4       ??_C@_06LHDCCGOD@dverti@   0000000180077ee4     ad_block_client.obj
 0002:00035eec       ??_C@_06PABIMIFG@com?1ad@  0000000180077eec     ad_block_client.obj
 0002:00035ef4       ??_C@_06HJHJCKIO@server@   0000000180077ef4     ad_block_client.obj
 0002:00035efc       ??_C@_06EKFMLOED@js?$DPcal@ 0000000180077efc     ad_block_client.obj
 0002:00035f04       ??_C@_06MGKHENDK@roadca@   0000000180077f04     ad_block_client.obj
 0002:00035f0c       ??_C@_06CDLKPAPK@servic@   0000000180077f0c     ad_block_client.obj
 0002:00035f14       ??_C@_06CKMKLJHH@d?4doub@  0000000180077f14     ad_block_client.obj
 0002:00035f1c       ??_C@_06KLOMKENL@?4doubl@  0000000180077f1c     ad_block_client.obj
 0002:00035f24       ??_C@_06NGEMNNMG@oublec@   0000000180077f24     ad_block_client.obj
 0002:00035f2c       ??_C@_06FPHIAGBL@ddm?1ad@  0000000180077f2c     ad_block_client.obj
 0002:00035f34       ??_C@_06KAOMAINC@00x250@   0000000180077f34     ad_block_client.obj
 0002:00035f3c       ??_C@_06LGDLAACP@click?$CF@ 0000000180077f3c     ad_block_client.obj
 0002:00035f44       ??_C@_06CCDNIPIN@pagead@   0000000180077f44     ad_block_client.obj
 0002:00035f4c       ??_C@_06DFHGJNMI@yndica@   0000000180077f4c     ad_block_client.obj
 0002:00035f54       ??_C@_06JPPHOHMK@earch?4@  0000000180077f54     ad_block_client.obj
 0002:00035f5c       ??_C@_06PKBNCBKI@iframe@   0000000180077f5c     ad_block_client.obj
 0002:00035f64       ??_C@_06LNMEEHC@img?4co@   0000000180077f64     ad_block_client.obj
 0002:00035f6c       ??_C@_06DCBPBDPD@stats?4@  0000000180077f6c     ad_block_client.obj
 0002:00035f74       ??_C@_06FFMPNJOE@click?4@  0000000180077f74     ad_block_client.obj
 0002:00035f7c       ??_C@_06EJGFOKHC@layer?4@  0000000180077f7c     ad_block_client.obj
 0002:00035f84       ??_C@_06HMMDGFAF@flash?1@  0000000180077f84     ad_block_client.obj
 0002:00035f8c       ??_C@_06HKNDFNAF@rq?1dar@  0000000180077f8c     ad_block_client.obj
 0002:00035f94       ??_C@_06HHCJPGOG@darla?1@  0000000180077f94     ad_block_client.obj
 0002:00035f9c       ??_C@_06OKDJDLNO@com?1ss@  0000000180077f9c     ad_block_client.obj
 0002:00035fa4       ??_C@_06KEKEBGIL@embed?4@  0000000180077fa4     ad_block_client.obj
 0002:00035fac       ??_C@_06HPOMKBOF@index?4@  0000000180077fac     ad_block_client.obj
 0002:00035fb4       ??_C@_06INAGBPJK@artner@   0000000180077fb4     ad_block_client.obj
 0002:00035fbc       ??_C@_06FAHONLDD@layer?1@  0000000180077fbc     ad_block_client.obj
 0002:00035fc4       ??_C@_06BBKLFNPM@referr@   0000000180077fc4     ad_block_client.obj
 0002:00035fcc       ??_C@_06CHIEGPCI@assets@   0000000180077fcc     ad_block_client.obj
 0002:00035fd4       ??_C@_06GDJCIELB@javasc@   0000000180077fd4     ad_block_client.obj
 0002:00035fdc       ??_C@_06EKNFNOKI@custom@   0000000180077fdc     ad_block_client.obj
 0002:00035fe4       ??_C@_06PJMOKDCB@com?1js@  0000000180077fe4     ad_block_client.obj
 0002:00035fec       ??_C@_06NAJCGMCD@js?1jqu@  0000000180077fec     ad_block_client.obj
 0002:00035ff4       ??_C@_06JIINPOHG@query?9@  0000000180077ff4     ad_block_client.obj
 0002:00035ffc       ??_C@_06DJDJDFIK@js?1com@  0000000180077ffc     ad_block_client.obj
 0002:00036004       ??_C@_06KKALGCGO@treams@   0000000180078004     ad_block_client.obj
 0002:0003600c       ??_C@_06DLFAJMEK@onfig?4@  000000018007800c     ad_block_client.obj
 0002:00036014       ??_C@_06KNDNKLHE@dictio@   0000000180078014     ad_block_client.obj
 0002:0003601c       ??_C@_06LCIKAGKD@includ@   000000018007801c     ad_block_client.obj
 0002:00036024       ??_C@_06PIDEFAKL@ad?4js?$DP@ 0000000180078024     ad_block_client.obj
 0002:0003602c       ??_C@_06FHLDKGIK@curveb@   000000018007802c     ad_block_client.obj
 0002:00036034       ??_C@_06IFBDOKNG@emplat@   0000000180078034     ad_block_client.obj
 0002:0003603c       ??_C@_06DPDBDIID@reativ@   000000018007803c     ad_block_client.obj
 0002:00036044       ??_C@_06HLEJDDLA@loadin@   0000000180078044     ad_block_client.obj
 0002:0003604c       ??_C@_06HEBKAGDH@Events@   000000018007804c     ad_block_client.obj
 0002:00036054       ??_C@_06LPLGMLP@screen@    0000000180078054     ad_block_client.obj
 0002:0003605c       ??_C@_06BICLMCKD@view?1c@  000000018007805c     ad_block_client.obj
 0002:00036064       ??_C@_06HLHAOBGD@naviga@   0000000180078064     ad_block_client.obj
 0002:0003606c       ??_C@_06FPIDDEHG@review@   000000018007806c     ad_block_client.obj
 0002:00036074       ??_C@_06BDLHCPIA@beacon@   0000000180078074     ad_block_client.obj
 0002:0003607c       ??_C@_06KKLLJMPE@query?1@  000000018007807c     ad_block_client.obj
 0002:00036084       ??_C@_06PJDGECAD@oogle?4@  0000000180078084     ad_block_client.obj
 0002:0003608c       ??_C@_06DGDLPBAN@client@   000000018007808c     ad_block_client.obj
 0002:00036094       ??_C@_06NCGDPKCC@handle@   0000000180078094     ad_block_client.obj
 0002:0003609c       ??_C@_06PJIGMIJB@Client@   000000018007809c     ad_block_client.obj
 0002:000360a4       ??_C@_06DMODBILG@commen@   00000001800780a4     ad_block_client.obj
 0002:000360ac       ??_C@_06LEDCEBPF@catego@   00000001800780ac     ad_block_client.obj
 0002:000360b4       ??_C@_06EKMKMPKE@contex@   00000001800780b4     ad_block_client.obj
 0002:000360bc       ??_C@_06IANGHLJH@counte@   00000001800780bc     ad_block_client.obj
 0002:000360c4       ??_C@_06MHOMHIDM@report@   00000001800780c4     ad_block_client.obj
 0002:000360cc       ??_C@_06NFKBBMHO@accoun@   00000001800780cc     ad_block_client.obj
 0002:000360d4       ??_C@_06CAJANGPL@kamaih@   00000001800780d4     ad_block_client.obj
 0002:000360dc       ??_C@_06FAIHKMAE@livera@   00000001800780dc     ad_block_client.obj
 0002:000360e4       ??_C@_06GMNDDNMK@js?1Liv@  00000001800780e4     ad_block_client.obj
 0002:000360ec       ??_C@_06HLPPNOHJ@?$DPadraw@ 00000001800780ec     ad_block_client.obj
 0002:000360f4       ??_C@_06CECDGJEB@ontent@   00000001800780f4     ad_block_client.obj
 0002:000360fc       ??_C@_06IJOCEAKB@com?1ga@  00000001800780fc     ad_block_client.obj
 0002:00036104       ??_C@_06CACGCFBL@gadget@   0000000180078104     ad_block_client.obj
 0002:0003610c       ??_C@_06NLFCANPD@random@   000000018007810c     ad_block_client.obj
 0002:00036114       ??_C@_06MOFFEEMH@tp?3?1?1j@ 0000000180078114     ad_block_client.obj
 0002:0003611c       ??_C@_06IIHHOJJP@agent?4@  000000018007811c     ad_block_client.obj
 0002:00036124       ??_C@_06EONBMDGE@AdServ@   0000000180078124     ad_block_client.obj
 0002:0003612c       ??_C@_06NLHNOBHB@ads?4ph@  000000018007812c     ad_block_client.obj
 0002:00036134       ??_C@_06BOMFPOHH@jQuery@   0000000180078134     ad_block_client.obj
 0002:0003613c       ??_C@_06KNILGBJA@adstra@   000000018007813c     ad_block_client.obj
 0002:00036144       ??_C@_06OLAPKHEJ@frames@   0000000180078144     ad_block_client.obj
 0002:0003614c       ??_C@_06EJCLLFFF@asspor@   000000018007814c     ad_block_client.obj
 0002:00036154       ??_C@_06CJOFJCPK@js?1uni@  0000000180078154     ad_block_client.obj
 0002:0003615c       ??_C@_06IOKAGLDN@wrappe@   000000018007815c     ad_block_client.obj
 0002:00036164       ??_C@_06OKBOIKLJ@newfor@   0000000180078164     ad_block_client.obj
 0002:0003616c       ??_C@_06KEJBIHCD@2?4html@  000000018007816c     ad_block_client.obj
 0002:00036174       ??_C@_06EHKMKLEG@?$DPname?$DN@ 0000000180078174     ad_block_client.obj
 0002:0003617c       ??_C@_06PKIADEDP@textli@   000000018007817c     ad_block_client.obj
 0002:00036184       ??_C@_06JPOCFNME@hcdn?4c@  0000000180078184     ad_block_client.obj
 0002:0003618c       ??_C@_06JIKLOOLA@classi@   000000018007818c     ad_block_client.obj
 0002:00036194       ??_C@_06NFGEOOAK@ocial?1@  0000000180078194     ad_block_client.obj
 0002:0003619c       ??_C@_06HGGMAJJH@serve?1@  000000018007819c     ad_block_client.obj
 0002:000361a4       ??_C@_06NMBHLGGO@refres@   00000001800781a4     ad_block_client.obj
 0002:000361ac       ??_C@_06OEHLGDDO@dservi@   00000001800781ac     ad_block_client.obj
 0002:000361b4       ??_C@_06ENGOCFEI@com?1li@  00000001800781b4     ad_block_client.obj
 0002:000361bc       ??_C@_06BPHEMPDO@libtrc@   00000001800781bc     ad_block_client.obj
 0002:000361c4       ??_C@_06CLANHILA@tag?1js@  00000001800781c4     ad_block_client.obj
 0002:000361cc       ??_C@_06NFBKEDKP@gpt?1pu@  00000001800781cc     ad_block_client.obj
 0002:000361d4       ??_C@_06GGHOEKDC@ads_im@   00000001800781d4     ad_block_client.obj
 0002:000361dc       ??_C@_06JPNICCCO@idgets@   00000001800781dc     ad_block_client.obj
 0002:000361e4       ??_C@_06NLLABNLA@provid@   00000001800781e4     ad_block_client.obj
 0002:000361ec       ??_C@_06GMNGNIDL@recomm@   00000001800781ec     ad_block_client.obj
 0002:000361f4       ??_C@_06NEFJJANA@ubads?4@  00000001800781f4     ad_block_client.obj
 0002:000361fc       ??_C@_06KNDDJCMB@gampad@   00000001800781fc     ad_block_client.obj
 0002:00036204       ??_C@_06OIIPKJBE@28x90_@   0000000180078204     ad_block_client.obj
 0002:0003620c       ??_C@_06LGNCCACI@select@   000000018007820c     ad_block_client.obj
 0002:00036214       ??_C@_06GHFOEJOE@univer@   0000000180078214     ad_block_client.obj
 0002:0003621c       ??_C@_06JMJBIBOM@develo@   000000018007821c     ad_block_client.obj
 0002:00036224       ??_C@_06JJFLPBNO@survey@   0000000180078224     ad_block_client.obj
 0002:0003622c       ??_C@_06MOMBJNAE@isplay@   000000018007822c     ad_block_client.obj
 0002:00036234       ??_C@_06LEPFCBBJ@rights@   0000000180078234     ad_block_client.obj
 0002:0003623c       ??_C@_06PDILJCEJ@irecto@   000000018007823c     ad_block_client.obj
 0002:00036244       ??_C@_06IPBPPECH@cademi@   0000000180078244     ad_block_client.obj
 0002:0003624c       ??_C@_06CFKKJEKM@chool?9@  000000018007824c     ad_block_client.obj
 0002:00036254       ??_C@_06BOGPCOIP@ersona@   0000000180078254     ad_block_client.obj
 0002:0003625c       ??_C@_06HALDJPFL@digita@   000000018007825c     ad_block_client.obj
 0002:00036264       ??_C@_06HKIDKHHB@adclic@   0000000180078264     ad_block_client.obj
 0002:0003626c       ??_C@_06FEABPGGF@rackin@   000000018007826c     ad_block_client.obj
 0002:00036274       ??_C@_06CAAJCBDG@anner?9@  0000000180078274     ad_block_client.obj
 0002:0003627c       ??_C@_06OOFEOFOB@bundle@   000000018007827c     ad_block_client.obj
 0002:00036284       ??_C@_06IALECGNE@min?4js@  0000000180078284     ad_block_client.obj
 0002:0003628c       ??_C@_06GKJHIJIF@html5?1@  000000018007828c     ad_block_client.obj
 0002:00036294       ??_C@_06FGCAPOMH@contro@   0000000180078294     ad_block_client.obj
 0002:0003629c       ??_C@_06LELCBMLC@event?4@  000000018007829c     ad_block_client.obj
 0002:000362a4       ??_C@_06JACBBEMF@ytimg?4@  00000001800782a4     ad_block_client.obj
 0002:000362ac       ??_C@_06IAAOMEKN@render@   00000001800782ac     ad_block_client.obj
 0002:000362b4       ??_C@_06DBHEJNGA@common@   00000001800782b4     ad_block_client.obj
 0002:000362bc       ??_C@_06GCEILJLB@layer?9@  00000001800782bc     ad_block_client.obj
 0002:000362c4       ??_C@_06NCDOMMOH@frame_@   00000001800782c4     ad_block_client.obj
 0002:000362cc       ??_C@_06OJNHBEOD@elemen@   00000001800782cc     ad_block_client.obj
 0002:000362d4       ??_C@_06HFKPFKMP@button@   00000001800782d4     ad_block_client.obj
 0002:000362dc       ??_C@_06OHCMFCPN@idgeta@   00000001800782dc     ad_block_client.obj
 0002:000362e4       ??_C@_06OOIMCDNP@framed@   00000001800782e4     ad_block_client.obj
 0002:000362ec       ??_C@_06NAHGAPDH@ad_dat@   00000001800782ec     ad_block_client.obj
 0002:000362f4       ??_C@_06JPJECPHK@adlib?1@  00000001800782f4     ad_block_client.obj
 0002:000362fc       ??_C@_06NJKNCHLF@style_@   00000001800782fc     ad_block_client.obj
 0002:00036304       ??_C@_06JDHMBICO@slide_@   0000000180078304     ad_block_client.obj
 0002:0003630c       ??_C@_06MKLHOBCD@combo?$DP@ 000000018007830c     ad_block_client.obj
 0002:00036314       ??_C@_06OAJMEMBL@styles@   0000000180078314     ad_block_client.obj
 0002:0003631c       ??_C@_06FKINLPML@theme?1@  000000018007831c     ad_block_client.obj
 0002:00036324       ??_C@_06NCEDMIB@weathe@    0000000180078324     ad_block_client.obj
 0002:0003632c       ??_C@_06IODDBCLE@tream?9@  000000018007832c     ad_block_client.obj
 0002:00036334       ??_C@_06IJBBLHHP@ransit@   0000000180078334     ad_block_client.obj
 0002:0003633c       ??_C@_06ENCAIJBE@imagel@   000000018007833c     ad_block_client.obj
 0002:00036344       ??_C@_06GGLMBGMH@router@   0000000180078344     ad_block_client.obj
 0002:0003634c       ??_C@_06HIDILOEA@native@   000000018007834c     ad_block_client.obj
 0002:00036354       ??_C@_06NGFAGOMG@skins?1@  0000000180078354     ad_block_client.obj
 0002:0003635c       ??_C@_06CKBNKACB@view?1a@  000000018007835c     ad_block_client.obj
 0002:00036364       ??_C@_06COEDGBKD@w?1asse@  0000000180078364     ad_block_client.obj
 0002:0003636c       ??_C@_06MJNGELAN@allery@   000000018007836c     ad_block_client.obj
 0002:00036374       ??_C@_06CLECHIM@view?9b@   0000000180078374     ad_block_client.obj
 0002:0003637c       ??_C@_06CBCAKHMP@market@   000000018007837c     ad_block_client.obj
 0002:00036384       ??_C@_06PJECAHFI@ctions@   0000000180078384     ad_block_client.obj
 0002:0003638c       ??_C@_06NLJOBOIN@ublic?1@  000000018007838c     ad_block_client.obj
 0002:00036394       ??_C@_06NDFJLDOP@resour@   0000000180078394     ad_block_client.obj
 0002:0003639c       ??_C@_06DGPPOJKF@viewer@   000000018007839c     ad_block_client.obj
 0002:000363a4       ??_C@_06EFBLMAJD@networ@   00000001800783a4     ad_block_client.obj
 0002:000363ac       ??_C@_06BCKPCJJJ@bucket@   00000001800783ac     ad_block_client.obj
 0002:000363b4       ??_C@_06CHPEJBOD@device@   00000001800783b4     ad_block_client.obj
 0002:000363bc       ??_C@_06PJABDALJ@logo_d@   00000001800783bc     ad_block_client.obj
 0002:000363c4       ??_C@_06NOBPNDKF@top_ba@   00000001800783c4     ad_block_client.obj
 0002:000363cc       ??_C@_06IGOMNGIL@earch?1@  00000001800783cc     ad_block_client.obj
 0002:000363d4       ??_C@_06LENKLEAJ@earch?9@  00000001800783d4     ad_block_client.obj
 0002:000363dc       ??_C@_06GHGFEJNB@cache?1@  00000001800783dc     ad_block_client.obj
 0002:000363e4       ??_C@_06OEJOAFPN@lobal?1@  00000001800783e4     ad_block_client.obj
 0002:000363ec       ??_C@_06KJNDKPHN@earch_@   00000001800783ec     ad_block_client.obj
 0002:000363f4       ??_C@_06KGAHANHH@instan@   00000001800783f4     ad_block_client.obj
 0002:000363fc       ??_C@_06DBIKHNHA@asset?1@  00000001800783fc     ad_block_client.obj
 0002:00036404       ??_C@_06KNCPCPHF@tools?1@  0000000180078404     ad_block_client.obj
 0002:0003640c       ??_C@_06IIHHPPC@calend@    000000018007840c     ad_block_client.obj
 0002:00036414       ??_C@_06CMOFIPNN@respon@   0000000180078414     ad_block_client.obj
 0002:0003641c       ??_C@_06FHAAAMCB@akeove@   000000018007841c     ad_block_client.obj
 0002:00036424       ??_C@_06PMMPCIPB@bottom@   0000000180078424     ad_block_client.obj
 0002:0003642c       ??_C@_06IGFNGMLF@home?1n@  000000018007842c     ad_block_client.obj
 0002:00036434       ??_C@_06IJPBCFLA@nterfa@   0000000180078434     ad_block_client.obj
 0002:0003643c       ??_C@_06NAKFEOLL@com?1ip@  000000018007843c     ad_block_client.obj
 0002:00036444       ??_C@_06GDPDHDML@inance@   0000000180078444     ad_block_client.obj
 0002:0003644c       ??_C@_06KCELPKEE@serial@   000000018007844c     ad_block_client.obj
 0002:00036454       ??_C@_06GDOLJBFD@click_@   0000000180078454     ad_block_client.obj
 0002:0003645c       ??_C@_06PNABLFBB@frame?1@  000000018007845c     ad_block_client.obj
 0002:00036464       ??_C@_06BBGCFHP@intere@    0000000180078464     ad_block_client.obj
 0002:0003646c       ??_C@_06JJOPEDOP@Conten@   000000018007846c     ad_block_client.obj
 0002:00036474       ??_C@_06JKDNBPMO@column@   0000000180078474     ad_block_client.obj
 0002:0003647c       ??_C@_06JFHNFGIO@ashion@   000000018007847c     ad_block_client.obj
 0002:00036484       ??_C@_06BFHMBELK@match_@   0000000180078484     ad_block_client.obj
 0002:0003648c       ??_C@_06HFNCOEMG@genera@   000000018007848c     ad_block_client.obj
 0002:00036494       ??_C@_06KNDICMNC@show_a@   0000000180078494     ad_block_client.obj
 0002:0003649c       ??_C@_06NNPABPEO@featur@   000000018007849c     ad_block_client.obj
 0002:000364a4       ??_C@_06LELDNFLJ@discou@   00000001800784a4     ad_block_client.obj
 0002:000364ac       ??_C@_06KACKJGEL@uction@   00000001800784ac     ad_block_client.obj
 0002:000364b4       ??_C@_06FEMBPCCG@index?9@  00000001800784b4     ad_block_client.obj
 0002:000364bc       ??_C@_06NGKIGHHP@lobal?9@  00000001800784bc     ad_block_client.obj
 0002:000364c4       ??_C@_06BCDPEDLE@anner?1@  00000001800784c4     ad_block_client.obj
 0002:000364cc       ??_C@_06OLNAIILL@lazylo@   00000001800784cc     ad_block_client.obj
 0002:000364d4       ??_C@_06ONJHMFEA@tracke@   00000001800784d4     ad_block_client.obj
 0002:000364dc       ??_C@_06DOPOGBGP@switch@   00000001800784dc     ad_block_client.obj
 0002:000364e4       ??_C@_06GPNJAKNJ@overla@   00000001800784e4     ad_block_client.obj
 0002:000364ec       ??_C@_06JDAHBCCC@compon@   00000001800784ec     ad_block_client.obj
 0002:000364f4       ??_C@_06BEHHOOBE@ffline@   00000001800784f4     ad_block_client.obj
 0002:000364fc       ??_C@_06HAEDCMEC@frontp@   00000001800784fc     ad_block_client.obj
 0002:00036504       ??_C@_06IENGEGME@linked@   0000000180078504     ad_block_client.obj
 0002:0003650c       ??_C@_06BPPNJGEH@platfo@   000000018007850c     ad_block_client.obj
 0002:00036514       ??_C@_06JFNEIJCN@js?1thi@  0000000180078514     ad_block_client.obj
 0002:0003651c       ??_C@_06CLKHLNMM@Frame?4@  000000018007851c     ad_block_client.obj
 0002:00036524       ??_C@_06JJNLNJFG@tatic?9@  0000000180078524     ad_block_client.obj
 0002:0003652c       ??_C@_06EHPGMKFG@fronte@   000000018007852c     ad_block_client.obj
 0002:00036534       ??_C@_06GJCGLCPL@Deskto@   0000000180078534     ad_block_client.obj
 0002:0003653c       ??_C@_06GGPHJAKE@index?1@  000000018007853c     ad_block_client.obj
 0002:00036544       ??_C@_06CIBLJDFD@mages?1@  0000000180078544     ad_block_client.obj
 0002:0003654c       ??_C@_06PJFOAFIM@js?1out@  000000018007854c     ad_block_client.obj
 0002:00036554       ??_C@_06BLEHJBJH@panel_@   0000000180078554     ad_block_client.obj
 0002:0003655c       ??_C@_06LGKMHEAJ@a?4html@  000000018007855c     ad_block_client.obj
 0002:00036564       ??_C@_06LKDNJOBF@impres@   0000000180078564     ad_block_client.obj
 0002:0003656c       ??_C@_06DKKJIJEO@adunit@   000000018007856c     ad_block_client.obj
 0002:00036574       ??_C@_06KKDJIBMD@tp?3?1?1n@ 0000000180078574     ad_block_client.obj
 0002:0003657c       ??_C@_06HPOOGCHF@compar@   000000018007857c     ad_block_client.obj
 0002:00036584       ??_C@_06PFEJGBNP@ajax?1g@  0000000180078584     ad_block_client.obj
 0002:0003658c       ??_C@_06ELMPABDN@stock?1@  000000018007858c     ad_block_client.obj
 0002:00036594       ??_C@_06OLKMEJNH@img?4ad@  0000000180078594     ad_block_client.obj
 0002:0003659c       ??_C@_06NGFNJCA@adbox?4@   000000018007859c     ad_block_client.obj
 0002:000365a4       ??_C@_06MNEAPDPF@ads?1de@  00000001800785a4     ad_block_client.obj
 0002:000365ac       ??_C@_06EJMIOJFC@index_@   00000001800785ac     ad_block_client.obj
 0002:000365b4       ??_C@_06CNNPGOHM@proxy?4@  00000001800785b4     ad_block_client.obj
 0002:000365bc       ??_C@_06LHIFIHNM@Native@   00000001800785bc     ad_block_client.obj
 0002:000365c4       ??_C@_06EOIELIPE@filter@   00000001800785c4     ad_block_client.obj
 0002:000365cc       ??_C@_06ELPIGLCO@960_90@   00000001800785cc     ad_block_client.obj
 0002:000365d4       ??_C@_06FMNPADOO@com?1vi@  00000001800785d4     ad_block_client.obj
 0002:000365dc       ??_C@_06ILBBAOHA@visito@   00000001800785dc     ad_block_client.obj
 0002:000365e4       ??_C@_06KLOGDOKP@thirdp@   00000001800785e4     ad_block_client.obj
 0002:000365ec       ??_C@_06NCDDCBGG@mazon?4@  00000001800785ec     ad_block_client.obj
 0002:000365f4       ??_C@_06BKCNPBNB@mages?9@  00000001800785f4     ad_block_client.obj
 0002:000365fc       ??_C@_06CPMJCCKH@com?1im@  00000001800785fc     ad_block_client.obj
 0002:00036604       ??_C@_06LOBMEHPF@engine@   0000000180078604     ad_block_client.obj
 0002:0003660c       ??_C@_06NOJDDNIB@rotato@   000000018007860c     ad_block_client.obj
 0002:00036614       ??_C@_06INMPLHIJ@w?4blog@  0000000180078614     ad_block_client.obj
 0002:0003661c       ??_C@_06OJANNPAN@blogge@   000000018007861c     ad_block_client.obj
 0002:00036624       ??_C@_06HNJAFFAK@follow@   0000000180078624     ad_block_client.obj
 0002:0003662c       ??_C@_06KLOJENHH@crossd@   000000018007862c     ad_block_client.obj
 0002:00036634       ??_C@_06MMFANDHE@wordpr@   0000000180078634     ad_block_client.obj
 0002:0003663c       ??_C@_06FJKBNFNG@scroll@   000000018007863c     ad_block_client.obj
 0002:00036644       ??_C@_06NAMNOFJK@lightb@   0000000180078644     ad_block_client.obj
 0002:0003664c       ??_C@_06COBCGOFN@pages?1@  000000018007864c     ad_block_client.obj
 0002:00036654       ??_C@_06EDFLAGCP@yahoo?1@  0000000180078654     ad_block_client.obj
 0002:0003665c       ??_C@_06OHCJEDNA@listin@   000000018007865c     ad_block_client.obj
 0002:00036664       ??_C@_06EELMPLOO@ads?9if@  0000000180078664     ad_block_client.obj
 0002:0003666c       ??_C@_06PLLELHNO@rightt@   000000018007866c     ad_block_client.obj
 0002:00036674       ??_C@_06BHEJHPFL@delive@   0000000180078674     ad_block_client.obj
 0002:0003667c       ??_C@_06OBHHIAAB@ajs?4ph@  000000018007867c     ad_block_client.obj
 0002:00036684       ??_C@_06LPEEICHK@zoneid@   0000000180078684     ad_block_client.obj
 0002:0003668c       ??_C@_06INEIDGNM@ing?4co@  000000018007868c     ad_block_client.obj
 0002:00036694       ??_C@_06HBFNPGIC@shared@   0000000180078694     ad_block_client.obj
 0002:0003669c       ??_C@_06ONDJBHGB@Animat@   000000018007869c     ad_block_client.obj
 0002:000366a4       ??_C@_06FBHLJAFE@marque@   00000001800786a4     ad_block_client.obj
 0002:000366ac       ??_C@_06DDCKHKNN@js?1ini@  00000001800786ac     ad_block_client.obj
 0002:000366b4       ??_C@_06LDFGECMB@slider@   00000001800786b4     ad_block_client.obj
 0002:000366bc       ??_C@_06GJGKCONP@api?4ph@  00000001800786bc     ad_block_client.obj
 0002:000366c4       ??_C@_06PCKBDDEM@notifi@   00000001800786c4     ad_block_client.obj
 0002:000366cc       ??_C@_06KJJDIACG@adi?1eb@  00000001800786cc     ad_block_client.obj
 0002:000366d4       ??_C@_06IDABANGA@requir@   00000001800786d4     ad_block_client.obj
 0002:000366dc       ??_C@_06FDPMBMPD@flash_@   00000001800786dc     ad_block_client.obj
 0002:000366e4       ??_C@_06DEPHBEOA@pload?1@  00000001800786e4     ad_block_client.obj
 0002:000366ec       ??_C@_06PGJCFOED@style?1@  00000001800786ec     ad_block_client.obj
 0002:000366f4       ??_C@_06NODBIELJ@toolba@   00000001800786f4     ad_block_client.obj
 0002:000366fc       ??_C@_06DBAAKCBC@mages?4@  00000001800786fc     ad_block_client.obj
 0002:00036704       ??_C@_06PGDGGPGE@ad_typ@   0000000180078704     ad_block_client.obj
 0002:0003670c       ??_C@_06GLJGIDMG@ad_ids@   000000018007870c     ad_block_client.obj
 0002:00036714       ??_C@_06MOCDFOOL@pecial@   0000000180078714     ad_block_client.obj
 0002:0003671c       ??_C@_06PIBBOHKM@mediat@   000000018007871c     ad_block_client.obj
 0002:00036724       ??_C@_06MJDCAHFB@ad?1sta@  0000000180078724     ad_block_client.obj
 0002:0003672c       ??_C@_06OMAAAJA@ad?1con@   000000018007872c     ad_block_client.obj
 0002:00036734       ??_C@_06BPBOMFNI@extend@   0000000180078734     ad_block_client.obj
 0002:0003673c       ??_C@_06OAKFDEI@form?1s@   000000018007873c     ad_block_client.obj
 0002:00036744       ??_C@_06DLMMAMFK@html?$DPc@ 0000000180078744     ad_block_client.obj
 0002:0003674c       ??_C@_06CKOKGNPE@ds?4rub@  000000018007874c     ad_block_client.obj
 0002:00036754       ??_C@_06NBPAOEEM@ptimiz@   0000000180078754     ad_block_client.obj
 0002:0003675c       ??_C@_06ELCECNDP@js?1ads@  000000018007875c     ad_block_client.obj
 0002:00036764       ??_C@_06ICPGCBLE@adsbyg@   0000000180078764     ad_block_client.obj
 0002:0003676c       ??_C@_06MMEKDNAH@pub?9co@  000000018007876c     ad_block_client.obj
 0002:00036774       ??_C@_06DDDNEJEA@choice@   0000000180078774     ad_block_client.obj
 0002:0003677c       ??_C@_06DPJEEHNA@truste@   000000018007877c     ad_block_client.obj
 0002:00036784       ??_C@_06GAOPMFKJ@dynami@   0000000180078784     ad_block_client.obj
 0002:0003678c       ??_C@_06HEOINPBP@cached@   000000018007878c     ad_block_client.obj
 0002:00036794       ??_C@_06LNBBJMIA@modern@   0000000180078794     ad_block_client.obj
 0002:0003679c       ??_C@_06CMMNKELK@irect_@   000000018007879c     ad_block_client.obj
 0002:000367a4       ??_C@_06JDAAMFEF@reques@   00000001800787a4     ad_block_client.obj
 0002:000367ac       ??_C@_06DDOBKINA@nstall@   00000001800787ac     ad_block_client.obj
 0002:000367b4       ??_C@_06IKGKECNH@ffilia@   00000001800787b4     ad_block_client.obj
 0002:000367bc       ??_C@_06PDOGEDGL@type?$DNa@ 00000001800787bc     ad_block_client.obj
 0002:000367c4       ??_C@_06EDIGGKCO@html?1g@  00000001800787c4     ad_block_client.obj
 0002:000367cc       ??_C@_06EBADFKDD@smarta@   00000001800787cc     ad_block_client.obj
 0002:000367d4       ??_C@_06EMHNMNLA@t?4php?$DP@ 00000001800787d4     ad_block_client.obj
 0002:000367dc       ??_C@_06HNFBCLKJ@php?$DPid@ 00000001800787dc     ad_block_client.obj
 0002:000367e4       ??_C@_06CGLFADAO@pricer@   00000001800787e4     ad_block_client.obj
 0002:000367ec       ??_C@_06OEJADGJI@ad?1css@  00000001800787ec     ad_block_client.obj
 0002:000367f4       ??_C@_06FLNMCDFF@css?1ad@  00000001800787f4     ad_block_client.obj
 0002:000367fc       ??_C@_06IPJGGLEK@ad?1js?1@ 00000001800787fc     ad_block_client.obj
 0002:00036804       ??_C@_06KNGAJFOP@js?1scr@  0000000180078804     ad_block_client.obj
 0002:0003680c       ??_C@_06PEEIBOOJ@anner3@   000000018007880c     ad_block_client.obj
 0002:00036814       ??_C@_06BIOPLHBB@house_@   0000000180078814     ad_block_client.obj
 0002:0003681c       ??_C@_06NCJAAAFP@ads?1ad@  000000018007881c     ad_block_client.obj
 0002:00036824       ??_C@_06IJNGDAHG@idget?1@  0000000180078824     ad_block_client.obj
 0002:0003682c       ??_C@_06JHLIGFND@ction?$DN@ 000000018007882c     ad_block_client.obj
 0002:00036834       ??_C@_06EMIDKNJD@themes@   0000000180078834     ad_block_client.obj
 0002:0003683c       ??_C@_06EDJFMLLJ@dapmsn@   000000018007883c     ad_block_client.obj
 0002:00036844       ??_C@_06NMLHODEP@ADSAdC@   0000000180078844     ad_block_client.obj
 0002:0003684c       ??_C@_06EFMBPGJP@premiu@   000000018007884c     ad_block_client.obj
 0002:00036854       ??_C@_06EACNKNE@publis@    0000000180078854     ad_block_client.obj
 0002:0003685c       ??_C@_06KNOOBAFI@rightr@   000000018007885c     ad_block_client.obj
 0002:00036864       ??_C@_06FGCBPCOG@btrll?4@  0000000180078864     ad_block_client.obj
 0002:0003686c       ??_C@_06JAMNABDH@idget?4@  000000018007886c     ad_block_client.obj
 0002:00036874       ??_C@_06INBCONIP@tumblr@   0000000180078874     ad_block_client.obj
 0002:0003687c       ??_C@_06MDBDMFBB@landin@   000000018007887c     ad_block_client.obj
 0002:00036884       ??_C@_06IDGDJAB@egiste@    0000000180078884     ad_block_client.obj
 0002:0003688c       ??_C@_06HJNGGFGI@vendor@   000000018007888c     ad_block_client.obj
 0002:00036894       ??_C@_06KFDIMBLP@popove@   0000000180078894     ad_block_client.obj
 0002:0003689c       ??_C@_06GMGEHPNJ@yahoo_@   000000018007889c     ad_block_client.obj
 0002:000368a4       ??_C@_06JAPKNKHK@splash@   00000001800788a4     ad_block_client.obj
 0002:000368ac       ??_C@_06KGFIKBNI@icroso@   00000001800788ac     ad_block_client.obj
 0002:000368b4       ??_C@_06ODIDNOPN@obile?1@  00000001800788b4     ad_block_client.obj
 0002:000368bc       ??_C@_06NBLFLMHP@obile?9@  00000001800788bc     ad_block_client.obj
 0002:000368c4       ??_C@_06JMAAFDKG@broker@   00000001800788c4     ad_block_client.obj
 0002:000368cc       ??_C@_06LBJPHENF@files?1@  00000001800788cc     ad_block_client.obj
 0002:000368d4       ??_C@_06KJPEBMMN@store?1@  00000001800788d4     ad_block_client.obj
 0002:000368dc       ??_C@_06CEFAHBNL@Script@   00000001800788dc     ad_block_client.obj
 0002:000368e4       ??_C@_06POMJKEPM@Common@   00000001800788e4     ad_block_client.obj
 0002:000368ec       ??_C@_06OMHAFLNK@xvideo@   00000001800788ec     ad_block_client.obj
 0002:000368f4       ??_C@_06OFADOLJG@videos@   00000001800788f4     ad_block_client.obj
 0002:000368fc       ??_C@_06PHDICCOA@v2?1js?1@ 00000001800788fc     ad_block_client.obj
 0002:00036904       ??_C@_06NLCFNPIF@raffic@   0000000180078904     ad_block_client.obj
 0002:0003690c       ??_C@_06FDPNHABI@aypal?4@  000000018007890c     ad_block_client.obj
 0002:00036914       ??_C@_06PECKOEGE@cgi?9bi@  0000000180078914     ad_block_client.obj
 0002:0003691c       ??_C@_06NLEGGLCI@ads?1js@  000000018007891c     ad_block_client.obj
 0002:00036924       ??_C@_06CAKHJIDF@js?1bea@  0000000180078924     ad_block_client.obj
 0002:0003692c       ??_C@_06IGBFHPBB@show_b@   000000018007892c     ad_block_client.obj
 0002:00036934       ??_C@_06LNLPCHMK@embed?1@  0000000180078934     ad_block_client.obj
 0002:0003693c       ??_C@_06NPMHLLJ@lobaln@    000000018007893c     ad_block_client.obj
 0002:00036944       ??_C@_06HJDBAAKJ@home?1s@  0000000180078944     ad_block_client.obj
 0002:0003694c       ??_C@_06FNKGDFAK@promos@   000000018007894c     ad_block_client.obj
 0002:00036954       ??_C@_06FGIBFMD@net?4co@   0000000180078954     ad_block_client.obj
 0002:0003695c       ??_C@_06JKMDAJP@w?4news@   000000018007895c     ad_block_client.obj
 0002:00036964       ??_C@_06KPFIOJPD@news?4c@  0000000180078964     ad_block_client.obj
 0002:0003696c       ??_C@_06ILLBFFNM@js?1vid@  000000018007896c     ad_block_client.obj
 0002:00036974       ??_C@_06HPEBKCMF@layer_@   0000000180078974     ad_block_client.obj
 0002:0003697c       ??_C@_06CMMLHLFI@data?1c@  000000018007897c     ad_block_client.obj
 0002:00036984       ??_C@_06BEPMGNOO@page?9c@  0000000180078984     ad_block_client.obj
 0002:0003698c       ??_C@_06EMKMEPHP@com?1mi@  000000018007898c     ad_block_client.obj
 0002:00036994       ??_C@_06NFMMFMAB@show_s@   0000000180078994     ad_block_client.obj
 0002:0003699c       ??_C@_06EKDIBNBM@hamste@   000000018007899c     ad_block_client.obj
